{
   basf2 suppression 1
   Memcheck:Leak
   fun:malloc
   fun:PyCode_New
   fun:r_object
   fun:r_object
   fun:r_object
   fun:r_object
   fun:r_object
   fun:r_object
   fun:r_object
   fun:marshal_loads
   fun:PyCFunction_Call
   fun:PyEval_EvalFrameEx
}

{
   basf2 suppression 2
   Memcheck:Leak
   fun:malloc
   fun:PyCode_New
   fun:r_object
   fun:r_object
   fun:r_object
   fun:r_object
   fun:r_object
   fun:marshal_loads
   fun:PyCFunction_Call
   fun:PyEval_EvalFrameEx
   fun:_PyEval_EvalCodeWithName
   fun:PyEval_EvalFrameEx
}

{
   basf2 suppression 3
   Memcheck:Leak
   fun:_Znam
   fun:_ZN13TStreamerInfo10ReadBufferIPPcEEiR7TBufferRKT_PKPNS_9TCompInfoEiiiii
   fun:_ZN20TStreamerInfoActions17GenericReadActionER7TBufferPvPKNS_14TConfigurationE
   fun:_ZN11TBufferFile13ApplySequenceERKN20TStreamerInfoActions15TActionSequenceEPv
   fun:_ZN11TBufferFile15ReadClassBufferEPK6TClassPvS2_
   fun:_ZN11TDataMember8StreamerER7TBuffer
   fun:_ZN11TBufferFile13ReadObjectAnyEPK6TClass
   fun:_ZN22TGenCollectionStreamer11ReadObjectsEiR7TBufferPK6TClass
   fun:_ZN22TGenCollectionStreamer17ReadBufferGenericER7TBufferPvPK6TClass
   fun:_ZN11TBufferFile13ReadFastArrayEPvPK6TClassiP15TMemberStreamerS3_
   fun:_ZN20TStreamerInfoActions7ReadSTLIXadL_ZNS_26ReadSTLMemberWiseSameClassER7TBufferPvPKNS_14TConfigurationEsEEXadL_ZNS_26ReadSTLObjectWiseFastArrayES2_S3_S6_sjEEEEiS2_S3_S6_
   fun:_ZN11TBufferFile13ApplySequenceERKN20TStreamerInfoActions15TActionSequenceEPv
}

{
   basf2 suppression 4
   Memcheck:Leak
   fun:_Znwm
   fun:_ZNK19DummyVertexSmootherILj5EE5cloneEv
   fun:_ZN20AdaptiveVertexFitterC1ERKS_
   fun:_ZNK20AdaptiveVertexFitter5cloneEv
   fun:_ZN18AbstractConfFitterC1ERK12VertexFitterILj5EE
   fun:_ZN26ConfigurableAdaptiveFitterC1Ev
   fun:_GLOBAL__sub_I_ConfigurableAdaptiveFitter.cc
   fun:_dl_init
   fun:dl_open_worker
   fun:_dl_catch_error
   fun:_dl_open
   fun:dlopen_doit
}

{
   basf2 suppression 5
   Memcheck:Leak
   fun:_Znwm
   fun:_ZNK19DummyVertexSmootherILj5EE5cloneEv
   fun:_ZN20AdaptiveVertexFitterC1ERKS_
   fun:_ZNK20AdaptiveVertexFitter5cloneEv
   fun:_ZN18AbstractConfFitterC1ERKS_
   fun:_ZN26ConfigurableAdaptiveFitterC1ERKS_
   fun:_ZNK26ConfigurableAdaptiveFitter5cloneEv
   fun:_ZN23ReconstructorFromFitterC1ERK18AbstractConfFitter
   fun:_ZN19VertexFitterManager14registerFitterERKSsP18AbstractConfFitterS1_
   fun:_GLOBAL__sub_I_ConfigurableAdaptiveFitter.cc
   fun:_dl_init
   fun:dl_open_worker
}

{
   basf2 suppression 6
   Memcheck:Leak
   fun:_Znwm
   fun:_ZNK19DummyVertexSmootherILj5EE5cloneEv
   fun:_ZN20AdaptiveVertexFitterC1ERK17AnnealingScheduleRK24LinearizationPointFinderRK13VertexUpdatorILj5EERK33VertexTrackCompatibilityEstimatorILj5EERK14VertexSmootherILj5EERK18AbstractLTSFactoryILj5EE
   fun:_ZN27AdaptiveVertexReconstructor12setupFittersEddddddb
   fun:_ZN27AdaptiveVertexReconstructorC1Edddbd
   fun:_ZN33ConfigurableAdaptiveReconstructorC1Ev
   fun:_GLOBAL__sub_I_ConfigurableAdaptiveReconstructor.cc
   fun:_dl_init
   fun:dl_open_worker
   fun:_dl_catch_error
   fun:_dl_open
   fun:dlopen_doit
}

{
   basf2 suppression 7
   Memcheck:Leak
   fun:_Znwm
   fun:_ZNK19DummyVertexSmootherILj5EE5cloneEv
   fun:_ZN20AdaptiveVertexFitterC1ERK17AnnealingScheduleRK24LinearizationPointFinderRK13VertexUpdatorILj5EERK33VertexTrackCompatibilityEstimatorILj5EERK14VertexSmootherILj5EERK18AbstractLTSFactoryILj5EE
   fun:_ZN27AdaptiveVertexReconstructor12setupFittersEddddddb
   fun:_ZN27AdaptiveVertexReconstructorC1Edddbd
   fun:_ZN33ConfigurableAdaptiveReconstructorC1Ev
   fun:_GLOBAL__sub_I_ConfigurableAdaptiveReconstructor.cc
   fun:_dl_init
   fun:dl_open_worker
   fun:_dl_catch_error
   fun:_dl_open
   fun:dlopen_doit
}

{
   basf2 suppression 8
   Memcheck:Leak
   fun:_Znwm
   fun:_ZNK27LinearizedTrackStateFactory5cloneEv
   fun:_ZN22SequentialVertexFitterILj5EEC1ERKS0_
   fun:_ZNK18KalmanVertexFitter5cloneEv
   fun:_ZN18AbstractConfFitterC1ERK12VertexFitterILj5EE
   fun:_ZN24ConfigurableKalmanFitterC1Ev
   fun:_ZN17ConfFitterBuilderI24ConfigurableKalmanFitterEC1ERKSsS3_
   fun:_GLOBAL__sub_I_ConfigurableKalmanFitter.cc
   fun:_dl_init
   fun:dl_open_worker
   fun:_dl_catch_error
   fun:_dl_open
}

{
   basf2 suppression 9
   Memcheck:Leak
   fun:_Znwm
   fun:_ZNK19DummyVertexSmootherILj5EE5cloneEv
   fun:_ZN22SequentialVertexFitterILj5EEC1ERKS0_
   fun:_ZNK18KalmanVertexFitter5cloneEv
   fun:_ZN18AbstractConfFitterC1ERK12VertexFitterILj5EE
   fun:_ZN24ConfigurableKalmanFitterC1Ev
   fun:_ZN17ConfFitterBuilderI24ConfigurableKalmanFitterEC1ERKSsS3_
   fun:_GLOBAL__sub_I_ConfigurableKalmanFitter.cc
   fun:_dl_init
   fun:dl_open_worker
   fun:_dl_catch_error
   fun:_dl_open
}

{
   basf2 suppression 10
   Memcheck:Leak
   fun:_Znwm
   fun:_ZNK27LinearizedTrackStateFactory5cloneEv
   fun:_ZN22SequentialVertexFitterILj5EEC1ERKS0_
   fun:_ZNK18KalmanVertexFitter5cloneEv
   fun:_ZN18AbstractConfFitterC1ERKS_
   fun:_ZN24ConfigurableKalmanFitterC1ERKS_
   fun:_ZNK24ConfigurableKalmanFitter5cloneEv
   fun:_ZN23ReconstructorFromFitterC1ERK18AbstractConfFitter
   fun:_ZN19VertexFitterManager14registerFitterERKSsP18AbstractConfFitterS1_
   fun:_GLOBAL__sub_I_ConfigurableKalmanFitter.cc
   fun:_dl_init
   fun:dl_open_worker
}

{
   basf2 suppression 11
   Memcheck:Leak
   fun:_Znwm
   fun:_ZNK19DummyVertexSmootherILj5EE5cloneEv
   fun:_ZN22SequentialVertexFitterILj5EEC1ERKS0_
   fun:_ZNK18KalmanVertexFitter5cloneEv
   fun:_ZN19TrimmedVertexFinderC1EPK12VertexFitterILj5EEPK13VertexUpdatorILj5EEPK33VertexTrackCompatibilityEstimatorILj5EE
   fun:_ZN31ConfigurableTrimmedVertexFinderC1EPK12VertexFitterILj5EEPK13VertexUpdatorILj5EEPK33VertexTrackCompatibilityEstimatorILj5EE
   fun:_ZN25KalmanTrimmedVertexFinderC1Ev
   fun:_ZN31ConfigurableTrimmedKalmanFinder9configureERKN3edm12ParameterSetE
   fun:_ZN31ConfigurableTrimmedKalmanFinderC1Ev
   fun:_GLOBAL__sub_I_ConfigurableTrimmedKalmanFinder.cc
   fun:_dl_init
   fun:dl_open_worker
}

{
   basf2 suppression 12
   Memcheck:Leak
   fun:_Znwm
   fun:_ZNK22MultiPerigeeLTSFactory5cloneEv
   fun:_ZN20AdaptiveVertexFitterC1ERKS_
   fun:_ZNK20AdaptiveVertexFitter5cloneEv
   fun:_ZN23AdaptiveGsfVertexFitterC1ERKS_
   fun:_ZNK23AdaptiveGsfVertexFitter5cloneEv
   fun:_ZN18AbstractConfFitterC1ERK12VertexFitterILj5EE
   fun:_ZN37ConfigurableAdaptiveGaussianSumFilterC1Ev
   fun:_GLOBAL__sub_I_ConfigurableAdaptiveGaussianSumFilter.cc
   fun:_dl_init
   fun:dl_open_worker
   fun:_dl_catch_error
}

{
   basf2 suppression 13
   Memcheck:Leak
   fun:_Znwm
   fun:_ZNK22MultiPerigeeLTSFactory5cloneEv
   fun:_ZN20AdaptiveVertexFitterC1ERKS_
   fun:_ZNK20AdaptiveVertexFitter5cloneEv
   fun:_ZN23AdaptiveGsfVertexFitterC1ERKS_
   fun:_ZNK23AdaptiveGsfVertexFitter5cloneEv
   fun:_ZN18AbstractConfFitterC1ERKS_
   fun:_ZN37ConfigurableAdaptiveGaussianSumFilterC1ERKS_
   fun:_ZNK37ConfigurableAdaptiveGaussianSumFilter5cloneEv
   fun:_ZN23ReconstructorFromFitterC1ERK18AbstractConfFitter
   fun:_ZN19VertexFitterManager14registerFitterERKSsP18AbstractConfFitterS1_
   fun:_GLOBAL__sub_I_ConfigurableAdaptiveGaussianSumFilter.cc
}

{
   basf2 suppression 14
   Memcheck:Leak
   fun:_Znwm
   fun:_ZNK21CloseComponentsMergerILj3EE5cloneEv
   fun:_ZNK16GsfVertexUpdator5cloneEv
   fun:_ZN22SequentialVertexFitterILj5EEC1ERKS0_
   fun:_ZN15GsfVertexFitterC1ERKS_
   fun:_ZNK15GsfVertexFitter5cloneEv
   fun:_ZN18AbstractConfFitterC1ERK12VertexFitterILj5EE
   fun:_ZN29ConfigurableGaussianSumFilterC1Ev
   fun:_GLOBAL__sub_I_ConfigurableGaussianSumFilter.cc
   fun:_dl_init
   fun:dl_open_worker
   fun:_dl_catch_error
}

{
   basf2 suppression 15
   Memcheck:Leak
   fun:_Znwm
   fun:_ZNK22MultiPerigeeLTSFactory5cloneEv
   fun:_ZN22SequentialVertexFitterILj5EEC1ERKS0_
   fun:_ZN15GsfVertexFitterC1ERKS_
   fun:_ZNK15GsfVertexFitter5cloneEv
   fun:_ZN18AbstractConfFitterC1ERK12VertexFitterILj5EE
   fun:_ZN29ConfigurableGaussianSumFilterC1Ev
   fun:_GLOBAL__sub_I_ConfigurableGaussianSumFilter.cc
   fun:_dl_init
   fun:dl_open_worker
   fun:_dl_catch_error
   fun:_dl_open
}

{
   basf2 suppression 16
   Memcheck:Leak
   fun:_Znwm
   fun:_ZNK21CloseComponentsMergerILj3EE5cloneEv
   fun:_ZNK16GsfVertexUpdator5cloneEv
   fun:_ZN22SequentialVertexFitterILj5EEC1ERKS0_
   fun:_ZN15GsfVertexFitterC1ERKS_
   fun:_ZNK15GsfVertexFitter5cloneEv
   fun:_ZN18AbstractConfFitterC1ERKS_
   fun:_ZN29ConfigurableGaussianSumFilterC1ERKS_
   fun:_ZNK29ConfigurableGaussianSumFilter5cloneEv
   fun:_ZN23ReconstructorFromFitterC1ERK18AbstractConfFitter
   fun:_ZN19VertexFitterManager14registerFitterERKSsP18AbstractConfFitterS1_
   fun:_GLOBAL__sub_I_ConfigurableGaussianSumFilter.cc
}

{
   basf2 suppression 17
   Memcheck:Leak
   fun:_Znwm
   fun:_ZNK22MultiPerigeeLTSFactory5cloneEv
   fun:_ZN22SequentialVertexFitterILj5EEC1ERKS0_
   fun:_ZN15GsfVertexFitterC1ERKS_
   fun:_ZNK15GsfVertexFitter5cloneEv
   fun:_ZN18AbstractConfFitterC1ERKS_
   fun:_ZN29ConfigurableGaussianSumFilterC1ERKS_
   fun:_ZNK29ConfigurableGaussianSumFilter5cloneEv
   fun:_ZN23ReconstructorFromFitterC1ERK18AbstractConfFitter
   fun:_ZN19VertexFitterManager14registerFitterERKSsP18AbstractConfFitterS1_
   fun:_GLOBAL__sub_I_ConfigurableGaussianSumFilter.cc
   fun:_dl_init
}

{
   basf2 suppression 18
   Memcheck:Leak
   fun:_Znwm
   fun:_ZNK27LinearizedTrackStateFactory5cloneEv
   fun:_ZN20AdaptiveVertexFitterC1ERKS_
   fun:_ZNK20AdaptiveVertexFitter5cloneEv
   fun:_ZN18AbstractConfFitterC1ERK12VertexFitterILj5EE
   fun:_ZN26ConfigurableAdaptiveFitterC1Ev
   fun:_GLOBAL__sub_I_ConfigurableAdaptiveFitter.cc
   fun:_dl_init
   fun:dl_open_worker
   fun:_dl_catch_error
   fun:_dl_open
   fun:dlopen_doit
}

{
   basf2 suppression 19
   Memcheck:Leak
   fun:_Znwm
   fun:_ZNK27LinearizedTrackStateFactory5cloneEv
   fun:_ZN20AdaptiveVertexFitterC1ERKS_
   fun:_ZNK20AdaptiveVertexFitter5cloneEv
   fun:_ZN18AbstractConfFitterC1ERKS_
   fun:_ZN26ConfigurableAdaptiveFitterC1ERKS_
   fun:_ZNK26ConfigurableAdaptiveFitter5cloneEv
   fun:_ZN23ReconstructorFromFitterC1ERK18AbstractConfFitter
   fun:_ZN19VertexFitterManager14registerFitterERKSsP18AbstractConfFitterS1_
   fun:_GLOBAL__sub_I_ConfigurableAdaptiveFitter.cc
   fun:_dl_init
   fun:dl_open_worker
}

{
   basf2 suppression 20
   Memcheck:Leak
   fun:_Znwm
   fun:_ZNK27LinearizedTrackStateFactory5cloneEv
   fun:_ZN20AdaptiveVertexFitterC1ERK17AnnealingScheduleRK24LinearizationPointFinderRK13VertexUpdatorILj5EERK33VertexTrackCompatibilityEstimatorILj5EERK14VertexSmootherILj5EERK18AbstractLTSFactoryILj5EE
   fun:_ZN27AdaptiveVertexReconstructor12setupFittersEddddddb
   fun:_ZN27AdaptiveVertexReconstructorC1Edddbd
   fun:_ZN33ConfigurableAdaptiveReconstructorC1Ev
   fun:_GLOBAL__sub_I_ConfigurableAdaptiveReconstructor.cc
   fun:_dl_init
   fun:dl_open_worker
   fun:_dl_catch_error
   fun:_dl_open
   fun:dlopen_doit
}

{
   basf2 suppression 21
   Memcheck:Leak
   fun:_Znwm
   fun:_ZNK27LinearizedTrackStateFactory5cloneEv
   fun:_ZN20AdaptiveVertexFitterC1ERK17AnnealingScheduleRK24LinearizationPointFinderRK13VertexUpdatorILj5EERK33VertexTrackCompatibilityEstimatorILj5EERK14VertexSmootherILj5EERK18AbstractLTSFactoryILj5EE
   fun:_ZN27AdaptiveVertexReconstructor12setupFittersEddddddb
   fun:_ZN27AdaptiveVertexReconstructorC1Edddbd
   fun:_ZN33ConfigurableAdaptiveReconstructorC1Ev
   fun:_GLOBAL__sub_I_ConfigurableAdaptiveReconstructor.cc
   fun:_dl_init
   fun:dl_open_worker
   fun:_dl_catch_error
   fun:_dl_open
   fun:dlopen_doit
}

{
   basf2 suppression 22
   Memcheck:Leak
   fun:_Znwm
   fun:_ZNK19DummyVertexSmootherILj5EE5cloneEv
   fun:_ZN22SequentialVertexFitterILj5EEC1ERKS0_
   fun:_ZNK18KalmanVertexFitter5cloneEv
   fun:_ZN18AbstractConfFitterC1ERK12VertexFitterILj5EE
   fun:_ZN24ConfigurableKalmanFitterC1Ev
   fun:_ZN17ConfFitterBuilderI24ConfigurableKalmanFitterEC1ERKSsS3_
   fun:_GLOBAL__sub_I_ConfigurableKalmanFitter.cc
   fun:_dl_init
   fun:dl_open_worker
   fun:_dl_catch_error
   fun:_dl_open
}

{
   basf2 suppression 23
   Memcheck:Leak
   fun:_Znwm
   fun:_ZNK27LinearizedTrackStateFactory5cloneEv
   fun:_ZN22SequentialVertexFitterILj5EEC1ERKS0_
   fun:_ZNK18KalmanVertexFitter5cloneEv
   fun:_ZN18AbstractConfFitterC1ERK12VertexFitterILj5EE
   fun:_ZN24ConfigurableKalmanFitterC1Ev
   fun:_ZN17ConfFitterBuilderI24ConfigurableKalmanFitterEC1ERKSsS3_
   fun:_GLOBAL__sub_I_ConfigurableKalmanFitter.cc
   fun:_dl_init
   fun:dl_open_worker
   fun:_dl_catch_error
   fun:_dl_open
}

{
   basf2 suppression 24
   Memcheck:Leak
   fun:_Znwm
   fun:_ZNK19DummyVertexSmootherILj5EE5cloneEv
   fun:_ZN22SequentialVertexFitterILj5EEC1ERKS0_
   fun:_ZNK18KalmanVertexFitter5cloneEv
   fun:_ZN18AbstractConfFitterC1ERKS_
   fun:_ZN24ConfigurableKalmanFitterC1ERKS_
   fun:_ZNK24ConfigurableKalmanFitter5cloneEv
   fun:_ZN23ReconstructorFromFitterC1ERK18AbstractConfFitter
   fun:_ZN19VertexFitterManager14registerFitterERKSsP18AbstractConfFitterS1_
   fun:_GLOBAL__sub_I_ConfigurableKalmanFitter.cc
   fun:_dl_init
   fun:dl_open_worker
}

{
   basf2 suppression 25
   Memcheck:Leak
   fun:_Znwm
   fun:_ZNK19DummyVertexSmootherILj5EE5cloneEv
   fun:_ZN17MultiVertexFitterC1ERK17AnnealingScheduleRK24LinearizationPointFinderRK14VertexSmootherILj5EEf
   fun:_ZN24MultiVertexReconstructorC1ERK19VertexReconstructorRK17AnnealingScheduleRK14VertexSmootherILj5EEf
   fun:_ZN29ConfigurableMultiVertexFitterC1Ev
   fun:_GLOBAL__sub_I_ConfigurableMultiVertexFitter.cc
   fun:_dl_init
   fun:dl_open_worker
   fun:_dl_catch_error
   fun:_dl_open
   fun:dlopen_doit
   fun:_dl_catch_error
}

{
   basf2 suppression 26
   Memcheck:Leak
   fun:_Znwm
   fun:_ZNK27LinearizedTrackStateFactory5cloneEv
   fun:_ZN22SequentialVertexFitterILj5EEC1ERKS0_
   fun:_ZNK18KalmanVertexFitter5cloneEv
   fun:_ZN19TrimmedVertexFinderC1EPK12VertexFitterILj5EEPK13VertexUpdatorILj5EEPK33VertexTrackCompatibilityEstimatorILj5EE
   fun:_ZN31ConfigurableTrimmedVertexFinderC1EPK12VertexFitterILj5EEPK13VertexUpdatorILj5EEPK33VertexTrackCompatibilityEstimatorILj5EE
   fun:_ZN25KalmanTrimmedVertexFinderC1Ev
   fun:_ZN31ConfigurableTrimmedKalmanFinder9configureERKN3edm12ParameterSetE
   fun:_ZN31ConfigurableTrimmedKalmanFinderC1Ev
   fun:_GLOBAL__sub_I_ConfigurableTrimmedKalmanFinder.cc
   fun:_dl_init
   fun:dl_open_worker
}

{
   basf2 suppression 27
   Memcheck:Leak
   fun:_Znwm
   fun:_ZNK21CloseComponentsMergerILj3EE5cloneEv
   fun:_ZNK16GsfVertexUpdator5cloneEv
   fun:_ZN20AdaptiveVertexFitterC1ERKS_
   fun:_ZNK20AdaptiveVertexFitter5cloneEv
   fun:_ZN23AdaptiveGsfVertexFitterC1ERKS_
   fun:_ZNK23AdaptiveGsfVertexFitter5cloneEv
   fun:_ZN18AbstractConfFitterC1ERK12VertexFitterILj5EE
   fun:_ZN37ConfigurableAdaptiveGaussianSumFilterC1Ev
   fun:_GLOBAL__sub_I_ConfigurableAdaptiveGaussianSumFilter.cc
   fun:_dl_init
   fun:dl_open_worker
}

{
   basf2 suppression 28
   Memcheck:Leak
   fun:_Znwm
   fun:_ZNK21CloseComponentsMergerILj3EE5cloneEv
   fun:_ZNK17GsfVertexSmoother5cloneEv
   fun:_ZN20AdaptiveVertexFitterC1ERKS_
   fun:_ZNK20AdaptiveVertexFitter5cloneEv
   fun:_ZN23AdaptiveGsfVertexFitterC1ERKS_
   fun:_ZNK23AdaptiveGsfVertexFitter5cloneEv
   fun:_ZN18AbstractConfFitterC1ERK12VertexFitterILj5EE
   fun:_ZN37ConfigurableAdaptiveGaussianSumFilterC1Ev
   fun:_GLOBAL__sub_I_ConfigurableAdaptiveGaussianSumFilter.cc
   fun:_dl_init
   fun:dl_open_worker
}

{
   basf2 suppression 29
   Memcheck:Leak
   fun:_Znwm
   fun:_ZNK21CloseComponentsMergerILj3EE5cloneEv
   fun:_ZNK16GsfVertexUpdator5cloneEv
   fun:_ZN20AdaptiveVertexFitterC1ERKS_
   fun:_ZNK20AdaptiveVertexFitter5cloneEv
   fun:_ZN23AdaptiveGsfVertexFitterC1ERKS_
   fun:_ZNK23AdaptiveGsfVertexFitter5cloneEv
   fun:_ZN18AbstractConfFitterC1ERKS_
   fun:_ZN37ConfigurableAdaptiveGaussianSumFilterC1ERKS_
   fun:_ZNK37ConfigurableAdaptiveGaussianSumFilter5cloneEv
   fun:_ZN23ReconstructorFromFitterC1ERK18AbstractConfFitter
   fun:_ZN19VertexFitterManager14registerFitterERKSsP18AbstractConfFitterS1_
}

{
   basf2 suppression 30
   Memcheck:Leak
   fun:_Znwm
   fun:_ZNK21CloseComponentsMergerILj3EE5cloneEv
   fun:_ZNK17GsfVertexSmoother5cloneEv
   fun:_ZN20AdaptiveVertexFitterC1ERKS_
   fun:_ZNK20AdaptiveVertexFitter5cloneEv
   fun:_ZN23AdaptiveGsfVertexFitterC1ERKS_
   fun:_ZNK23AdaptiveGsfVertexFitter5cloneEv
   fun:_ZN18AbstractConfFitterC1ERKS_
   fun:_ZN37ConfigurableAdaptiveGaussianSumFilterC1ERKS_
   fun:_ZNK37ConfigurableAdaptiveGaussianSumFilter5cloneEv
   fun:_ZN23ReconstructorFromFitterC1ERK18AbstractConfFitter
   fun:_ZN19VertexFitterManager14registerFitterERKSsP18AbstractConfFitterS1_
}

{
   basf2 suppression 31
   Memcheck:Leak
   fun:_Znwm
   fun:_ZNK19DummyVertexSmootherILj5EE5cloneEv
   fun:_ZN22SequentialVertexFitterILj5EEC1ERKS0_
   fun:_ZN15GsfVertexFitterC1ERKS_
   fun:_ZNK15GsfVertexFitter5cloneEv
   fun:_ZN18AbstractConfFitterC1ERK12VertexFitterILj5EE
   fun:_ZN29ConfigurableGaussianSumFilterC1Ev
   fun:_GLOBAL__sub_I_ConfigurableGaussianSumFilter.cc
   fun:_dl_init
   fun:dl_open_worker
   fun:_dl_catch_error
   fun:_dl_open
}

{
   basf2 suppression 32
   Memcheck:Leak
   fun:_Znwm
   fun:_ZNK19DummyVertexSmootherILj5EE5cloneEv
   fun:_ZN22SequentialVertexFitterILj5EEC1ERKS0_
   fun:_ZN15GsfVertexFitterC1ERKS_
   fun:_ZNK15GsfVertexFitter5cloneEv
   fun:_ZN18AbstractConfFitterC1ERKS_
   fun:_ZN29ConfigurableGaussianSumFilterC1ERKS_
   fun:_ZNK29ConfigurableGaussianSumFilter5cloneEv
   fun:_ZN23ReconstructorFromFitterC1ERK18AbstractConfFitter
   fun:_ZN19VertexFitterManager14registerFitterERKSsP18AbstractConfFitterS1_
   fun:_GLOBAL__sub_I_ConfigurableGaussianSumFilter.cc
   fun:_dl_init
}

{
   basf2 suppression 33
   Memcheck:Leak
   fun:_Znam
   fun:_ZN7TString4InitEii
   fun:_ZN7TStringC1EPKc
   fun:_ZN6TClassC1EPKcsRKSt9type_infoP16TVirtualIsAProxyS1_S1_iib
   fun:_ZNK4ROOT20TQObjectInitBehavior11CreateClassEPKcsRKSt9type_infoP16TVirtualIsAProxyS2_S2_ii
   fun:_ZN4ROOT17TGenericClassInfo8GetClassEv
   fun:_ZN15TMessageHandler5ClassEv
   fun:_ZN8TQObject4EmitEPKc
   fun:_ZN15TMessageHandler6NotifyEv
   fun:_ZN15TMessageHandler13HandleMessageEiPK7TObject
   fun:_ZN5TROOT7MessageEiPK7TObject
   fun:_ZNK7TObject7WarningEPKcS1_z
}

{
   basf2 suppression 34
   Memcheck:Leak
   fun:_Znwm
   fun:_ZNK19KalmanVertexUpdatorILj5EE5cloneEv
   fun:_ZN22SequentialVertexFitterILj5EEC1ERKS0_
   fun:_ZNK18KalmanVertexFitter5cloneEv
   fun:_ZN18AbstractConfFitterC1ERK12VertexFitterILj5EE
   fun:_ZN24ConfigurableKalmanFitterC1Ev
   fun:_ZN17ConfFitterBuilderI24ConfigurableKalmanFitterEC1ERKSsS3_
   fun:_GLOBAL__sub_I_ConfigurableKalmanFitter.cc
   fun:_dl_init
   fun:dl_open_worker
   fun:_dl_catch_error
   fun:_dl_open
}

{
   basf2 suppression 35
   Memcheck:Leak
   fun:_Znwm
   fun:_ZNK24ConfigurableKalmanFitter5cloneEv
   fun:_ZN23ReconstructorFromFitterC1ERK18AbstractConfFitter
   fun:_ZN19VertexFitterManager14registerFitterERKSsP18AbstractConfFitterS1_
   fun:_GLOBAL__sub_I_ConfigurableKalmanFitter.cc
   fun:_dl_init
   fun:dl_open_worker
   fun:_dl_catch_error
   fun:_dl_open
   fun:dlopen_doit
   fun:_dl_catch_error
   fun:_dlerror_run
}

{
   basf2 suppression 36
   Memcheck:Leak
   fun:_Znwm
   fun:_ZNK18KalmanVertexFitter5cloneEv
   fun:_ZN18AbstractConfFitterC1ERKS_
   fun:_ZN24ConfigurableKalmanFitterC1ERKS_
   fun:_ZNK24ConfigurableKalmanFitter5cloneEv
   fun:_ZN23ReconstructorFromFitterC1ERK18AbstractConfFitter
   fun:_ZN19VertexFitterManager14registerFitterERKSsP18AbstractConfFitterS1_
   fun:_GLOBAL__sub_I_ConfigurableKalmanFitter.cc
   fun:_dl_init
   fun:dl_open_worker
   fun:_dl_catch_error
   fun:_dl_open
}

{
   basf2 suppression 37
   Memcheck:Leak
   fun:_Znwm
   fun:_ZNK19KalmanVertexUpdatorILj5EE5cloneEv
   fun:_ZN22SequentialVertexFitterILj5EEC1ERKS0_
   fun:_ZNK18KalmanVertexFitter5cloneEv
   fun:_ZN18AbstractConfFitterC1ERKS_
   fun:_ZN24ConfigurableKalmanFitterC1ERKS_
   fun:_ZNK24ConfigurableKalmanFitter5cloneEv
   fun:_ZN23ReconstructorFromFitterC1ERK18AbstractConfFitter
   fun:_ZN19VertexFitterManager14registerFitterERKSsP18AbstractConfFitterS1_
   fun:_GLOBAL__sub_I_ConfigurableKalmanFitter.cc
   fun:_dl_init
   fun:dl_open_worker
}

{
   basf2 suppression 38
   Memcheck:Leak
   fun:_Znwm
   fun:_ZNK19KalmanVertexUpdatorILj5EE5cloneEv
   fun:_ZN19TrimmedVertexFinderC1EPK12VertexFitterILj5EEPK13VertexUpdatorILj5EEPK33VertexTrackCompatibilityEstimatorILj5EE
   fun:_ZN31ConfigurableTrimmedVertexFinderC1EPK12VertexFitterILj5EEPK13VertexUpdatorILj5EEPK33VertexTrackCompatibilityEstimatorILj5EE
   fun:_ZN25KalmanTrimmedVertexFinderC1Ev
   fun:_ZN31ConfigurableTrimmedKalmanFinder9configureERKN3edm12ParameterSetE
   fun:_ZN31ConfigurableTrimmedKalmanFinderC1Ev
   fun:_GLOBAL__sub_I_ConfigurableTrimmedKalmanFinder.cc
   fun:_dl_init
   fun:dl_open_worker
   fun:_dl_catch_error
   fun:_dl_open
}

{
   basf2 suppression 39
   Memcheck:Leak
   fun:_Znwm
   fun:_ZNK23AdaptiveGsfVertexFitter5cloneEv
   fun:_ZN18AbstractConfFitterC1ERK12VertexFitterILj5EE
   fun:_ZN37ConfigurableAdaptiveGaussianSumFilterC1Ev
   fun:_GLOBAL__sub_I_ConfigurableAdaptiveGaussianSumFilter.cc
   fun:_dl_init
   fun:dl_open_worker
   fun:_dl_catch_error
   fun:_dl_open
   fun:dlopen_doit
   fun:_dl_catch_error
   fun:_dlerror_run
}

{
   basf2 suppression 40
   Memcheck:Leak
   fun:_Znwm
   fun:_ZNK23AdaptiveGsfVertexFitter5cloneEv
   fun:_ZN18AbstractConfFitterC1ERKS_
   fun:_ZN37ConfigurableAdaptiveGaussianSumFilterC1ERKS_
   fun:_ZNK37ConfigurableAdaptiveGaussianSumFilter5cloneEv
   fun:_ZN23ReconstructorFromFitterC1ERK18AbstractConfFitter
   fun:_ZN19VertexFitterManager14registerFitterERKSsP18AbstractConfFitterS1_
   fun:_GLOBAL__sub_I_ConfigurableAdaptiveGaussianSumFilter.cc
   fun:_dl_init
   fun:dl_open_worker
   fun:_dl_catch_error
   fun:_dl_open
}

{
   basf2 suppression 41
   Memcheck:Leak
   fun:_Znwm
   fun:_ZNK16GsfVertexUpdator5cloneEv
   fun:_ZN22SequentialVertexFitterILj5EEC1ERKS0_
   fun:_ZN15GsfVertexFitterC1ERKS_
   fun:_ZNK15GsfVertexFitter5cloneEv
   fun:_ZN18AbstractConfFitterC1ERK12VertexFitterILj5EE
   fun:_ZN29ConfigurableGaussianSumFilterC1Ev
   fun:_GLOBAL__sub_I_ConfigurableGaussianSumFilter.cc
   fun:_dl_init
   fun:dl_open_worker
   fun:_dl_catch_error
   fun:_dl_open
}

{
   basf2 suppression 42
   Memcheck:Leak
   fun:_Znwm
   fun:_ZNK29ConfigurableGaussianSumFilter5cloneEv
   fun:_ZN23ReconstructorFromFitterC1ERK18AbstractConfFitter
   fun:_ZN19VertexFitterManager14registerFitterERKSsP18AbstractConfFitterS1_
   fun:_GLOBAL__sub_I_ConfigurableGaussianSumFilter.cc
   fun:_dl_init
   fun:dl_open_worker
   fun:_dl_catch_error
   fun:_dl_open
   fun:dlopen_doit
   fun:_dl_catch_error
   fun:_dlerror_run
}

{
   basf2 suppression 43
   Memcheck:Leak
   fun:_Znwm
   fun:_ZNK16GsfVertexUpdator5cloneEv
   fun:_ZN22SequentialVertexFitterILj5EEC1ERKS0_
   fun:_ZN15GsfVertexFitterC1ERKS_
   fun:_ZNK15GsfVertexFitter5cloneEv
   fun:_ZN18AbstractConfFitterC1ERKS_
   fun:_ZN29ConfigurableGaussianSumFilterC1ERKS_
   fun:_ZNK29ConfigurableGaussianSumFilter5cloneEv
   fun:_ZN23ReconstructorFromFitterC1ERK18AbstractConfFitter
   fun:_ZN19VertexFitterManager14registerFitterERKSsP18AbstractConfFitterS1_
   fun:_GLOBAL__sub_I_ConfigurableGaussianSumFilter.cc
   fun:_dl_init
}

{
   basf2 suppression 44
   Memcheck:Leak
   fun:_Znwm
   fun:_ZN20AdaptiveVertexFitterC1ERKS_
   fun:_ZNK20AdaptiveVertexFitter5cloneEv
   fun:_ZN18AbstractConfFitterC1ERK12VertexFitterILj5EE
   fun:_ZN26ConfigurableAdaptiveFitterC1Ev
   fun:_GLOBAL__sub_I_ConfigurableAdaptiveFitter.cc
   fun:_dl_init
   fun:dl_open_worker
   fun:_dl_catch_error
   fun:_dl_open
   fun:dlopen_doit
   fun:_dl_catch_error
}

{
   basf2 suppression 45
   Memcheck:Leak
   fun:_Znwm
   fun:_ZNK26ConfigurableAdaptiveFitter5cloneEv
   fun:_ZN23ReconstructorFromFitterC1ERK18AbstractConfFitter
   fun:_ZN19VertexFitterManager14registerFitterERKSsP18AbstractConfFitterS1_
   fun:_GLOBAL__sub_I_ConfigurableAdaptiveFitter.cc
   fun:_dl_init
   fun:dl_open_worker
   fun:_dl_catch_error
   fun:_dl_open
   fun:dlopen_doit
   fun:_dl_catch_error
   fun:_dlerror_run
}

{
   basf2 suppression 46
   Memcheck:Leak
   fun:_Znwm
   fun:_ZN20AdaptiveVertexFitterC1ERKS_
   fun:_ZNK20AdaptiveVertexFitter5cloneEv
   fun:_ZN18AbstractConfFitterC1ERKS_
   fun:_ZN26ConfigurableAdaptiveFitterC1ERKS_
   fun:_ZNK26ConfigurableAdaptiveFitter5cloneEv
   fun:_ZN23ReconstructorFromFitterC1ERK18AbstractConfFitter
   fun:_ZN19VertexFitterManager14registerFitterERKSsP18AbstractConfFitterS1_
   fun:_GLOBAL__sub_I_ConfigurableAdaptiveFitter.cc
   fun:_dl_init
   fun:dl_open_worker
   fun:_dl_catch_error
}

{
   basf2 suppression 47
   Memcheck:Leak
   fun:_Znwm
   fun:_ZN20AdaptiveVertexFitterC1ERK17AnnealingScheduleRK24LinearizationPointFinderRK13VertexUpdatorILj5EERK33VertexTrackCompatibilityEstimatorILj5EERK14VertexSmootherILj5EERK18AbstractLTSFactoryILj5EE
   fun:_ZN27AdaptiveVertexReconstructor12setupFittersEddddddb
   fun:_ZN27AdaptiveVertexReconstructorC1Edddbd
   fun:_ZN33ConfigurableAdaptiveReconstructorC1Ev
   fun:_GLOBAL__sub_I_ConfigurableAdaptiveReconstructor.cc
   fun:_dl_init
   fun:dl_open_worker
   fun:_dl_catch_error
   fun:_dl_open
   fun:dlopen_doit
   fun:_dl_catch_error
}

{
   basf2 suppression 48
   Memcheck:Leak
   fun:_Znwm
   fun:_ZN20AdaptiveVertexFitterC1ERK17AnnealingScheduleRK24LinearizationPointFinderRK13VertexUpdatorILj5EERK33VertexTrackCompatibilityEstimatorILj5EERK14VertexSmootherILj5EERK18AbstractLTSFactoryILj5EE
   fun:_ZN27AdaptiveVertexReconstructor12setupFittersEddddddb
   fun:_ZN27AdaptiveVertexReconstructorC1Edddbd
   fun:_ZN33ConfigurableAdaptiveReconstructorC1Ev
   fun:_GLOBAL__sub_I_ConfigurableAdaptiveReconstructor.cc
   fun:_dl_init
   fun:dl_open_worker
   fun:_dl_catch_error
   fun:_dl_open
   fun:dlopen_doit
   fun:_dl_catch_error
}

{
   basf2 suppression 49
   Memcheck:Leak
   fun:_Znwm
   fun:_ZNK18KalmanVertexFitter5cloneEv
   fun:_ZN18AbstractConfFitterC1ERK12VertexFitterILj5EE
   fun:_ZN24ConfigurableKalmanFitterC1Ev
   fun:_ZN17ConfFitterBuilderI24ConfigurableKalmanFitterEC1ERKSsS3_
   fun:_GLOBAL__sub_I_ConfigurableKalmanFitter.cc
   fun:_dl_init
   fun:dl_open_worker
   fun:_dl_catch_error
   fun:_dl_open
   fun:dlopen_doit
   fun:_dl_catch_error
}

{
   basf2 suppression 50
   Memcheck:Leak
   fun:_Znwm
   fun:_ZNK18KalmanVertexFitter5cloneEv
   fun:_ZN18AbstractConfFitterC1ERK12VertexFitterILj5EE
   fun:_ZN24ConfigurableKalmanFitterC1Ev
   fun:_ZN17ConfFitterBuilderI24ConfigurableKalmanFitterEC1ERKSsS3_
   fun:_GLOBAL__sub_I_ConfigurableKalmanFitter.cc
   fun:_dl_init
   fun:dl_open_worker
   fun:_dl_catch_error
   fun:_dl_open
   fun:dlopen_doit
   fun:_dl_catch_error
}

{
   basf2 suppression 51
   Memcheck:Leak
   fun:_Znwm
   fun:_ZNK19KalmanVertexUpdatorILj5EE5cloneEv
   fun:_ZN22SequentialVertexFitterILj5EEC1ERKS0_
   fun:_ZNK18KalmanVertexFitter5cloneEv
   fun:_ZN18AbstractConfFitterC1ERK12VertexFitterILj5EE
   fun:_ZN24ConfigurableKalmanFitterC1Ev
   fun:_ZN17ConfFitterBuilderI24ConfigurableKalmanFitterEC1ERKSsS3_
   fun:_GLOBAL__sub_I_ConfigurableKalmanFitter.cc
   fun:_dl_init
   fun:dl_open_worker
   fun:_dl_catch_error
   fun:_dl_open
}

{
   basf2 suppression 52
   Memcheck:Leak
   fun:_Znwm
   fun:_ZNK24ConfigurableKalmanFitter5cloneEv
   fun:_ZN23ReconstructorFromFitterC1ERK18AbstractConfFitter
   fun:_ZN19VertexFitterManager14registerFitterERKSsP18AbstractConfFitterS1_
   fun:_GLOBAL__sub_I_ConfigurableKalmanFitter.cc
   fun:_dl_init
   fun:dl_open_worker
   fun:_dl_catch_error
   fun:_dl_open
   fun:dlopen_doit
   fun:_dl_catch_error
   fun:_dlerror_run
}

{
   basf2 suppression 53
   Memcheck:Leak
   fun:_Znwm
   fun:_ZNK18MultiVertexBSeeder5cloneEv
   fun:_ZN24MultiVertexReconstructorC1ERK19VertexReconstructorRK17AnnealingScheduleRK14VertexSmootherILj5EEf
   fun:_ZN29ConfigurableMultiVertexFitterC1Ev
   fun:_GLOBAL__sub_I_ConfigurableMultiVertexFitter.cc
   fun:_dl_init
   fun:dl_open_worker
   fun:_dl_catch_error
   fun:_dl_open
   fun:dlopen_doit
   fun:_dl_catch_error
   fun:_dlerror_run
}

{
   basf2 suppression 54
   Memcheck:Leak
   fun:_Znwm
   fun:_ZN31ConfigurableTrimmedKalmanFinder9configureERKN3edm12ParameterSetE
   fun:_ZN31ConfigurableTrimmedKalmanFinderC1Ev
   fun:_GLOBAL__sub_I_ConfigurableTrimmedKalmanFinder.cc
   fun:_dl_init
   fun:dl_open_worker
   fun:_dl_catch_error
   fun:_dl_open
   fun:dlopen_doit
   fun:_dl_catch_error
   fun:_dlerror_run
   fun:dlopen@@GLIBC_2.2.5
}

{
   basf2 suppression 55
   Memcheck:Leak
   fun:_Znwm
   fun:_ZNK18KalmanVertexFitter5cloneEv
   fun:_ZN19TrimmedVertexFinderC1EPK12VertexFitterILj5EEPK13VertexUpdatorILj5EEPK33VertexTrackCompatibilityEstimatorILj5EE
   fun:_ZN31ConfigurableTrimmedVertexFinderC1EPK12VertexFitterILj5EEPK13VertexUpdatorILj5EEPK33VertexTrackCompatibilityEstimatorILj5EE
   fun:_ZN25KalmanTrimmedVertexFinderC1Ev
   fun:_ZN31ConfigurableTrimmedKalmanFinder9configureERKN3edm12ParameterSetE
   fun:_ZN31ConfigurableTrimmedKalmanFinderC1Ev
   fun:_GLOBAL__sub_I_ConfigurableTrimmedKalmanFinder.cc
   fun:_dl_init
   fun:dl_open_worker
   fun:_dl_catch_error
   fun:_dl_open
}

{
   basf2 suppression 56
   Memcheck:Leak
   fun:_Znwm
   fun:_ZNK19KalmanVertexUpdatorILj5EE5cloneEv
   fun:_ZN22SequentialVertexFitterILj5EEC1ERKS0_
   fun:_ZNK18KalmanVertexFitter5cloneEv
   fun:_ZN19TrimmedVertexFinderC1EPK12VertexFitterILj5EEPK13VertexUpdatorILj5EEPK33VertexTrackCompatibilityEstimatorILj5EE
   fun:_ZN31ConfigurableTrimmedVertexFinderC1EPK12VertexFitterILj5EEPK13VertexUpdatorILj5EEPK33VertexTrackCompatibilityEstimatorILj5EE
   fun:_ZN25KalmanTrimmedVertexFinderC1Ev
   fun:_ZN31ConfigurableTrimmedKalmanFinder9configureERKN3edm12ParameterSetE
   fun:_ZN31ConfigurableTrimmedKalmanFinderC1Ev
   fun:_GLOBAL__sub_I_ConfigurableTrimmedKalmanFinder.cc
   fun:_dl_init
   fun:dl_open_worker
}

{
   basf2 suppression 57
   Memcheck:Leak
   fun:_Znwm
   fun:_ZNK16GsfVertexUpdator5cloneEv
   fun:_ZN20AdaptiveVertexFitterC1ERKS_
   fun:_ZNK20AdaptiveVertexFitter5cloneEv
   fun:_ZN23AdaptiveGsfVertexFitterC1ERKS_
   fun:_ZNK23AdaptiveGsfVertexFitter5cloneEv
   fun:_ZN18AbstractConfFitterC1ERK12VertexFitterILj5EE
   fun:_ZN37ConfigurableAdaptiveGaussianSumFilterC1Ev
   fun:_GLOBAL__sub_I_ConfigurableAdaptiveGaussianSumFilter.cc
   fun:_dl_init
   fun:dl_open_worker
   fun:_dl_catch_error
}

{
   basf2 suppression 58
   Memcheck:Leak
   fun:_Znwm
   fun:_ZNK17GsfVertexSmoother5cloneEv
   fun:_ZN20AdaptiveVertexFitterC1ERKS_
   fun:_ZNK20AdaptiveVertexFitter5cloneEv
   fun:_ZN23AdaptiveGsfVertexFitterC1ERKS_
   fun:_ZNK23AdaptiveGsfVertexFitter5cloneEv
   fun:_ZN18AbstractConfFitterC1ERK12VertexFitterILj5EE
   fun:_ZN37ConfigurableAdaptiveGaussianSumFilterC1Ev
   fun:_GLOBAL__sub_I_ConfigurableAdaptiveGaussianSumFilter.cc
   fun:_dl_init
   fun:dl_open_worker
   fun:_dl_catch_error
}

{
   basf2 suppression 59
   Memcheck:Leak
   fun:_Znwm
   fun:_ZNK37ConfigurableAdaptiveGaussianSumFilter5cloneEv
   fun:_ZN23ReconstructorFromFitterC1ERK18AbstractConfFitter
   fun:_ZN19VertexFitterManager14registerFitterERKSsP18AbstractConfFitterS1_
   fun:_GLOBAL__sub_I_ConfigurableAdaptiveGaussianSumFilter.cc
   fun:_dl_init
   fun:dl_open_worker
   fun:_dl_catch_error
   fun:_dl_open
   fun:dlopen_doit
   fun:_dl_catch_error
   fun:_dlerror_run
}

{
   basf2 suppression 60
   Memcheck:Leak
   fun:_Znwm
   fun:_ZNK16GsfVertexUpdator5cloneEv
   fun:_ZN20AdaptiveVertexFitterC1ERKS_
   fun:_ZNK20AdaptiveVertexFitter5cloneEv
   fun:_ZN23AdaptiveGsfVertexFitterC1ERKS_
   fun:_ZNK23AdaptiveGsfVertexFitter5cloneEv
   fun:_ZN18AbstractConfFitterC1ERKS_
   fun:_ZN37ConfigurableAdaptiveGaussianSumFilterC1ERKS_
   fun:_ZNK37ConfigurableAdaptiveGaussianSumFilter5cloneEv
   fun:_ZN23ReconstructorFromFitterC1ERK18AbstractConfFitter
   fun:_ZN19VertexFitterManager14registerFitterERKSsP18AbstractConfFitterS1_
   fun:_GLOBAL__sub_I_ConfigurableAdaptiveGaussianSumFilter.cc
}

{
   basf2 suppression 61
   Memcheck:Leak
   fun:_Znwm
   fun:_ZNK17GsfVertexSmoother5cloneEv
   fun:_ZN20AdaptiveVertexFitterC1ERKS_
   fun:_ZNK20AdaptiveVertexFitter5cloneEv
   fun:_ZN23AdaptiveGsfVertexFitterC1ERKS_
   fun:_ZNK23AdaptiveGsfVertexFitter5cloneEv
   fun:_ZN18AbstractConfFitterC1ERKS_
   fun:_ZN37ConfigurableAdaptiveGaussianSumFilterC1ERKS_
   fun:_ZNK37ConfigurableAdaptiveGaussianSumFilter5cloneEv
   fun:_ZN23ReconstructorFromFitterC1ERK18AbstractConfFitter
   fun:_ZN19VertexFitterManager14registerFitterERKSsP18AbstractConfFitterS1_
   fun:_GLOBAL__sub_I_ConfigurableAdaptiveGaussianSumFilter.cc
}

{
   basf2 suppression 62
   Memcheck:Leak
   fun:_Znwm
   fun:_ZNK15GsfVertexFitter5cloneEv
   fun:_ZN18AbstractConfFitterC1ERK12VertexFitterILj5EE
   fun:_ZN29ConfigurableGaussianSumFilterC1Ev
   fun:_GLOBAL__sub_I_ConfigurableGaussianSumFilter.cc
   fun:_dl_init
   fun:dl_open_worker
   fun:_dl_catch_error
   fun:_dl_open
   fun:dlopen_doit
   fun:_dl_catch_error
   fun:_dlerror_run
}

{
   basf2 suppression 63
   Memcheck:Leak
   fun:_Znwm
   fun:_ZNK15GsfVertexFitter5cloneEv
   fun:_ZN18AbstractConfFitterC1ERKS_
   fun:_ZN29ConfigurableGaussianSumFilterC1ERKS_
   fun:_ZNK29ConfigurableGaussianSumFilter5cloneEv
   fun:_ZN23ReconstructorFromFitterC1ERK18AbstractConfFitter
   fun:_ZN19VertexFitterManager14registerFitterERKSsP18AbstractConfFitterS1_
   fun:_GLOBAL__sub_I_ConfigurableGaussianSumFilter.cc
   fun:_dl_init
   fun:dl_open_worker
   fun:_dl_catch_error
   fun:_dl_open
}

{
   basf2 suppression 64
   Memcheck:Leak
   fun:malloc
   fun:PyFloat_FromDouble
   fun:r_object
   fun:r_object
   fun:r_object
   fun:marshal_loads
   fun:PyCFunction_Call
   fun:PyEval_EvalFrameEx
   fun:_PyEval_EvalCodeWithName
   fun:PyEval_EvalFrameEx
   fun:PyEval_EvalFrameEx
   fun:PyEval_EvalFrameEx
}

{
   basf2 suppression 65
   Memcheck:Leak
   fun:_Znwm
   fun:_ZNK16FsmwModeFinder3d5cloneEv
   fun:_ZN39CrossingPtBasedLinearizationPointFinderC1ERKS_
   fun:_ZNK28FsmwLinearizationPointFinder5cloneEv
   fun:_ZN20AdaptiveVertexFitterC1ERKS_
   fun:_ZNK20AdaptiveVertexFitter5cloneEv
   fun:_ZN18AbstractConfFitterC1ERK12VertexFitterILj5EE
   fun:_ZN26ConfigurableAdaptiveFitterC1Ev
   fun:_GLOBAL__sub_I_ConfigurableAdaptiveFitter.cc
   fun:_dl_init
   fun:dl_open_worker
   fun:_dl_catch_error
}

{
   basf2 suppression 66
   Memcheck:Leak
   fun:_Znwm
   fun:_ZNK16FsmwModeFinder3d5cloneEv
   fun:_ZN39CrossingPtBasedLinearizationPointFinderC1ERKS_
   fun:_ZNK28FsmwLinearizationPointFinder5cloneEv
   fun:_ZN20AdaptiveVertexFitterC1ERKS_
   fun:_ZNK20AdaptiveVertexFitter5cloneEv
   fun:_ZN18AbstractConfFitterC1ERKS_
   fun:_ZN26ConfigurableAdaptiveFitterC1ERKS_
   fun:_ZNK26ConfigurableAdaptiveFitter5cloneEv
   fun:_ZN23ReconstructorFromFitterC1ERK18AbstractConfFitter
   fun:_ZN19VertexFitterManager14registerFitterERKSsP18AbstractConfFitterS1_
   fun:_GLOBAL__sub_I_ConfigurableAdaptiveFitter.cc
}

{
   basf2 suppression 67
   Memcheck:Leak
   fun:_Znwm
   fun:_ZNK16FsmwModeFinder3d5cloneEv
   fun:_ZN39CrossingPtBasedLinearizationPointFinderC1ERKS_
   fun:_ZNK28FsmwLinearizationPointFinder5cloneEv
   fun:_ZN20AdaptiveVertexFitterC1ERK17AnnealingScheduleRK24LinearizationPointFinderRK13VertexUpdatorILj5EERK33VertexTrackCompatibilityEstimatorILj5EERK14VertexSmootherILj5EERK18AbstractLTSFactoryILj5EE
   fun:_ZN27AdaptiveVertexReconstructor12setupFittersEddddddb
   fun:_ZN27AdaptiveVertexReconstructorC1Edddbd
   fun:_ZN33ConfigurableAdaptiveReconstructorC1Ev
   fun:_GLOBAL__sub_I_ConfigurableAdaptiveReconstructor.cc
   fun:_dl_init
   fun:dl_open_worker
   fun:_dl_catch_error
}

{
   basf2 suppression 68
   Memcheck:Leak
   fun:_Znwm
   fun:_ZNK16FsmwModeFinder3d5cloneEv
   fun:_ZN39CrossingPtBasedLinearizationPointFinderC1ERKS_
   fun:_ZNK28FsmwLinearizationPointFinder5cloneEv
   fun:_ZN20AdaptiveVertexFitterC1ERK17AnnealingScheduleRK24LinearizationPointFinderRK13VertexUpdatorILj5EERK33VertexTrackCompatibilityEstimatorILj5EERK14VertexSmootherILj5EERK18AbstractLTSFactoryILj5EE
   fun:_ZN27AdaptiveVertexReconstructor12setupFittersEddddddb
   fun:_ZN27AdaptiveVertexReconstructorC1Edddbd
   fun:_ZN33ConfigurableAdaptiveReconstructorC1Ev
   fun:_GLOBAL__sub_I_ConfigurableAdaptiveReconstructor.cc
   fun:_dl_init
   fun:dl_open_worker
   fun:_dl_catch_error
}

{
   basf2 suppression 69
   Memcheck:Leak
   fun:_Znwm
   fun:_ZNK16FsmwModeFinder3d5cloneEv
   fun:_ZN39CrossingPtBasedLinearizationPointFinderC1ERKS_
   fun:_ZNK28FsmwLinearizationPointFinder5cloneEv
   fun:_ZN22SequentialVertexFitterILj5EEC1ERKS0_
   fun:_ZNK18KalmanVertexFitter5cloneEv
   fun:_ZN18AbstractConfFitterC1ERK12VertexFitterILj5EE
   fun:_ZN24ConfigurableKalmanFitterC1Ev
   fun:_ZN17ConfFitterBuilderI24ConfigurableKalmanFitterEC1ERKSsS3_
   fun:_GLOBAL__sub_I_ConfigurableKalmanFitter.cc
   fun:_dl_init
   fun:dl_open_worker
}

{
   basf2 suppression 70
   Memcheck:Leak
   fun:_Znwm
   fun:_ZNK16FsmwModeFinder3d5cloneEv
   fun:_ZN39CrossingPtBasedLinearizationPointFinderC1ERKS_
   fun:_ZNK28FsmwLinearizationPointFinder5cloneEv
   fun:_ZN17MultiVertexFitterC1ERK17AnnealingScheduleRK24LinearizationPointFinderRK14VertexSmootherILj5EEf
   fun:_ZN24MultiVertexReconstructorC1ERK19VertexReconstructorRK17AnnealingScheduleRK14VertexSmootherILj5EEf
   fun:_ZN29ConfigurableMultiVertexFitterC1Ev
   fun:_GLOBAL__sub_I_ConfigurableMultiVertexFitter.cc
   fun:_dl_init
   fun:dl_open_worker
   fun:_dl_catch_error
   fun:_dl_open
}

{
   basf2 suppression 71
   Memcheck:Leak
   fun:_Znwm
   fun:_ZNK16FsmwModeFinder3d5cloneEv
   fun:_ZN39CrossingPtBasedLinearizationPointFinderC1ERKS_
   fun:_ZNK28FsmwLinearizationPointFinder5cloneEv
   fun:_ZN22SequentialVertexFitterILj5EEC1ERKS0_
   fun:_ZNK18KalmanVertexFitter5cloneEv
   fun:_ZN19TrimmedVertexFinderC1EPK12VertexFitterILj5EEPK13VertexUpdatorILj5EEPK33VertexTrackCompatibilityEstimatorILj5EE
   fun:_ZN31ConfigurableTrimmedVertexFinderC1EPK12VertexFitterILj5EEPK13VertexUpdatorILj5EEPK33VertexTrackCompatibilityEstimatorILj5EE
   fun:_ZN25KalmanTrimmedVertexFinderC1Ev
   fun:_ZN31ConfigurableTrimmedKalmanFinder9configureERKN3edm12ParameterSetE
   fun:_ZN31ConfigurableTrimmedKalmanFinderC1Ev
   fun:_GLOBAL__sub_I_ConfigurableTrimmedKalmanFinder.cc
}

{
   basf2 suppression 72
   Memcheck:Leak
   fun:_Znwm
   fun:_ZNK21CloseComponentsMergerILj3EE5cloneEv
   fun:_ZNK16GsfVertexUpdator5cloneEv
   fun:_ZN20AdaptiveVertexFitterC1ERKS_
   fun:_ZNK20AdaptiveVertexFitter5cloneEv
   fun:_ZN23AdaptiveGsfVertexFitterC1ERKS_
   fun:_ZNK23AdaptiveGsfVertexFitter5cloneEv
   fun:_ZN18AbstractConfFitterC1ERK12VertexFitterILj5EE
   fun:_ZN37ConfigurableAdaptiveGaussianSumFilterC1Ev
   fun:_GLOBAL__sub_I_ConfigurableAdaptiveGaussianSumFilter.cc
   fun:_dl_init
   fun:dl_open_worker
}

{
   basf2 suppression 73
   Memcheck:Leak
   fun:_Znwm
   fun:_ZNK21CloseComponentsMergerILj3EE5cloneEv
   fun:_ZNK17GsfVertexSmoother5cloneEv
   fun:_ZN20AdaptiveVertexFitterC1ERKS_
   fun:_ZNK20AdaptiveVertexFitter5cloneEv
   fun:_ZN23AdaptiveGsfVertexFitterC1ERKS_
   fun:_ZNK23AdaptiveGsfVertexFitter5cloneEv
   fun:_ZN18AbstractConfFitterC1ERK12VertexFitterILj5EE
   fun:_ZN37ConfigurableAdaptiveGaussianSumFilterC1Ev
   fun:_GLOBAL__sub_I_ConfigurableAdaptiveGaussianSumFilter.cc
   fun:_dl_init
   fun:dl_open_worker
}

{
   basf2 suppression 74
   Memcheck:Leak
   fun:_Znwm
   fun:_ZNK21CloseComponentsMergerILj3EE5cloneEv
   fun:_ZNK16GsfVertexUpdator5cloneEv
   fun:_ZN20AdaptiveVertexFitterC1ERKS_
   fun:_ZNK20AdaptiveVertexFitter5cloneEv
   fun:_ZN23AdaptiveGsfVertexFitterC1ERKS_
   fun:_ZNK23AdaptiveGsfVertexFitter5cloneEv
   fun:_ZN18AbstractConfFitterC1ERKS_
   fun:_ZN37ConfigurableAdaptiveGaussianSumFilterC1ERKS_
   fun:_ZNK37ConfigurableAdaptiveGaussianSumFilter5cloneEv
   fun:_ZN23ReconstructorFromFitterC1ERK18AbstractConfFitter
   fun:_ZN19VertexFitterManager14registerFitterERKSsP18AbstractConfFitterS1_
}

{
   basf2 suppression 75
   Memcheck:Leak
   fun:_Znwm
   fun:_ZNK21CloseComponentsMergerILj3EE5cloneEv
   fun:_ZNK17GsfVertexSmoother5cloneEv
   fun:_ZN20AdaptiveVertexFitterC1ERKS_
   fun:_ZNK20AdaptiveVertexFitter5cloneEv
   fun:_ZN23AdaptiveGsfVertexFitterC1ERKS_
   fun:_ZNK23AdaptiveGsfVertexFitter5cloneEv
   fun:_ZN18AbstractConfFitterC1ERKS_
   fun:_ZN37ConfigurableAdaptiveGaussianSumFilterC1ERKS_
   fun:_ZNK37ConfigurableAdaptiveGaussianSumFilter5cloneEv
   fun:_ZN23ReconstructorFromFitterC1ERK18AbstractConfFitter
   fun:_ZN19VertexFitterManager14registerFitterERKSsP18AbstractConfFitterS1_
}

{
   basf2 suppression 76
   Memcheck:Leak
   fun:_Znwm
   fun:_ZNK16FsmwModeFinder3d5cloneEv
   fun:_ZN39CrossingPtBasedLinearizationPointFinderC1ERKS_
   fun:_ZNK28FsmwLinearizationPointFinder5cloneEv
   fun:_ZN22SequentialVertexFitterILj5EEC1ERKS0_
   fun:_ZN15GsfVertexFitterC1ERKS_
   fun:_ZNK15GsfVertexFitter5cloneEv
   fun:_ZN18AbstractConfFitterC1ERK12VertexFitterILj5EE
   fun:_ZN29ConfigurableGaussianSumFilterC1Ev
   fun:_GLOBAL__sub_I_ConfigurableGaussianSumFilter.cc
   fun:_dl_init
   fun:dl_open_worker
}

{
   basf2 suppression 77
   Memcheck:Leak
   fun:_Znwm
   fun:_ZNK16FsmwModeFinder3d5cloneEv
   fun:_ZN39CrossingPtBasedLinearizationPointFinderC1ERKS_
   fun:_ZNK28FsmwLinearizationPointFinder5cloneEv
   fun:_ZN22SequentialVertexFitterILj5EEC1ERKS0_
   fun:_ZN15GsfVertexFitterC1ERKS_
   fun:_ZNK15GsfVertexFitter5cloneEv
   fun:_ZN18AbstractConfFitterC1ERKS_
   fun:_ZN29ConfigurableGaussianSumFilterC1ERKS_
   fun:_ZNK29ConfigurableGaussianSumFilter5cloneEv
   fun:_ZN23ReconstructorFromFitterC1ERK18AbstractConfFitter
   fun:_ZN19VertexFitterManager14registerFitterERKSsP18AbstractConfFitterS1_
}

{
   basf2 suppression 78
   Memcheck:Leak
   fun:_Znwm
   fun:_ZNK16FsmwModeFinder3d5cloneEv
   fun:_ZN39CrossingPtBasedLinearizationPointFinderC1ERKS_
   fun:_ZNK28FsmwLinearizationPointFinder5cloneEv
   fun:_ZN22SequentialVertexFitterILj5EEC1ERKS0_
   fun:_ZNK18KalmanVertexFitter5cloneEv
   fun:_ZN18AbstractConfFitterC1ERK12VertexFitterILj5EE
   fun:_ZN24ConfigurableKalmanFitterC1Ev
   fun:_ZN17ConfFitterBuilderI24ConfigurableKalmanFitterEC1ERKSsS3_
   fun:_GLOBAL__sub_I_ConfigurableKalmanFitter.cc
   fun:_dl_init
   fun:dl_open_worker
}

{
   basf2 suppression 79
   Memcheck:Leak
   fun:_Znwm
   fun:_ZNK16FsmwModeFinder3d5cloneEv
   fun:_ZN39CrossingPtBasedLinearizationPointFinderC1ERKS_
   fun:_ZNK28FsmwLinearizationPointFinder5cloneEv
   fun:_ZN22SequentialVertexFitterILj5EEC1ERKS0_
   fun:_ZNK18KalmanVertexFitter5cloneEv
   fun:_ZN18AbstractConfFitterC1ERKS_
   fun:_ZN24ConfigurableKalmanFitterC1ERKS_
   fun:_ZNK24ConfigurableKalmanFitter5cloneEv
   fun:_ZN23ReconstructorFromFitterC1ERK18AbstractConfFitter
   fun:_ZN19VertexFitterManager14registerFitterERKSsP18AbstractConfFitterS1_
   fun:_GLOBAL__sub_I_ConfigurableKalmanFitter.cc
}

{
   basf2 suppression 80
   Memcheck:Leak
   fun:_Znwm
   fun:_ZNK16FsmwModeFinder3d5cloneEv
   fun:_ZN39CrossingPtBasedLinearizationPointFinderC1ERKS_
   fun:_ZNK28FsmwLinearizationPointFinder5cloneEv
   fun:_ZN20AdaptiveVertexFitterC1ERKS_
   fun:_ZNK20AdaptiveVertexFitter5cloneEv
   fun:_ZN23AdaptiveGsfVertexFitterC1ERKS_
   fun:_ZNK23AdaptiveGsfVertexFitter5cloneEv
   fun:_ZN18AbstractConfFitterC1ERK12VertexFitterILj5EE
   fun:_ZN37ConfigurableAdaptiveGaussianSumFilterC1Ev
   fun:_GLOBAL__sub_I_ConfigurableAdaptiveGaussianSumFilter.cc
   fun:_dl_init
}

{
   basf2 suppression 81
   Memcheck:Leak
   fun:_Znwm
   fun:_ZNK16FsmwModeFinder3d5cloneEv
   fun:_ZN39CrossingPtBasedLinearizationPointFinderC1ERKS_
   fun:_ZNK28FsmwLinearizationPointFinder5cloneEv
   fun:_ZN20AdaptiveVertexFitterC1ERKS_
   fun:_ZNK20AdaptiveVertexFitter5cloneEv
   fun:_ZN23AdaptiveGsfVertexFitterC1ERKS_
   fun:_ZNK23AdaptiveGsfVertexFitter5cloneEv
   fun:_ZN18AbstractConfFitterC1ERKS_
   fun:_ZN37ConfigurableAdaptiveGaussianSumFilterC1ERKS_
   fun:_ZNK37ConfigurableAdaptiveGaussianSumFilter5cloneEv
   fun:_ZN23ReconstructorFromFitterC1ERK18AbstractConfFitter
}

{
   basf2 suppression 82
   Memcheck:Leak
   fun:_Znwm
   fun:_ZNK21CloseComponentsMergerILj3EE5cloneEv
   fun:_ZNK16GsfVertexUpdator5cloneEv
   fun:_ZN22SequentialVertexFitterILj5EEC1ERKS0_
   fun:_ZN15GsfVertexFitterC1ERKS_
   fun:_ZNK15GsfVertexFitter5cloneEv
   fun:_ZN18AbstractConfFitterC1ERK12VertexFitterILj5EE
   fun:_ZN29ConfigurableGaussianSumFilterC1Ev
   fun:_GLOBAL__sub_I_ConfigurableGaussianSumFilter.cc
   fun:_dl_init
   fun:dl_open_worker
   fun:_dl_catch_error
}

{
   basf2 suppression 83
   Memcheck:Leak
   fun:_Znwm
   fun:_ZNK21CloseComponentsMergerILj3EE5cloneEv
   fun:_ZNK16GsfVertexUpdator5cloneEv
   fun:_ZN22SequentialVertexFitterILj5EEC1ERKS0_
   fun:_ZN15GsfVertexFitterC1ERKS_
   fun:_ZNK15GsfVertexFitter5cloneEv
   fun:_ZN18AbstractConfFitterC1ERKS_
   fun:_ZN29ConfigurableGaussianSumFilterC1ERKS_
   fun:_ZNK29ConfigurableGaussianSumFilter5cloneEv
   fun:_ZN23ReconstructorFromFitterC1ERK18AbstractConfFitter
   fun:_ZN19VertexFitterManager14registerFitterERKSsP18AbstractConfFitterS1_
   fun:_GLOBAL__sub_I_ConfigurableGaussianSumFilter.cc
}

{
   basf2 suppression 84
   Memcheck:Leak
   fun:_Znwm
   fun:_ZNSs4_Rep9_S_createEmmRKSaIcE
   fun:_ZNSs12_S_constructIPKcEEPcT_S3_RKSaIcESt20forward_iterator_tag.part.29
   fun:_ZNSsC1EPKcmRKSaIcE
   fun:_ZL17ParseFrontendArgsRN5clang15FrontendOptionsERN4llvm3opt7ArgListERNS_17DiagnosticsEngineE.constprop.330
   fun:_ZN5clang18CompilerInvocation14CreateFromArgsERS0_PKPKcS5_RNS_17DiagnosticsEngineE
   fun:_ZN12_GLOBAL__N_1L12createCIImplESt10unique_ptrIN4llvm12MemoryBufferESt14default_deleteIS2_EEiPKPKcS7_b
   fun:_ZN5cling9CIFactory8createCIEN4llvm9StringRefEiPKPKcS4_
   fun:_ZN5cling17IncrementalParserC1EPNS_11InterpreterEiPKPKcS4_
   fun:_ZN5cling11InterpreterC1EiPKPKcS2_b
   fun:_ZN6TClingC1EPKcS1_
   fun:CreateInterpreter
}

{
   basf2 suppression 85
   Memcheck:Leak
   fun:_Znwm
   fun:_ZNSs4_Rep9_S_createEmmRKSaIcE
   fun:_ZNSs12_S_constructIPKcEEPcT_S3_RKSaIcESt20forward_iterator_tag.part.29
   fun:_ZNSsC1EPKcmRKSaIcE
   fun:_ZL16ParseCodeGenArgsRN5clang14CodeGenOptionsERN4llvm3opt7ArgListENS_9InputKindERNS_17DiagnosticsEngineERKNS_13TargetOptionsE.constprop.333
   fun:_ZN5clang18CompilerInvocation14CreateFromArgsERS0_PKPKcS5_RNS_17DiagnosticsEngineE
   fun:_ZN12_GLOBAL__N_1L12createCIImplESt10unique_ptrIN4llvm12MemoryBufferESt14default_deleteIS2_EEiPKPKcS7_b
   fun:_ZN5cling9CIFactory8createCIEN4llvm9StringRefEiPKPKcS4_
   fun:_ZN5cling17IncrementalParserC1EPNS_11InterpreterEiPKPKcS4_
   fun:_ZN5cling11InterpreterC1EiPKPKcS2_b
   fun:_ZN6TClingC1EPKcS1_
   fun:CreateInterpreter
}

{
   basf2 suppression 86
   Memcheck:Leak
   fun:_Znwm
   fun:_ZNSs4_Rep9_S_createEmmRKSaIcE
   fun:_ZNSs12_S_constructIPKcEEPcT_S3_RKSaIcESt20forward_iterator_tag.part.29
   fun:_ZNSsC1EPKcmRKSaIcE
   fun:_ZL21ParseHeaderSearchArgsRN5clang19HeaderSearchOptionsERN4llvm3opt7ArgListE.constprop.328
   fun:_ZN5clang18CompilerInvocation14CreateFromArgsERS0_PKPKcS5_RNS_17DiagnosticsEngineE
   fun:_ZN12_GLOBAL__N_1L12createCIImplESt10unique_ptrIN4llvm12MemoryBufferESt14default_deleteIS2_EEiPKPKcS7_b
   fun:_ZN5cling9CIFactory8createCIEN4llvm9StringRefEiPKPKcS4_
   fun:_ZN5cling17IncrementalParserC1EPNS_11InterpreterEiPKPKcS4_
   fun:_ZN5cling11InterpreterC1EiPKPKcS2_b
   fun:_ZN6TClingC1EPKcS1_
   fun:CreateInterpreter
}

{
   basf2 suppression 87
   Memcheck:Leak
   fun:_Znwm
   fun:_ZNSs4_Rep9_S_createEmmRKSaIcE
   fun:_ZNSs12_S_constructIPKcEEPcT_S3_RKSaIcESt20forward_iterator_tag.part.29
   fun:_ZNSsC1EPKcmRKSaIcE
   fun:_ZN5clang9ASTReaderC1ERNS_12PreprocessorERNS_10ASTContextEN4llvm9StringRefEbbbbb
   fun:_ZN5clang16CompilerInstance26createPCHExternalASTSourceEN4llvm9StringRefERKSsbbRNS_12PreprocessorERNS_10ASTContextEPvbbb
   fun:_ZN5clang16CompilerInstance26createPCHExternalASTSourceEN4llvm9StringRefEbbPvb
   fun:_ZN5cling17IncrementalParser10InitializeERN4llvm15SmallVectorImplINS1_14PointerIntPairIPNS_11TransactionELj2ENS0_12EParseResultENS1_21PointerLikeTypeTraitsIS5_EEEEEE
   fun:_ZN5cling11InterpreterC1EiPKPKcS2_b
   fun:_ZN6TClingC1EPKcS1_
   fun:CreateInterpreter
   fun:_ZN5TROOT15InitInterpreterEv
}

{
   basf2 suppression 88
   Memcheck:Leak
   fun:_Znwm
   fun:_ZNSs4_Rep9_S_createEmmRKSaIcE
   fun:_ZNSs12_S_constructIPcEES0_T_S1_RKSaIcESt20forward_iterator_tag
   fun:_ZN13G4UIparameter15SetDefaultValueEi
   fun:_ZN19G4GeometryMessengerC1EP23G4TransportationManager
   fun:_ZN23G4TransportationManagerC1Ev
   fun:_ZN23G4TransportationManager24GetTransportationManagerEv
   fun:_ZN17G4SteppingManagerC1Ev
   fun:_ZN17G4TrackingManagerC1Ev
   fun:_ZN14G4EventManagerC1Ev
   fun:_ZN18G4RunManagerKernelC1Ev
   fun:_ZN12G4RunManagerC1Ev
}

{
   basf2 suppression 89
   Memcheck:Leak
   fun:_Znwm
   fun:_ZNSs4_Rep9_S_createEmmRKSaIcE
   fun:_ZNSs12_S_constructIPcEES0_T_S1_RKSaIcESt20forward_iterator_tag
   fun:_ZN13G4UIparameter15SetDefaultValueEd
   fun:_ZN19G4GeometryMessengerC1EP23G4TransportationManager
   fun:_ZN23G4TransportationManagerC1Ev
   fun:_ZN23G4TransportationManager24GetTransportationManagerEv
   fun:_ZN17G4SteppingManagerC1Ev
   fun:_ZN17G4TrackingManagerC1Ev
   fun:_ZN14G4EventManagerC1Ev
   fun:_ZN18G4RunManagerKernelC1Ev
   fun:_ZN12G4RunManagerC1Ev
}

{
   basf2 suppression 90
   Memcheck:Leak
   fun:_Znwm
   fun:_ZNSs4_Rep9_S_createEmmRKSaIcE
   fun:_ZNSs12_S_constructIPcEES0_T_S1_RKSaIcESt20forward_iterator_tag
   fun:_ZN13G4UIparameter15SetDefaultValueEi
   fun:_ZN19G4GeometryMessengerC1EP23G4TransportationManager
   fun:_ZN23G4TransportationManagerC1Ev
   fun:_ZN23G4TransportationManager24GetTransportationManagerEv
   fun:_ZN17G4SteppingManagerC1Ev
   fun:_ZN17G4TrackingManagerC1Ev
   fun:_ZN14G4EventManagerC1Ev
   fun:_ZN18G4RunManagerKernelC1Ev
   fun:_ZN12G4RunManagerC1Ev
}

{
   basf2 suppression 91
   Memcheck:Leak
   fun:_Znwm
   fun:_ZNSs4_Rep9_S_createEmmRKSaIcE
   fun:_ZNSs12_S_constructIPcEES0_T_S1_RKSaIcESt20forward_iterator_tag
   fun:_ZN13G4UIparameter15SetDefaultValueEi
   fun:_ZN19G4GeometryMessengerC1EP23G4TransportationManager
   fun:_ZN23G4TransportationManagerC1Ev
   fun:_ZN23G4TransportationManager24GetTransportationManagerEv
   fun:_ZN17G4SteppingManagerC1Ev
   fun:_ZN17G4TrackingManagerC1Ev
   fun:_ZN14G4EventManagerC1Ev
   fun:_ZN18G4RunManagerKernelC1Ev
   fun:_ZN12G4RunManagerC1Ev
}

{
   basf2 suppression 92
   Memcheck:Leak
   fun:_Znwm
   fun:_ZNSs4_Rep9_S_createEmmRKSaIcE
   fun:_ZNSs12_S_constructIPcEES0_T_S1_RKSaIcESt20forward_iterator_tag
   fun:_ZN13G4UIparameter15SetDefaultValueEi
   fun:_ZN19G4GeometryMessengerC1EP23G4TransportationManager
   fun:_ZN23G4TransportationManagerC1Ev
   fun:_ZN23G4TransportationManager24GetTransportationManagerEv
   fun:_ZN17G4SteppingManagerC1Ev
   fun:_ZN17G4TrackingManagerC1Ev
   fun:_ZN14G4EventManagerC1Ev
   fun:_ZN18G4RunManagerKernelC1Ev
   fun:_ZN12G4RunManagerC1Ev
}

{
   basf2 suppression 93
   Memcheck:Leak
   fun:_Znwm
   fun:_ZNSs4_Rep9_S_createEmmRKSaIcE
   fun:_ZNSs12_S_constructIPcEES0_T_S1_RKSaIcESt20forward_iterator_tag
   fun:_ZN13G4UIparameter15SetDefaultValueEi
   fun:_ZN19G4GeometryMessengerC1EP23G4TransportationManager
   fun:_ZN23G4TransportationManagerC1Ev
   fun:_ZN23G4TransportationManager24GetTransportationManagerEv
   fun:_ZN17G4SteppingManagerC1Ev
   fun:_ZN17G4TrackingManagerC1Ev
   fun:_ZN14G4EventManagerC1Ev
   fun:_ZN18G4RunManagerKernelC1Ev
   fun:_ZN12G4RunManagerC1Ev
}

{
   basf2 suppression 94
   Memcheck:Leak
   fun:_Znwm
   fun:_ZNSs4_Rep9_S_createEmmRKSaIcE
   fun:_ZNSs12_S_constructIPcEES0_T_S1_RKSaIcESt20forward_iterator_tag
   fun:_ZN13G4UIparameter15SetDefaultValueEi
   fun:_ZN19G4GeometryMessengerC1EP23G4TransportationManager
   fun:_ZN23G4TransportationManagerC1Ev
   fun:_ZN23G4TransportationManager24GetTransportationManagerEv
   fun:_ZN17G4SteppingManagerC1Ev
   fun:_ZN17G4TrackingManagerC1Ev
   fun:_ZN14G4EventManagerC1Ev
   fun:_ZN18G4RunManagerKernelC1Ev
   fun:_ZN12G4RunManagerC1Ev
}

{
   basf2 suppression 95
   Memcheck:Leak
   fun:_Znwm
   fun:_ZNSs4_Rep9_S_createEmmRKSaIcE
   fun:_ZNSs12_S_constructIPcEES0_T_S1_RKSaIcESt20forward_iterator_tag
   fun:_ZN13G4UIparameter15SetDefaultValueEi
   fun:_ZN19G4GeometryMessengerC1EP23G4TransportationManager
   fun:_ZN23G4TransportationManagerC1Ev
   fun:_ZN23G4TransportationManager24GetTransportationManagerEv
   fun:_ZN17G4SteppingManagerC1Ev
   fun:_ZN17G4TrackingManagerC1Ev
   fun:_ZN14G4EventManagerC1Ev
   fun:_ZN18G4RunManagerKernelC1Ev
   fun:_ZN12G4RunManagerC1Ev
}

{
   basf2 suppression 96
   Memcheck:Leak
   fun:_Znwm
   fun:_ZNSs4_Rep9_S_createEmmRKSaIcE
   fun:_ZNSs12_S_constructIPKcEEPcT_S3_RKSaIcESt20forward_iterator_tag.part.29
   fun:_ZNSsC1EPKcRKSaIcE
   fun:_GLOBAL__sub_I_MethodDT.cxx
   fun:_dl_init
   fun:dl_open_worker
   fun:_dl_catch_error
   fun:_dl_open
   fun:dlopen_doit
   fun:_dl_catch_error
   fun:_dlerror_run
}

{
   basf2 suppression 97
   Memcheck:Leak
   fun:_Znwm
   fun:_ZNSs4_Rep9_S_createEmmRKSaIcE
   fun:_ZNSs12_S_constructIPKcEEPcT_S3_RKSaIcESt20forward_iterator_tag.part.29
   fun:_ZNSsC1EPKcRKSaIcE
   fun:_GLOBAL__sub_I_MethodLD.cxx
   fun:_dl_init
   fun:dl_open_worker
   fun:_dl_catch_error
   fun:_dl_open
   fun:dlopen_doit
   fun:_dl_catch_error
   fun:_dlerror_run
}

{
   basf2 suppression 98
   Memcheck:Leak
   fun:_Znwm
   fun:_ZNSs4_Rep9_S_createEmmRKSaIcE
   fun:_ZNSs12_S_constructIPKcEEPcT_S3_RKSaIcESt20forward_iterator_tag.part.29
   fun:_ZNSsC1EPKcmRKSaIcE
   fun:_ZL17ParseFrontendArgsRN5clang15FrontendOptionsERN4llvm3opt7ArgListERNS_17DiagnosticsEngineE.constprop.330
   fun:_ZN5clang18CompilerInvocation14CreateFromArgsERS0_PKPKcS5_RNS_17DiagnosticsEngineE
   fun:_ZN12_GLOBAL__N_1L12createCIImplESt10unique_ptrIN4llvm12MemoryBufferESt14default_deleteIS2_EEiPKPKcS7_b
   fun:_ZN5cling9CIFactory8createCIEN4llvm9StringRefEiPKPKcS4_
   fun:_ZN5cling17IncrementalParserC1EPNS_11InterpreterEiPKPKcS4_
   fun:_ZN5cling11InterpreterC1EiPKPKcS2_b
   fun:_ZN6TClingC1EPKcS1_
   fun:CreateInterpreter
}

{
   basf2 suppression 99
   Memcheck:Leak
   fun:_Znwm
   fun:_ZNSs4_Rep9_S_createEmmRKSaIcE
   fun:_ZNSs12_S_constructIPKcEEPcT_S3_RKSaIcESt20forward_iterator_tag.part.29
   fun:_ZNSsC1EPKcmRKSaIcE
   fun:_ZN5clang12Preprocessor16AddPragmaHandlerEN4llvm9StringRefEPNS_13PragmaHandlerE
   fun:_ZN5clang12Preprocessor22RegisterBuiltinPragmasEv
   fun:_ZN5clang12PreprocessorC1EN4llvm18IntrusiveRefCntPtrINS_19PreprocessorOptionsEEERNS_17DiagnosticsEngineERNS_11LangOptionsERNS_13SourceManagerERNS_12HeaderSearchERNS_12ModuleLoaderEPNS_20IdentifierInfoLookupEbNS_19TranslationUnitKindE
   fun:_ZN5clang16CompilerInstance18createPreprocessorENS_19TranslationUnitKindE
   fun:_ZN12_GLOBAL__N_1L12createCIImplESt10unique_ptrIN4llvm12MemoryBufferESt14default_deleteIS2_EEiPKPKcS7_b
   fun:_ZN5cling9CIFactory8createCIEN4llvm9StringRefEiPKPKcS4_
   fun:_ZN5cling17IncrementalParserC1EPNS_11InterpreterEiPKPKcS4_
   fun:_ZN5cling11InterpreterC1EiPKPKcS2_b
}

{
   basf2 suppression 100
   Memcheck:Leak
   fun:_Znwm
   fun:_ZNSs4_Rep9_S_createEmmRKSaIcE
   fun:_ZNSs12_S_constructIPKcEEPcT_S3_RKSaIcESt20forward_iterator_tag.part.29
   fun:_ZNSsC1EPKcmRKSaIcE
   fun:_ZN5clang6Parser24initializePragmaHandlersEv
   fun:_ZN5clang6ParserC1ERNS_12PreprocessorERNS_4SemaEbb
   fun:_ZN5cling17IncrementalParser10InitializeERN4llvm15SmallVectorImplINS1_14PointerIntPairIPNS_11TransactionELj2ENS0_12EParseResultENS1_21PointerLikeTypeTraitsIS5_EEEEEE
   fun:_ZN5cling11InterpreterC1EiPKPKcS2_b
   fun:_ZN6TClingC1EPKcS1_
   fun:CreateInterpreter
   fun:_ZN5TROOT15InitInterpreterEv
   fun:_ZN4ROOT8GetROOT2Ev
}

{
   basf2 suppression 101
   Memcheck:Leak
   fun:malloc
   fun:_PyLong_New
   fun:PyLong_FromLong
   fun:r_object
   fun:r_object
   fun:r_object
   fun:r_object
   fun:r_object
   fun:PyMarshal_ReadObjectFromString
   fun:_imp_get_frozen_object
   fun:PyCFunction_Call
   fun:PyEval_EvalFrameEx
}

{
   basf2 suppression 102
   Memcheck:Leak
   fun:_Znwm
   fun:_ZNSs4_Rep9_S_createEmmRKSaIcE
   fun:_ZNSs12_S_constructIPKcEEPcT_S3_RKSaIcESt20forward_iterator_tag.part.29
   fun:_ZNSsC1EPKcRKSaIcE
   fun:_ZN18G4PhysListRegistry8InstanceEv
   fun:_GLOBAL__sub_I_G4RegisterPhysLists.cc
   fun:_dl_init
   fun:dl_open_worker
   fun:_dl_catch_error
   fun:_dl_open
   fun:dlopen_doit
   fun:_dl_catch_error
}

{
   basf2 suppression 103
   Memcheck:Leak
   fun:_Znwm
   fun:_ZNSs4_Rep9_S_createEmmRKSaIcE
   fun:_ZNSs12_S_constructIPKcEEPcT_S3_RKSaIcESt20forward_iterator_tag.part.29
   fun:_ZNSsC1EPKcRKSaIcE
   fun:_ZN18G4PhysListRegistry8InstanceEv
   fun:_GLOBAL__sub_I_G4RegisterPhysLists.cc
   fun:_dl_init
   fun:dl_open_worker
   fun:_dl_catch_error
   fun:_dl_open
   fun:dlopen_doit
   fun:_dl_catch_error
}

{
   basf2 suppression 104
   Memcheck:Leak
   fun:malloc
   fun:_PyLong_New
   fun:PyLong_FromLong
   fun:PyInit_multiarray
   fun:_PyImport_LoadDynamicModuleWithSpec
   fun:_imp_create_dynamic
   fun:PyCFunction_Call
   fun:PyEval_EvalFrameEx
   fun:_PyEval_EvalCodeWithName
   fun:PyEval_EvalFrameEx
   fun:PyEval_EvalFrameEx
   fun:PyEval_EvalFrameEx
}

{
   basf2 suppression 105
   Memcheck:Leak
   fun:malloc
   fun:_PyLong_New
   fun:PyLong_FromLong
   fun:PyInit_multiarray
   fun:_PyImport_LoadDynamicModuleWithSpec
   fun:_imp_create_dynamic
   fun:PyCFunction_Call
   fun:PyEval_EvalFrameEx
   fun:_PyEval_EvalCodeWithName
   fun:PyEval_EvalFrameEx
   fun:PyEval_EvalFrameEx
   fun:PyEval_EvalFrameEx
}

{
   basf2 suppression 106
   Memcheck:Leak
   fun:malloc
   fun:_PyLong_New
   fun:PyLong_FromLong
   fun:PyInit_multiarray
   fun:_PyImport_LoadDynamicModuleWithSpec
   fun:_imp_create_dynamic
   fun:PyCFunction_Call
   fun:PyEval_EvalFrameEx
   fun:_PyEval_EvalCodeWithName
   fun:PyEval_EvalFrameEx
   fun:PyEval_EvalFrameEx
   fun:PyEval_EvalFrameEx
}

{
   basf2 suppression 107
   Memcheck:Leak
   fun:malloc
   fun:_PyLong_New
   fun:PyLong_FromLong
   fun:PyInit_multiarray
   fun:_PyImport_LoadDynamicModuleWithSpec
   fun:_imp_create_dynamic
   fun:PyCFunction_Call
   fun:PyEval_EvalFrameEx
   fun:_PyEval_EvalCodeWithName
   fun:PyEval_EvalFrameEx
   fun:PyEval_EvalFrameEx
   fun:PyEval_EvalFrameEx
}

{
   basf2 suppression 108
   Memcheck:Leak
   fun:_Znwm
   fun:_ZNSs4_Rep9_S_createEmmRKSaIcE
   fun:_ZNSs12_S_constructIPKcEEPcT_S3_RKSaIcESt20forward_iterator_tag.part.29
   fun:_ZNSsC1EPKcRKSaIcE
   fun:_ZN18G4PhysListRegistry8InstanceEv
   fun:_GLOBAL__sub_I_G4RegisterPhysLists.cc
   fun:_dl_init
   fun:dl_open_worker
   fun:_dl_catch_error
   fun:_dl_open
   fun:dlopen_doit
   fun:_dl_catch_error
}

{
   basf2 suppression 109
   Memcheck:Leak
   fun:_Znwm
   fun:_ZNSs4_Rep9_S_createEmmRKSaIcE
   fun:_ZNSs12_S_constructIPKcEEPcT_S3_RKSaIcESt20forward_iterator_tag.part.29
   fun:_ZNSsC1EPKcRKSaIcE
   fun:_ZN18G4PhysListRegistry8InstanceEv
   fun:_GLOBAL__sub_I_G4RegisterPhysLists.cc
   fun:_dl_init
   fun:dl_open_worker
   fun:_dl_catch_error
   fun:_dl_open
   fun:dlopen_doit
   fun:_dl_catch_error
}

{
   basf2 suppression 110
   Memcheck:Leak
   fun:_Znwm
   fun:_ZNSs4_Rep9_S_createEmmRKSaIcE
   fun:_ZNSs12_S_constructIPKcEEPcT_S3_RKSaIcESt20forward_iterator_tag.part.29
   fun:_ZNSsC1EPKcRKSaIcE
   fun:_ZN18G4PhysListRegistry8InstanceEv
   fun:_GLOBAL__sub_I_G4RegisterPhysLists.cc
   fun:_dl_init
   fun:dl_open_worker
   fun:_dl_catch_error
   fun:_dl_open
   fun:dlopen_doit
   fun:_dl_catch_error
}

{
   basf2 suppression 111
   Memcheck:Leak
   fun:_Znwm
   fun:_ZNSs4_Rep9_S_createEmmRKSaIcE
   fun:_ZNSs12_S_constructIPKcEEPcT_S3_RKSaIcESt20forward_iterator_tag.part.29
   fun:_ZNSsC1EPKcRKSaIcE
   fun:_ZN18G4PhysListRegistry8InstanceEv
   fun:_GLOBAL__sub_I_G4RegisterPhysLists.cc
   fun:_dl_init
   fun:dl_open_worker
   fun:_dl_catch_error
   fun:_dl_open
   fun:dlopen_doit
   fun:_dl_catch_error
}

{
   basf2 suppression 112
   Memcheck:Leak
   fun:_Znwm
   fun:_ZNSs4_Rep9_S_createEmmRKSaIcE
   fun:_ZNSs12_S_constructIPKcEEPcT_S3_RKSaIcESt20forward_iterator_tag.part.29
   fun:_ZNSsC1EPKcRKSaIcE
   fun:_GLOBAL__sub_I_G4RegisterPhysLists.cc
   fun:_dl_init
   fun:dl_open_worker
   fun:_dl_catch_error
   fun:_dl_open
   fun:dlopen_doit
   fun:_dl_catch_error
   fun:_dlerror_run
}

{
   basf2 suppression 113
   Memcheck:Leak
   fun:_Znwm
   fun:_ZNSs4_Rep9_S_createEmmRKSaIcE
   fun:_ZNSs12_S_constructIPKcEEPcT_S3_RKSaIcESt20forward_iterator_tag.part.29
   fun:_ZNSsC1EPKcRKSaIcE
   fun:_GLOBAL__sub_I_MethodBDT.cxx
   fun:_dl_init
   fun:dl_open_worker
   fun:_dl_catch_error
   fun:_dl_open
   fun:dlopen_doit
   fun:_dl_catch_error
   fun:_dlerror_run
}

{
   basf2 suppression 114
   Memcheck:Leak
   fun:_Znwm
   fun:_ZNSs4_Rep9_S_createEmmRKSaIcE
   fun:_ZNSs12_S_constructIPKcEEPcT_S3_RKSaIcESt20forward_iterator_tag.part.29
   fun:_ZNSsC1EPKcRKSaIcE
   fun:_GLOBAL__sub_I_MethodFDA.cxx
   fun:_dl_init
   fun:dl_open_worker
   fun:_dl_catch_error
   fun:_dl_open
   fun:dlopen_doit
   fun:_dl_catch_error
   fun:_dlerror_run
}

{
   basf2 suppression 115
   Memcheck:Leak
   fun:_Znwm
   fun:_ZNSs4_Rep9_S_createEmmRKSaIcE
   fun:_ZNSs12_S_constructIPKcEEPcT_S3_RKSaIcESt20forward_iterator_tag.part.29
   fun:_ZNSsC1EPKcRKSaIcE
   fun:_GLOBAL__sub_I_MethodKNN.cxx
   fun:_dl_init
   fun:dl_open_worker
   fun:_dl_catch_error
   fun:_dl_open
   fun:dlopen_doit
   fun:_dl_catch_error
   fun:_dlerror_run
}

{
   basf2 suppression 116
   Memcheck:Leak
   fun:_Znwm
   fun:_ZNSs4_Rep9_S_createEmmRKSaIcE
   fun:_ZNSs12_S_constructIPKcEEPcT_S3_RKSaIcESt20forward_iterator_tag.part.29
   fun:_ZNSsC1EPKcRKSaIcE
   fun:_GLOBAL__sub_I_MethodMLP.cxx
   fun:_dl_init
   fun:dl_open_worker
   fun:_dl_catch_error
   fun:_dl_open
   fun:dlopen_doit
   fun:_dl_catch_error
   fun:_dlerror_run
}

{
   basf2 suppression 117
   Memcheck:Leak
   fun:_Znwm
   fun:_ZNSs4_Rep9_S_createEmmRKSaIcE
   fun:_ZNSs12_S_constructIPKcEEPcT_S3_RKSaIcESt20forward_iterator_tag.part.29
   fun:_ZNSsC1EPKcRKSaIcE
   fun:_GLOBAL__sub_I_MethodSVM.cxx
   fun:_dl_init
   fun:dl_open_worker
   fun:_dl_catch_error
   fun:_dl_open
   fun:dlopen_doit
   fun:_dl_catch_error
   fun:_dlerror_run
}

{
   basf2 suppression 118
   Memcheck:Leak
   fun:_Znwm
   fun:_ZNSs4_Rep9_S_createEmmRKSaIcE
   fun:_ZNSs12_S_constructIPKcEEPcT_S3_RKSaIcESt20forward_iterator_tag.part.29
   fun:_ZNSsC1EPKcmRKSaIcE
   fun:_ZN5clang12Preprocessor22RegisterBuiltinPragmasEv
   fun:_ZN5clang12PreprocessorC1EN4llvm18IntrusiveRefCntPtrINS_19PreprocessorOptionsEEERNS_17DiagnosticsEngineERNS_11LangOptionsERNS_13SourceManagerERNS_12HeaderSearchERNS_12ModuleLoaderEPNS_20IdentifierInfoLookupEbNS_19TranslationUnitKindE
   fun:_ZN5clang16CompilerInstance18createPreprocessorENS_19TranslationUnitKindE
   fun:_ZN12_GLOBAL__N_1L12createCIImplESt10unique_ptrIN4llvm12MemoryBufferESt14default_deleteIS2_EEiPKPKcS7_b
   fun:_ZN5cling9CIFactory8createCIEN4llvm9StringRefEiPKPKcS4_
   fun:_ZN5cling17IncrementalParserC1EPNS_11InterpreterEiPKPKcS4_
   fun:_ZN5cling11InterpreterC1EiPKPKcS2_b
   fun:_ZN6TClingC1EPKcS1_
}

{
   basf2 suppression 119
   Memcheck:Leak
   fun:_Znwm
   fun:_ZNSs4_Rep9_S_createEmmRKSaIcE
   fun:_ZNSs12_S_constructIPKcEEPcT_S3_RKSaIcESt20forward_iterator_tag.part.29
   fun:_ZNSsC1EPKcmRKSaIcE
   fun:_ZN5clang12Preprocessor22RegisterBuiltinPragmasEv
   fun:_ZN5clang12PreprocessorC1EN4llvm18IntrusiveRefCntPtrINS_19PreprocessorOptionsEEERNS_17DiagnosticsEngineERNS_11LangOptionsERNS_13SourceManagerERNS_12HeaderSearchERNS_12ModuleLoaderEPNS_20IdentifierInfoLookupEbNS_19TranslationUnitKindE
   fun:_ZN5clang16CompilerInstance18createPreprocessorENS_19TranslationUnitKindE
   fun:_ZN12_GLOBAL__N_1L12createCIImplESt10unique_ptrIN4llvm12MemoryBufferESt14default_deleteIS2_EEiPKPKcS7_b
   fun:_ZN5cling9CIFactory8createCIEN4llvm9StringRefEiPKPKcS4_
   fun:_ZN5cling17IncrementalParserC1EPNS_11InterpreterEiPKPKcS4_
   fun:_ZN5cling11InterpreterC1EiPKPKcS2_b
   fun:_ZN6TClingC1EPKcS1_
}

{
   basf2 suppression 120
   Memcheck:Leak
   fun:_Znwm
   fun:_ZNSs4_Rep9_S_createEmmRKSaIcE
   fun:_ZNSs12_S_constructIPKcEEPcT_S3_RKSaIcESt20forward_iterator_tag.part.29
   fun:_ZNSsC1EPKcmRKSaIcE
   fun:_ZN5clang12Preprocessor16AddPragmaHandlerEN4llvm9StringRefEPNS_13PragmaHandlerE
   fun:_ZN5clang12Preprocessor22RegisterBuiltinPragmasEv
   fun:_ZN5clang12PreprocessorC1EN4llvm18IntrusiveRefCntPtrINS_19PreprocessorOptionsEEERNS_17DiagnosticsEngineERNS_11LangOptionsERNS_13SourceManagerERNS_12HeaderSearchERNS_12ModuleLoaderEPNS_20IdentifierInfoLookupEbNS_19TranslationUnitKindE
   fun:_ZN5clang16CompilerInstance18createPreprocessorENS_19TranslationUnitKindE
   fun:_ZN12_GLOBAL__N_1L12createCIImplESt10unique_ptrIN4llvm12MemoryBufferESt14default_deleteIS2_EEiPKPKcS7_b
   fun:_ZN5cling9CIFactory8createCIEN4llvm9StringRefEiPKPKcS4_
   fun:_ZN5cling17IncrementalParserC1EPNS_11InterpreterEiPKPKcS4_
   fun:_ZN5cling11InterpreterC1EiPKPKcS2_b
}

{
   basf2 suppression 121
   Memcheck:Leak
   fun:_Znwm
   fun:_ZNSs4_Rep9_S_createEmmRKSaIcE
   fun:_ZNSs12_S_constructIPKcEEPcT_S3_RKSaIcESt20forward_iterator_tag.part.29
   fun:_ZNSsC1EPKcmRKSaIcE
   fun:_ZN5cling15addClingPragmasERNS_11InterpreterE
   fun:_ZN5cling17IncrementalParser10InitializeERN4llvm15SmallVectorImplINS1_14PointerIntPairIPNS_11TransactionELj2ENS0_12EParseResultENS1_21PointerLikeTypeTraitsIS5_EEEEEE
   fun:_ZN5cling11InterpreterC1EiPKPKcS2_b
   fun:_ZN6TClingC1EPKcS1_
   fun:CreateInterpreter
   fun:_ZN5TROOT15InitInterpreterEv
   fun:_ZN4ROOT8GetROOT2Ev
   fun:_ZN12TDatabasePDGC1Ev
}

{
   basf2 suppression 122
   Memcheck:Leak
   fun:_Znwm
   fun:_ZNSs4_Rep9_S_createEmmRKSaIcE
   fun:_ZNSs12_S_constructIPKcEEPcT_S3_RKSaIcESt20forward_iterator_tag.part.29
   fun:_ZNSsC1EPKcmRKSaIcE
   fun:_ZN5clang6Parser24initializePragmaHandlersEv
   fun:_ZN5clang6ParserC1ERNS_12PreprocessorERNS_4SemaEbb
   fun:_ZN5cling17IncrementalParser10InitializeERN4llvm15SmallVectorImplINS1_14PointerIntPairIPNS_11TransactionELj2ENS0_12EParseResultENS1_21PointerLikeTypeTraitsIS5_EEEEEE
   fun:_ZN5cling11InterpreterC1EiPKPKcS2_b
   fun:_ZN6TClingC1EPKcS1_
   fun:CreateInterpreter
   fun:_ZN5TROOT15InitInterpreterEv
   fun:_ZN4ROOT8GetROOT2Ev
}

{
   basf2 suppression 123
   Memcheck:Leak
   fun:_Znwm
   fun:_ZNSs4_Rep9_S_createEmmRKSaIcE
   fun:_ZNSs12_S_constructIPKcEEPcT_S3_RKSaIcESt20forward_iterator_tag.part.29
   fun:_ZNSsC1EPKcmRKSaIcE
   fun:_ZN5clang6Parser24initializePragmaHandlersEv
   fun:_ZN5clang6ParserC1ERNS_12PreprocessorERNS_4SemaEbb
   fun:_ZN5cling17IncrementalParser10InitializeERN4llvm15SmallVectorImplINS1_14PointerIntPairIPNS_11TransactionELj2ENS0_12EParseResultENS1_21PointerLikeTypeTraitsIS5_EEEEEE
   fun:_ZN5cling11InterpreterC1EiPKPKcS2_b
   fun:_ZN6TClingC1EPKcS1_
   fun:CreateInterpreter
   fun:_ZN5TROOT15InitInterpreterEv
   fun:_ZN4ROOT8GetROOT2Ev
}

{
   basf2 suppression 124
   Memcheck:Leak
   fun:_Znwm
   fun:_ZNSs4_Rep9_S_createEmmRKSaIcE
   fun:_ZNSs12_S_constructIPKcEEPcT_S3_RKSaIcESt20forward_iterator_tag.part.29
   fun:_ZNSsC1EPKcmRKSaIcE
   fun:_ZN5clang6Parser24initializePragmaHandlersEv
   fun:_ZN5clang6ParserC1ERNS_12PreprocessorERNS_4SemaEbb
   fun:_ZN5cling17IncrementalParser10InitializeERN4llvm15SmallVectorImplINS1_14PointerIntPairIPNS_11TransactionELj2ENS0_12EParseResultENS1_21PointerLikeTypeTraitsIS5_EEEEEE
   fun:_ZN5cling11InterpreterC1EiPKPKcS2_b
   fun:_ZN6TClingC1EPKcS1_
   fun:CreateInterpreter
   fun:_ZN5TROOT15InitInterpreterEv
   fun:_ZN4ROOT8GetROOT2Ev
}

{
   basf2 suppression 125
   Memcheck:Leak
   fun:_Znwm
   fun:_ZNSs4_Rep9_S_createEmmRKSaIcE
   fun:_ZNSs12_S_constructIPKcEEPcT_S3_RKSaIcESt20forward_iterator_tag.part.29
   fun:_ZNSsC1EPKcRKSaIcE
   fun:_GLOBAL__sub_I_G4RegisterPhysLists.cc
   fun:_dl_init
   fun:dl_open_worker
   fun:_dl_catch_error
   fun:_dl_open
   fun:dlopen_doit
   fun:_dl_catch_error
   fun:_dlerror_run
}

{
   basf2 suppression 126
   Memcheck:Leak
   fun:_Znwm
   fun:_ZNSs4_Rep9_S_createEmmRKSaIcE
   fun:_ZNSs12_S_constructIPKcEEPcT_S3_RKSaIcESt20forward_iterator_tag.part.29
   fun:_ZNSsC1EPKcRKSaIcE
   fun:_ZN4TMVA9MsgLogger8InitMapsEv
   fun:_ZN4TMVA9MsgLoggerC1ERKSsNS_8EMsgTypeE
   fun:_ZN4TMVA5TypesC1Ev
   fun:_ZN4TMVA5Types8InstanceEv
   fun:_GLOBAL__sub_I_MethodBDT.cxx
   fun:_dl_init
   fun:dl_open_worker
   fun:_dl_catch_error
}

{
   basf2 suppression 127
   Memcheck:Leak
   fun:_Znwm
   fun:_ZNSs4_Rep9_S_createEmmRKSaIcE
   fun:_ZNSs12_S_constructIPKcEEPcT_S3_RKSaIcESt20forward_iterator_tag.part.29
   fun:_ZNSsC1EPKcRKSaIcE
   fun:_GLOBAL__sub_I_MethodCuts.cxx
   fun:_dl_init
   fun:dl_open_worker
   fun:_dl_catch_error
   fun:_dl_open
   fun:dlopen_doit
   fun:_dl_catch_error
   fun:_dlerror_run
}

{
   basf2 suppression 128
   Memcheck:Leak
   fun:_Znwm
   fun:_ZNSs4_Rep9_S_createEmmRKSaIcE
   fun:_ZNSs12_S_constructIPKcEEPcT_S3_RKSaIcESt20forward_iterator_tag.part.29
   fun:_ZNSsC1EPKcmRKSaIcE
   fun:_ZL16ParseCodeGenArgsRN5clang14CodeGenOptionsERN4llvm3opt7ArgListENS_9InputKindERNS_17DiagnosticsEngineERKNS_13TargetOptionsE.constprop.333
   fun:_ZN5clang18CompilerInvocation14CreateFromArgsERS0_PKPKcS5_RNS_17DiagnosticsEngineE
   fun:_ZN12_GLOBAL__N_1L12createCIImplESt10unique_ptrIN4llvm12MemoryBufferESt14default_deleteIS2_EEiPKPKcS7_b
   fun:_ZN5cling9CIFactory8createCIEN4llvm9StringRefEiPKPKcS4_
   fun:_ZN5cling17IncrementalParserC1EPNS_11InterpreterEiPKPKcS4_
   fun:_ZN5cling11InterpreterC1EiPKPKcS2_b
   fun:_ZN6TClingC1EPKcS1_
   fun:CreateInterpreter
}

{
   basf2 suppression 129
   Memcheck:Leak
   fun:_Znwm
   fun:_ZNSs4_Rep9_S_createEmmRKSaIcE
   fun:_ZNSs12_S_constructIPKcEEPcT_S3_RKSaIcESt20forward_iterator_tag.part.29
   fun:_ZNSsC1EPKcmRKSaIcE
   fun:_ZN5clang12Preprocessor22RegisterBuiltinPragmasEv
   fun:_ZN5clang12PreprocessorC1EN4llvm18IntrusiveRefCntPtrINS_19PreprocessorOptionsEEERNS_17DiagnosticsEngineERNS_11LangOptionsERNS_13SourceManagerERNS_12HeaderSearchERNS_12ModuleLoaderEPNS_20IdentifierInfoLookupEbNS_19TranslationUnitKindE
   fun:_ZN5clang16CompilerInstance18createPreprocessorENS_19TranslationUnitKindE
   fun:_ZN12_GLOBAL__N_1L12createCIImplESt10unique_ptrIN4llvm12MemoryBufferESt14default_deleteIS2_EEiPKPKcS7_b
   fun:_ZN5cling9CIFactory8createCIEN4llvm9StringRefEiPKPKcS4_
   fun:_ZN5cling17IncrementalParserC1EPNS_11InterpreterEiPKPKcS4_
   fun:_ZN5cling11InterpreterC1EiPKPKcS2_b
   fun:_ZN6TClingC1EPKcS1_
}

{
   basf2 suppression 130
   Memcheck:Leak
   fun:_Znwm
   fun:_ZNSs4_Rep9_S_createEmmRKSaIcE
   fun:_ZNSs12_S_constructIPKcEEPcT_S3_RKSaIcESt20forward_iterator_tag.part.29
   fun:_ZNSsC1EPKcmRKSaIcE
   fun:_ZN5clang12Preprocessor16AddPragmaHandlerEN4llvm9StringRefEPNS_13PragmaHandlerE
   fun:_ZN5clang12Preprocessor22RegisterBuiltinPragmasEv
   fun:_ZN5clang12PreprocessorC1EN4llvm18IntrusiveRefCntPtrINS_19PreprocessorOptionsEEERNS_17DiagnosticsEngineERNS_11LangOptionsERNS_13SourceManagerERNS_12HeaderSearchERNS_12ModuleLoaderEPNS_20IdentifierInfoLookupEbNS_19TranslationUnitKindE
   fun:_ZN5clang16CompilerInstance18createPreprocessorENS_19TranslationUnitKindE
   fun:_ZN12_GLOBAL__N_1L12createCIImplESt10unique_ptrIN4llvm12MemoryBufferESt14default_deleteIS2_EEiPKPKcS7_b
   fun:_ZN5cling9CIFactory8createCIEN4llvm9StringRefEiPKPKcS4_
   fun:_ZN5cling17IncrementalParserC1EPNS_11InterpreterEiPKPKcS4_
   fun:_ZN5cling11InterpreterC1EiPKPKcS2_b
}

{
   basf2 suppression 131
   Memcheck:Leak
   fun:_Znwm
   fun:_ZNSs4_Rep9_S_createEmmRKSaIcE
   fun:_ZNSs12_S_constructIPKcEEPcT_S3_RKSaIcESt20forward_iterator_tag.part.29
   fun:_ZNSsC1EPKcmRKSaIcE
   fun:_ZN5clang12Preprocessor16AddPragmaHandlerEN4llvm9StringRefEPNS_13PragmaHandlerE
   fun:_ZN5cling15addClingPragmasERNS_11InterpreterE
   fun:_ZN5cling17IncrementalParser10InitializeERN4llvm15SmallVectorImplINS1_14PointerIntPairIPNS_11TransactionELj2ENS0_12EParseResultENS1_21PointerLikeTypeTraitsIS5_EEEEEE
   fun:_ZN5cling11InterpreterC1EiPKPKcS2_b
   fun:_ZN6TClingC1EPKcS1_
   fun:CreateInterpreter
   fun:_ZN5TROOT15InitInterpreterEv
   fun:_ZN4ROOT8GetROOT2Ev
}

{
   basf2 suppression 132
   Memcheck:Leak
   fun:_Znwm
   fun:_ZNSs4_Rep9_S_createEmmRKSaIcE
   fun:_ZNSs12_S_constructIPKcEEPcT_S3_RKSaIcESt20forward_iterator_tag.part.29
   fun:_ZNSsC1EPKcmRKSaIcE
   fun:_ZN5clang6Parser24initializePragmaHandlersEv
   fun:_ZN5clang6ParserC1ERNS_12PreprocessorERNS_4SemaEbb
   fun:_ZN5cling17IncrementalParser10InitializeERN4llvm15SmallVectorImplINS1_14PointerIntPairIPNS_11TransactionELj2ENS0_12EParseResultENS1_21PointerLikeTypeTraitsIS5_EEEEEE
   fun:_ZN5cling11InterpreterC1EiPKPKcS2_b
   fun:_ZN6TClingC1EPKcS1_
   fun:CreateInterpreter
   fun:_ZN5TROOT15InitInterpreterEv
   fun:_ZN4ROOT8GetROOT2Ev
}

{
   basf2 suppression 133
   Memcheck:Leak
   fun:_Znwm
   fun:_ZNSs4_Rep9_S_createEmmRKSaIcE
   fun:_ZNSs12_S_constructIPKcEEPcT_S3_RKSaIcESt20forward_iterator_tag.part.29
   fun:_ZNSsC1EPKcRKSaIcE
   fun:_GLOBAL__sub_I_G4ReflectionFactory.cc
   fun:_dl_init
   fun:dl_open_worker
   fun:_dl_catch_error
   fun:_dl_open
   fun:dlopen_doit
   fun:_dl_catch_error
   fun:_dlerror_run
}

{
   basf2 suppression 134
   Memcheck:Leak
   fun:_Znwm
   fun:_ZNSs4_Rep9_S_createEmmRKSaIcE
   fun:_ZNSs12_S_constructIPcEES0_T_S1_RKSaIcESt20forward_iterator_tag
   fun:_ZN13G4UIparameter15SetDefaultValueEi
   fun:_ZN19G4GeometryMessengerC1EP23G4TransportationManager
   fun:_ZN23G4TransportationManagerC1Ev
   fun:_ZN23G4TransportationManager24GetTransportationManagerEv
   fun:_ZN17G4SteppingManagerC1Ev
   fun:_ZN17G4TrackingManagerC1Ev
   fun:_ZN14G4EventManagerC1Ev
   fun:_ZN18G4RunManagerKernelC1Ev
   fun:_ZN12G4RunManagerC1Ev
}

{
   basf2 suppression 135
   Memcheck:Leak
   fun:_Znwm
   fun:_ZNSs4_Rep9_S_createEmmRKSaIcE
   fun:_ZNSs12_S_constructIPKcEEPcT_S3_RKSaIcESt20forward_iterator_tag.part.29
   fun:_ZNSsC1EPKcRKSaIcE
   fun:_ZN4TMVA5TypesC1Ev
   fun:_ZN4TMVA5Types8InstanceEv
   fun:_GLOBAL__sub_I_MethodBDT.cxx
   fun:_dl_init
   fun:dl_open_worker
   fun:_dl_catch_error
   fun:_dl_open
   fun:dlopen_doit
}

{
   basf2 suppression 136
   Memcheck:Leak
   fun:_Znwm
   fun:_ZNSs4_Rep9_S_createEmmRKSaIcE
   fun:_ZNSs12_S_constructIPKcEEPcT_S3_RKSaIcESt20forward_iterator_tag.part.29
   fun:_ZNSsC1EPKcRKSaIcE
   fun:_ZN4TMVA9MsgLogger8InitMapsEv
   fun:_ZN4TMVA9MsgLoggerC1ERKSsNS_8EMsgTypeE
   fun:_ZN4TMVA5TypesC1Ev
   fun:_ZN4TMVA5Types8InstanceEv
   fun:_GLOBAL__sub_I_MethodBDT.cxx
   fun:_dl_init
   fun:dl_open_worker
   fun:_dl_catch_error
}

{
   basf2 suppression 137
   Memcheck:Leak
   fun:_Znwm
   fun:_ZNSs4_Rep9_S_createEmmRKSaIcE
   fun:_ZNSs12_S_constructIPKcEEPcT_S3_RKSaIcESt20forward_iterator_tag.part.29
   fun:_ZNSsC1EPKcRKSaIcE
   fun:_ZN4TMVA9MsgLogger8InitMapsEv
   fun:_ZN4TMVA9MsgLoggerC1ERKSsNS_8EMsgTypeE
   fun:_ZN4TMVA5TypesC1Ev
   fun:_ZN4TMVA5Types8InstanceEv
   fun:_GLOBAL__sub_I_MethodBDT.cxx
   fun:_dl_init
   fun:dl_open_worker
   fun:_dl_catch_error
}

{
   basf2 suppression 138
   Memcheck:Leak
   fun:_Znwm
   fun:_ZNSs4_Rep9_S_createEmmRKSaIcE
   fun:_ZNSs12_S_constructIPKcEEPcT_S3_RKSaIcESt20forward_iterator_tag.part.29
   fun:_ZNSsC1EPKcRKSaIcE
   fun:_ZN4TMVA9MsgLogger8InitMapsEv
   fun:_ZN4TMVA9MsgLoggerC1ERKSsNS_8EMsgTypeE
   fun:_ZN4TMVA5TypesC1Ev
   fun:_ZN4TMVA5Types8InstanceEv
   fun:_GLOBAL__sub_I_MethodBDT.cxx
   fun:_dl_init
   fun:dl_open_worker
   fun:_dl_catch_error
}

{
   basf2 suppression 139
   Memcheck:Leak
   fun:_Znwm
   fun:_ZNSs4_Rep9_S_createEmmRKSaIcE
   fun:_ZNSs12_S_constructIPKcEEPcT_S3_RKSaIcESt20forward_iterator_tag.part.29
   fun:_ZNSsC1EPKcRKSaIcE
   fun:_ZN4TMVA9MsgLogger8InitMapsEv
   fun:_ZN4TMVA9MsgLoggerC1ERKSsNS_8EMsgTypeE
   fun:_ZN4TMVA5TypesC1Ev
   fun:_ZN4TMVA5Types8InstanceEv
   fun:_GLOBAL__sub_I_MethodBDT.cxx
   fun:_dl_init
   fun:dl_open_worker
   fun:_dl_catch_error
}

{
   basf2 suppression 140
   Memcheck:Leak
   fun:_Znwm
   fun:_ZNSs4_Rep9_S_createEmmRKSaIcE
   fun:_ZNSs12_S_constructIPKcEEPcT_S3_RKSaIcESt20forward_iterator_tag.part.29
   fun:_ZNSsC1EPKcRKSaIcE
   fun:_ZN4TMVA9MsgLogger8InitMapsEv
   fun:_ZN4TMVA9MsgLoggerC1ERKSsNS_8EMsgTypeE
   fun:_ZN4TMVA5TypesC1Ev
   fun:_ZN4TMVA5Types8InstanceEv
   fun:_GLOBAL__sub_I_MethodBDT.cxx
   fun:_dl_init
   fun:dl_open_worker
   fun:_dl_catch_error
}

{
   basf2 suppression 141
   Memcheck:Leak
   fun:_Znwm
   fun:_ZNSs4_Rep9_S_createEmmRKSaIcE
   fun:_ZNSs12_S_constructIPKcEEPcT_S3_RKSaIcESt20forward_iterator_tag.part.29
   fun:_ZNSsC1EPKcRKSaIcE
   fun:_ZN4TMVA9MsgLogger8InitMapsEv
   fun:_ZN4TMVA9MsgLoggerC1ERKSsNS_8EMsgTypeE
   fun:_ZN4TMVA5TypesC1Ev
   fun:_ZN4TMVA5Types8InstanceEv
   fun:_GLOBAL__sub_I_MethodBDT.cxx
   fun:_dl_init
   fun:dl_open_worker
   fun:_dl_catch_error
}

{
   basf2 suppression 142
   Memcheck:Leak
   fun:_Znwm
   fun:_ZNSs4_Rep9_S_createEmmRKSaIcE
   fun:_ZNSs12_S_constructIPKcEEPcT_S3_RKSaIcESt20forward_iterator_tag.part.29
   fun:_ZNSsC1EPKcRKSaIcE
   fun:_GLOBAL__sub_I_MethodBoost.cxx
   fun:_dl_init
   fun:dl_open_worker
   fun:_dl_catch_error
   fun:_dl_open
   fun:dlopen_doit
   fun:_dl_catch_error
   fun:_dlerror_run
}

{
   basf2 suppression 143
   Memcheck:Leak
   fun:_Znwm
   fun:_ZNSs4_Rep9_S_createEmmRKSaIcE
   fun:_ZNSs12_S_constructIPKcEEPcT_S3_RKSaIcESt20forward_iterator_tag.part.29
   fun:_ZNSsC1EPKcRKSaIcE
   fun:_GLOBAL__sub_I_MethodPDERS.cxx
   fun:_dl_init
   fun:dl_open_worker
   fun:_dl_catch_error
   fun:_dl_open
   fun:dlopen_doit
   fun:_dl_catch_error
   fun:_dlerror_run
}

{
   basf2 suppression 144
   Memcheck:Leak
   fun:_Znwm
   fun:_ZNSs4_Rep9_S_createEmmRKSaIcE
   fun:_ZNSs12_S_constructIPKcEEPcT_S3_RKSaIcESt20forward_iterator_tag.part.29
   fun:_ZNSsC1EPKcRKSaIcE
   fun:_ZN13G4BaryonWidthC1Ev
   fun:_ZN32G4ConcreteMesonBaryonToResonance14theBaryonWidthEv
   fun:_ZN32G4ConcreteMesonBaryonToResonanceC1EPK20G4ParticleDefinitionS2_S2_RK8G4String
   fun:_ZN33G4CollisionMesonBaryonToResonanceC1Ev
   fun:_ZN22G4CollisionMesonBaryonC1Ev
   fun:_ZN11G4ScattererC1Ev
   fun:_ZN15G4BinaryCascadeC1EP19G4VPreCompoundModel
   fun:_ZN24G4BinaryLightIonReactionC1EP19G4VPreCompoundModel
}

{
   basf2 suppression 145
   Memcheck:Leak
   fun:_Znwm
   fun:_ZNSs4_Rep9_S_createEmmRKSaIcE
   fun:_ZNSs12_S_constructIPKcEEPcT_S3_RKSaIcESt20forward_iterator_tag.part.29
   fun:_ZNSsC1EPKcmRKSaIcE
   fun:_ZN5clang18CompilerInvocation14CreateFromArgsERS0_PKPKcS5_RNS_17DiagnosticsEngineE
   fun:_ZN12_GLOBAL__N_1L12createCIImplESt10unique_ptrIN4llvm12MemoryBufferESt14default_deleteIS2_EEiPKPKcS7_b
   fun:_ZN5cling9CIFactory8createCIEN4llvm9StringRefEiPKPKcS4_
   fun:_ZN5cling17IncrementalParserC1EPNS_11InterpreterEiPKPKcS4_
   fun:_ZN5cling11InterpreterC1EiPKPKcS2_b
   fun:_ZN6TClingC1EPKcS1_
   fun:CreateInterpreter
   fun:_ZN5TROOT15InitInterpreterEv
}

{
   basf2 suppression 146
   Memcheck:Leak
   fun:_Znwm
   fun:_ZNSs4_Rep9_S_createEmmRKSaIcE
   fun:_ZNSs12_S_constructIPKcEEPcT_S3_RKSaIcESt20forward_iterator_tag.part.29
   fun:_ZNSsC1EPKcmRKSaIcE
   fun:_ZN5clang18CompilerInvocation14CreateFromArgsERS0_PKPKcS5_RNS_17DiagnosticsEngineE
   fun:_ZN12_GLOBAL__N_1L12createCIImplESt10unique_ptrIN4llvm12MemoryBufferESt14default_deleteIS2_EEiPKPKcS7_b
   fun:_ZN5cling9CIFactory8createCIEN4llvm9StringRefEiPKPKcS4_
   fun:_ZN5cling17IncrementalParserC1EPNS_11InterpreterEiPKPKcS4_
   fun:_ZN5cling11InterpreterC1EiPKPKcS2_b
   fun:_ZN6TClingC1EPKcS1_
   fun:CreateInterpreter
   fun:_ZN5TROOT15InitInterpreterEv
}

{
   basf2 suppression 147
   Memcheck:Leak
   fun:_Znwm
   fun:_ZNSs4_Rep9_S_createEmmRKSaIcE
   fun:_ZNSs12_S_constructIPKcEEPcT_S3_RKSaIcESt20forward_iterator_tag.part.29
   fun:_ZNSsC1EPKcmRKSaIcE
   fun:_ZL16ParseCodeGenArgsRN5clang14CodeGenOptionsERN4llvm3opt7ArgListENS_9InputKindERNS_17DiagnosticsEngineERKNS_13TargetOptionsE.constprop.333
   fun:_ZN5clang18CompilerInvocation14CreateFromArgsERS0_PKPKcS5_RNS_17DiagnosticsEngineE
   fun:_ZN12_GLOBAL__N_1L12createCIImplESt10unique_ptrIN4llvm12MemoryBufferESt14default_deleteIS2_EEiPKPKcS7_b
   fun:_ZN5cling9CIFactory8createCIEN4llvm9StringRefEiPKPKcS4_
   fun:_ZN5cling17IncrementalParserC1EPNS_11InterpreterEiPKPKcS4_
   fun:_ZN5cling11InterpreterC1EiPKPKcS2_b
   fun:_ZN6TClingC1EPKcS1_
   fun:CreateInterpreter
}

{
   basf2 suppression 148
   Memcheck:Leak
   fun:_Znwm
   fun:_ZNSs4_Rep9_S_createEmmRKSaIcE
   fun:_ZNSs12_S_constructIPKcEEPcT_S3_RKSaIcESt20forward_iterator_tag.part.29
   fun:_ZNSsC1EPKcmRKSaIcE
   fun:_ZN5clang12Preprocessor22RegisterBuiltinPragmasEv
   fun:_ZN5clang12PreprocessorC1EN4llvm18IntrusiveRefCntPtrINS_19PreprocessorOptionsEEERNS_17DiagnosticsEngineERNS_11LangOptionsERNS_13SourceManagerERNS_12HeaderSearchERNS_12ModuleLoaderEPNS_20IdentifierInfoLookupEbNS_19TranslationUnitKindE
   fun:_ZN5clang16CompilerInstance18createPreprocessorENS_19TranslationUnitKindE
   fun:_ZN12_GLOBAL__N_1L12createCIImplESt10unique_ptrIN4llvm12MemoryBufferESt14default_deleteIS2_EEiPKPKcS7_b
   fun:_ZN5cling9CIFactory8createCIEN4llvm9StringRefEiPKPKcS4_
   fun:_ZN5cling17IncrementalParserC1EPNS_11InterpreterEiPKPKcS4_
   fun:_ZN5cling11InterpreterC1EiPKPKcS2_b
   fun:_ZN6TClingC1EPKcS1_
}

{
   basf2 suppression 149
   Memcheck:Leak
   fun:_Znwm
   fun:_ZNSs4_Rep9_S_createEmmRKSaIcE
   fun:_ZNSs12_S_constructIPKcEEPcT_S3_RKSaIcESt20forward_iterator_tag.part.29
   fun:_ZNSsC1EPKcmRKSaIcE
   fun:_ZN5clang12Preprocessor22RegisterBuiltinPragmasEv
   fun:_ZN5clang12PreprocessorC1EN4llvm18IntrusiveRefCntPtrINS_19PreprocessorOptionsEEERNS_17DiagnosticsEngineERNS_11LangOptionsERNS_13SourceManagerERNS_12HeaderSearchERNS_12ModuleLoaderEPNS_20IdentifierInfoLookupEbNS_19TranslationUnitKindE
   fun:_ZN5clang16CompilerInstance18createPreprocessorENS_19TranslationUnitKindE
   fun:_ZN12_GLOBAL__N_1L12createCIImplESt10unique_ptrIN4llvm12MemoryBufferESt14default_deleteIS2_EEiPKPKcS7_b
   fun:_ZN5cling9CIFactory8createCIEN4llvm9StringRefEiPKPKcS4_
   fun:_ZN5cling17IncrementalParserC1EPNS_11InterpreterEiPKPKcS4_
   fun:_ZN5cling11InterpreterC1EiPKPKcS2_b
   fun:_ZN6TClingC1EPKcS1_
}

{
   basf2 suppression 150
   Memcheck:Leak
   fun:_Znwm
   fun:_ZNSs4_Rep9_S_createEmmRKSaIcE
   fun:_ZNSs12_S_constructIPKcEEPcT_S3_RKSaIcESt20forward_iterator_tag.part.29
   fun:_ZNSsC1EPKcmRKSaIcE
   fun:_ZN5clang6Parser24initializePragmaHandlersEv
   fun:_ZN5clang6ParserC1ERNS_12PreprocessorERNS_4SemaEbb
   fun:_ZN5cling17IncrementalParser10InitializeERN4llvm15SmallVectorImplINS1_14PointerIntPairIPNS_11TransactionELj2ENS0_12EParseResultENS1_21PointerLikeTypeTraitsIS5_EEEEEE
   fun:_ZN5cling11InterpreterC1EiPKPKcS2_b
   fun:_ZN6TClingC1EPKcS1_
   fun:CreateInterpreter
   fun:_ZN5TROOT15InitInterpreterEv
   fun:_ZN4ROOT8GetROOT2Ev
}

{
   basf2 suppression 151
   Memcheck:Leak
   fun:_Znwm
   fun:_ZNSs4_Rep9_S_createEmmRKSaIcE
   fun:_ZNSs12_S_constructIPKcEEPcT_S3_RKSaIcESt20forward_iterator_tag.part.29
   fun:_ZNSsC1EPKcmRKSaIcE
   fun:_ZN5clang6Parser24initializePragmaHandlersEv
   fun:_ZN5clang6ParserC1ERNS_12PreprocessorERNS_4SemaEbb
   fun:_ZN5cling17IncrementalParser10InitializeERN4llvm15SmallVectorImplINS1_14PointerIntPairIPNS_11TransactionELj2ENS0_12EParseResultENS1_21PointerLikeTypeTraitsIS5_EEEEEE
   fun:_ZN5cling11InterpreterC1EiPKPKcS2_b
   fun:_ZN6TClingC1EPKcS1_
   fun:CreateInterpreter
   fun:_ZN5TROOT15InitInterpreterEv
   fun:_ZN4ROOT8GetROOT2Ev
}

{
   basf2 suppression 152
   Memcheck:Leak
   fun:_Znwm
   fun:_ZNSs4_Rep9_S_createEmmRKSaIcE
   fun:_ZNSs12_S_constructIPKcEEPcT_S3_RKSaIcESt20forward_iterator_tag.part.29
   fun:_ZNSsC1EPKcRKSaIcE
   fun:_GLOBAL__sub_I_G4RegisterPhysLists.cc
   fun:_dl_init
   fun:dl_open_worker
   fun:_dl_catch_error
   fun:_dl_open
   fun:dlopen_doit
   fun:_dl_catch_error
   fun:_dlerror_run
}

{
   basf2 suppression 153
   Memcheck:Leak
   fun:_Znwm
   fun:_ZNSs4_Rep9_S_createEmmRKSaIcE
   fun:_ZNSs12_S_constructIPcEES0_T_S1_RKSaIcESt20forward_iterator_tag
   fun:_ZNSsC1ERKSsmm
   fun:_ZNKSs6substrEmm
   fun:_ZN6PyROOT16CreateScopeProxyERKSsP7_object
   fun:_ZN6PyROOT16CreateScopeProxyEP7_objectS1_
   fun:PyCFunction_Call
   fun:PyEval_EvalFrameEx
   fun:_PyEval_EvalCodeWithName
   fun:PyEval_EvalCodeEx
   fun:PyEval_EvalCode
}

{
   basf2 suppression 154
   Memcheck:Leak
   fun:_Znwm
   fun:_ZNSs4_Rep9_S_createEmmRKSaIcE
   fun:_ZNSs12_S_constructIPKcEEPcT_S3_RKSaIcESt20forward_iterator_tag.part.29
   fun:_ZNSsC1EPKcRKSaIcE
   fun:_ZN6PyROOT9PythonizeEP7_objectRKSs
   fun:_ZN6PyROOT16CreateScopeProxyERKSsP7_object
   fun:_ZN6PyROOT16CreateScopeProxyEP7_objectS1_
   fun:PyCFunction_Call
   fun:PyEval_EvalFrameEx
   fun:_PyEval_EvalCodeWithName
   fun:PyEval_EvalCodeEx
   fun:PyEval_EvalCode
}

{
   basf2 suppression 155
   Memcheck:Leak
   fun:_Znwm
   fun:_ZNSs4_Rep9_S_createEmmRKSaIcE
   fun:_ZNSs12_S_constructIPKcEEPcT_S3_RKSaIcESt20forward_iterator_tag.part.29
   fun:_ZNSsC1EPKcRKSaIcE
   fun:_ZN4TMVA9MsgLogger8InitMapsEv
   fun:_ZN4TMVA9MsgLoggerC1ERKSsNS_8EMsgTypeE
   fun:_ZN4TMVA5TypesC1Ev
   fun:_ZN4TMVA5Types8InstanceEv
   fun:_GLOBAL__sub_I_MethodBDT.cxx
   fun:_dl_init
   fun:dl_open_worker
   fun:_dl_catch_error
}

{
   basf2 suppression 156
   Memcheck:Leak
   fun:_Znwm
   fun:_ZNSs4_Rep9_S_createEmmRKSaIcE
   fun:_ZNSs12_S_constructIPKcEEPcT_S3_RKSaIcESt20forward_iterator_tag.part.29
   fun:_ZNSsC1EPKcRKSaIcE
   fun:_GLOBAL__sub_I_MethodFisher.cxx
   fun:_dl_init
   fun:dl_open_worker
   fun:_dl_catch_error
   fun:_dl_open
   fun:dlopen_doit
   fun:_dl_catch_error
   fun:_dlerror_run
}

{
   basf2 suppression 157
   Memcheck:Leak
   fun:_Znwm
   fun:_ZNSs4_Rep9_S_createEmmRKSaIcE
   fun:_ZNSs12_S_constructIPKcEEPcT_S3_RKSaIcESt20forward_iterator_tag.part.29
   fun:_ZNSsC1EPKcRKSaIcE
   fun:_ZN15EvtPythiaEngine23updatePhysicsParametersEv
   fun:_ZN15EvtPythiaEngine10initialiseEv
   fun:_ZN15EvtPythiaEngine7doDecayEP11EvtParticle
   fun:_ZN9EvtPythia5decayEP11EvtParticle
   fun:_ZN18EvtDecayIncoherent9makeDecayEP11EvtParticleb
   fun:_ZN11EvtParticle5decayEv
   fun:_ZN11EvtDecayAmp9makeDecayEP11EvtParticleb
   fun:_ZN11EvtParticle5decayEv
}

{
   basf2 suppression 158
   Memcheck:Leak
   fun:_Znwm
   fun:_ZN4llvm6MDNodenwEmj
   fun:_ZN4llvm7MDTuple7getImplERNS_11LLVMContextENS_8ArrayRefIPNS_8MetadataEEENS4_11StorageTypeEb
   fun:_ZN5clang7CodeGen13CodeGenModule24EmitVersionIdentMetadataEv
   fun:_ZN5clang7CodeGen13CodeGenModule7ReleaseEv
   fun:_ZN5cling17IncrementalParser18codeGenTransactionEPNS_11TransactionE
   fun:_ZN5cling17IncrementalParser17commitTransactionEN4llvm14PointerIntPairIPNS_11TransactionELj2ENS0_12EParseResultENS1_21PointerLikeTypeTraitsIS4_EEEE
   fun:_ZN5cling11InterpreterC1EiPKPKcS2_b
   fun:_ZN6TClingC1EPKcS1_
   fun:CreateInterpreter
   fun:_ZN5TROOT15InitInterpreterEv
   fun:_ZN4ROOT8GetROOT2Ev
}

{
   basf2 suppression 159
   Memcheck:Leak
   fun:_Znwm
   fun:_ZNSs4_Rep9_S_createEmmRKSaIcE
   fun:_ZNSs12_S_constructIPKcEEPcT_S3_RKSaIcESt20forward_iterator_tag.part.29
   fun:_ZNSsC1EPKcmRKSaIcE
   fun:_ZL16ParseCodeGenArgsRN5clang14CodeGenOptionsERN4llvm3opt7ArgListENS_9InputKindERNS_17DiagnosticsEngineERKNS_13TargetOptionsE.constprop.333
   fun:_ZN5clang18CompilerInvocation14CreateFromArgsERS0_PKPKcS5_RNS_17DiagnosticsEngineE
   fun:_ZN12_GLOBAL__N_1L12createCIImplESt10unique_ptrIN4llvm12MemoryBufferESt14default_deleteIS2_EEiPKPKcS7_b
   fun:_ZN5cling9CIFactory8createCIEN4llvm9StringRefEiPKPKcS4_
   fun:_ZN5cling17IncrementalParserC1EPNS_11InterpreterEiPKPKcS4_
   fun:_ZN5cling11InterpreterC1EiPKPKcS2_b
   fun:_ZN6TClingC1EPKcS1_
   fun:CreateInterpreter
}

{
   basf2 suppression 160
   Memcheck:Leak
   fun:_Znwm
   fun:_ZNSs4_Rep9_S_createEmmRKSaIcE
   fun:_ZNSs12_S_constructIPKcEEPcT_S3_RKSaIcESt20forward_iterator_tag.part.29
   fun:_ZNSsC1EPKcmRKSaIcE
   fun:_ZN5clang12Preprocessor22RegisterBuiltinPragmasEv
   fun:_ZN5clang12PreprocessorC1EN4llvm18IntrusiveRefCntPtrINS_19PreprocessorOptionsEEERNS_17DiagnosticsEngineERNS_11LangOptionsERNS_13SourceManagerERNS_12HeaderSearchERNS_12ModuleLoaderEPNS_20IdentifierInfoLookupEbNS_19TranslationUnitKindE
   fun:_ZN5clang16CompilerInstance18createPreprocessorENS_19TranslationUnitKindE
   fun:_ZN12_GLOBAL__N_1L12createCIImplESt10unique_ptrIN4llvm12MemoryBufferESt14default_deleteIS2_EEiPKPKcS7_b
   fun:_ZN5cling9CIFactory8createCIEN4llvm9StringRefEiPKPKcS4_
   fun:_ZN5cling17IncrementalParserC1EPNS_11InterpreterEiPKPKcS4_
   fun:_ZN5cling11InterpreterC1EiPKPKcS2_b
   fun:_ZN6TClingC1EPKcS1_
}

{
   basf2 suppression 161
   Memcheck:Leak
   fun:_Znwm
   fun:_ZNSs4_Rep9_S_createEmmRKSaIcE
   fun:_ZNSs12_S_constructIPKcEEPcT_S3_RKSaIcESt20forward_iterator_tag.part.29
   fun:_ZNSsC1EPKcmRKSaIcE
   fun:_ZN5clang12Preprocessor22RegisterBuiltinPragmasEv
   fun:_ZN5clang12PreprocessorC1EN4llvm18IntrusiveRefCntPtrINS_19PreprocessorOptionsEEERNS_17DiagnosticsEngineERNS_11LangOptionsERNS_13SourceManagerERNS_12HeaderSearchERNS_12ModuleLoaderEPNS_20IdentifierInfoLookupEbNS_19TranslationUnitKindE
   fun:_ZN5clang16CompilerInstance18createPreprocessorENS_19TranslationUnitKindE
   fun:_ZN12_GLOBAL__N_1L12createCIImplESt10unique_ptrIN4llvm12MemoryBufferESt14default_deleteIS2_EEiPKPKcS7_b
   fun:_ZN5cling9CIFactory8createCIEN4llvm9StringRefEiPKPKcS4_
   fun:_ZN5cling17IncrementalParserC1EPNS_11InterpreterEiPKPKcS4_
   fun:_ZN5cling11InterpreterC1EiPKPKcS2_b
   fun:_ZN6TClingC1EPKcS1_
}

{
   basf2 suppression 162
   Memcheck:Leak
   fun:_Znwm
   fun:_ZNSs4_Rep9_S_createEmmRKSaIcE
   fun:_ZNSs12_S_constructIPKcEEPcT_S3_RKSaIcESt20forward_iterator_tag.part.29
   fun:_ZNSsC1EPKcmRKSaIcE
   fun:_ZN5clang12Preprocessor22RegisterBuiltinPragmasEv
   fun:_ZN5clang12PreprocessorC1EN4llvm18IntrusiveRefCntPtrINS_19PreprocessorOptionsEEERNS_17DiagnosticsEngineERNS_11LangOptionsERNS_13SourceManagerERNS_12HeaderSearchERNS_12ModuleLoaderEPNS_20IdentifierInfoLookupEbNS_19TranslationUnitKindE
   fun:_ZN5clang16CompilerInstance18createPreprocessorENS_19TranslationUnitKindE
   fun:_ZN12_GLOBAL__N_1L12createCIImplESt10unique_ptrIN4llvm12MemoryBufferESt14default_deleteIS2_EEiPKPKcS7_b
   fun:_ZN5cling9CIFactory8createCIEN4llvm9StringRefEiPKPKcS4_
   fun:_ZN5cling17IncrementalParserC1EPNS_11InterpreterEiPKPKcS4_
   fun:_ZN5cling11InterpreterC1EiPKPKcS2_b
   fun:_ZN6TClingC1EPKcS1_
}

{
   basf2 suppression 163
   Memcheck:Leak
   fun:_Znwm
   fun:_ZNSs4_Rep9_S_createEmmRKSaIcE
   fun:_ZNSs12_S_constructIPKcEEPcT_S3_RKSaIcESt20forward_iterator_tag.part.29
   fun:_ZNSsC1EPKcmRKSaIcE
   fun:_ZN5clang6Parser24initializePragmaHandlersEv
   fun:_ZN5clang6ParserC1ERNS_12PreprocessorERNS_4SemaEbb
   fun:_ZN5cling17IncrementalParser10InitializeERN4llvm15SmallVectorImplINS1_14PointerIntPairIPNS_11TransactionELj2ENS0_12EParseResultENS1_21PointerLikeTypeTraitsIS5_EEEEEE
   fun:_ZN5cling11InterpreterC1EiPKPKcS2_b
   fun:_ZN6TClingC1EPKcS1_
   fun:CreateInterpreter
   fun:_ZN5TROOT15InitInterpreterEv
   fun:_ZN4ROOT8GetROOT2Ev
}

{
   basf2 suppression 164
   Memcheck:Leak
   fun:_Znam
   fun:_ZN7TString7ReplaceEiiPKci
   fun:_ZN9TFunctionC1EP12MethodInfo_t
   fun:_ZN7TMethodC1EP12MethodInfo_tP6TClass
   fun:_ZN16TListOfFunctions3GetEPKv
   fun:_ZNK6TClass8PropertyEv
   fun:_ZNK6TClass9IsForeignEv
   fun:_ZN6TClass13PostLoadCheckEv
   fun:_ZN6TClass16LoadClassDefaultEPKcb
   fun:_ZN6TClass9LoadClassEPKcb
   fun:_ZN6TClass8GetClassEP11ClassInfo_tbb
   fun:_ZN10TBaseClass15GetClassPointerEb
}

{
   basf2 suppression 165
   Memcheck:Leak
   fun:_Znwm
   fun:_ZN5TList7NewLinkEP7TObjectP8TObjLink.part.23.constprop.47
   fun:_ZN5TList7AddLastEP7TObject
   fun:_ZNK6TCling23CreateListOfBaseClassesEP6TClass
   fun:_ZN6TClass14GetListOfBasesEv
   fun:_ZN8TQObject23CollectClassSignalListsER5TListP6TClass
   fun:_ZN8TQObject4EmitEPKc
   fun:_ZN15TMessageHandler6NotifyEv
   fun:_ZN15TMessageHandler13HandleMessageEiPK7TObject
   fun:_ZN5TROOT7MessageEiPK7TObject
   fun:_ZNK7TObject7WarningEPKcS1_z
   fun:_ZN11TUnixSystem10SetDisplayEv
}

{
   basf2 suppression 166
   Memcheck:Leak
   fun:_Znwm
   fun:_ZN5TList7NewLinkEP7TObjectP8TObjLink
   fun:_ZN5TList7AddLastEP7TObject
   fun:_ZNK6TCling23CreateListOfBaseClassesEP6TClass
   fun:_ZN6TClass14GetListOfBasesEv
   fun:_ZN8TQObject23CollectClassSignalListsER5TListP6TClass
   fun:_ZN8TQObject4EmitEPKc
   fun:_ZN15TMessageHandler6NotifyEv
   fun:_ZN15TMessageHandler13HandleMessageEiPK7TObject
   fun:_ZN5TROOT7MessageEiPK7TObject
   fun:_ZNK7TObject7WarningEPKcS1_z
   fun:_ZN11TUnixSystem10SetDisplayEv
}

{
   basf2 suppression 167
   Memcheck:Leak
   fun:_Znwm
   fun:_ZN5TList7NewLinkEP7TObjectP8TObjLink.part.23.constprop.47
   fun:_ZN5TList7AddLastEP7TObject
   fun:_ZNK6TCling23CreateListOfBaseClassesEP6TClass
   fun:_ZN6TClass14GetListOfBasesEv
   fun:_ZN8TQObject23CollectClassSignalListsER5TListP6TClass
   fun:_ZN8TQObject4EmitEPKcl
   fun:_ZN8TGWindowC1EP8TGClientmPKS_
   fun:_ZN7TGFrameC1EP8TGClientmPK8TGWindow
   fun:_ZN8TGClientC1EPKc
   fun:_GLOBAL__sub_I_TGClient.cxx
   fun:_dl_init
}

{
   basf2 suppression 168
   Memcheck:Leak
   fun:_Znwm
   fun:_ZN5TList7NewLinkEP7TObjectP8TObjLink
   fun:_ZN5TList7AddLastEP7TObject
   fun:_ZNK6TCling23CreateListOfBaseClassesEP6TClass
   fun:_ZN6TClass14GetListOfBasesEv
   fun:_ZN8TQObject23CollectClassSignalListsER5TListP6TClass
   fun:_ZN8TQObject4EmitEPKcl
   fun:_ZN8TGWindowC1EP8TGClientmPKS_
   fun:_ZN7TGFrameC1EP8TGClientmPK8TGWindow
   fun:_ZN8TGClientC1EPKc
   fun:_GLOBAL__sub_I_TGClient.cxx
   fun:_dl_init
}

{
   basf2 suppression 169
   Memcheck:Leak
   fun:_Znwm
   fun:_ZN5TList7NewLinkEP7TObjectP8TObjLink
   fun:_ZN5TList7AddLastEP7TObject
   fun:_ZN10THashTable3AddEP7TObject
   fun:_ZN13TEnumConstantC1EP16DataMemberInfo_tPKcxP5TEnum
   fun:_ZNK6TCling19UpdateEnumConstantsEP5TEnumP6TClass
   fun:_ZNK6TCling10CreateEnumEPvP6TClass
   fun:_ZN12TListOfEnums3GetEPKvPKc
   fun:_ZNK6TCling9LoadEnumsER12TListOfEnums
   fun:_ZN12TListOfEnums4LoadEv
   fun:_ZN6TClass14GetListOfEnumsEb
   fun:_ZN6PyROOT16CreateScopeProxyERKSsP7_object
}

{
   basf2 suppression 170
   Memcheck:Leak
   fun:_Znam
   fun:_ZN7TString7ReplaceEiiPKci
   fun:_ZN6TNamed7SetNameEPKc
   fun:_ZN9TFunctionC1EP12MethodInfo_t
   fun:_ZN7TMethodC1EP12MethodInfo_tP6TClass
   fun:_ZN16TListOfFunctions3GetEPKv
   fun:_ZN16TListOfFunctions4LoadEv
   fun:_ZN6TClass16GetListOfMethodsEb
   fun:_ZN5Cppyy13GetNumMethodsEl
   fun:_ZN6PyROOT16CreateScopeProxyERKSsP7_object
   fun:_ZN6PyROOT16CreateScopeProxyEP7_objectS1_
   fun:PyCFunction_Call
}

{
   basf2 suppression 171
   Memcheck:Leak
   fun:_Znam
   fun:_ZN7TString7ReplaceEiiPKci
   fun:_ZN11TDataMember4InitEb
   fun:_ZN11TDataMemberC1EP16DataMemberInfo_tP6TClass
   fun:_ZN18TListOfDataMembers3GetEP16DataMemberInfo_tb
   fun:_ZN18TListOfDataMembers4LoadEv
   fun:_ZN6TClass20GetListOfDataMembersEb
   fun:_ZN5Cppyy17GetNumDatamembersEl
   fun:_ZN6PyROOT16CreateScopeProxyERKSsP7_object
   fun:_ZN6PyROOT16CreateScopeProxyEP7_objectS1_
   fun:PyCFunction_Call
   fun:PyEval_EvalFrameEx
}

{
   basf2 suppression 172
   Memcheck:Leak
   fun:_Znam
   fun:_ZN7TString7ReplaceEiiPKci
   fun:_ZN11TDataMember4InitEb
   fun:_ZN11TDataMemberC1EP16DataMemberInfo_tP6TClass
   fun:_ZN18TListOfDataMembers3GetEP16DataMemberInfo_tb
   fun:_ZN18TListOfDataMembers4LoadEv
   fun:_ZN6TClass20GetListOfDataMembersEb
   fun:_ZN5Cppyy17GetNumDatamembersEl
   fun:_ZN6PyROOT16CreateScopeProxyERKSsP7_object
   fun:_ZN6PyROOT16CreateScopeProxyEP7_objectS1_
   fun:PyCFunction_Call
   fun:PyEval_EvalFrameEx
}

{
   basf2 suppression 173
   Memcheck:Leak
   fun:_Znwm
   fun:_ZN5TList7NewLinkEP7TObjectP8TObjLink.part.23.constprop.47
   fun:_ZN5TList7AddLastEP7TObject
   fun:_ZN9THashList7AddLastEP7TObject
   fun:_ZN18TListOfDataMembers3GetEP16DataMemberInfo_tb
   fun:_ZN18TListOfDataMembers4LoadEv
   fun:_ZN6TClass20GetListOfDataMembersEb
   fun:_ZN5Cppyy17GetNumDatamembersEl
   fun:_ZN6PyROOT16CreateScopeProxyERKSsP7_object
   fun:_ZN6PyROOT16CreateScopeProxyEP7_objectS1_
   fun:PyCFunction_Call
   fun:PyEval_EvalFrameEx
}

{
   basf2 suppression 174
   Memcheck:Leak
   fun:_Znwm
   fun:_ZN8TStorage11ObjectAllocEm
   fun:_ZN18TListOfDataMembers3GetEP16DataMemberInfo_tb
   fun:_ZN18TListOfDataMembers4LoadEv
   fun:_ZN6TClass20GetListOfDataMembersEb
   fun:_ZN5Cppyy17GetNumDatamembersEl
   fun:_ZN6PyROOT16CreateScopeProxyERKSsP7_object
   fun:_ZN6PyROOT16CreateScopeProxyEP7_objectS1_
   fun:PyCFunction_Call
   fun:PyEval_EvalFrameEx
   fun:_PyEval_EvalCodeWithName
   fun:PyEval_EvalCodeEx
}

{
   basf2 suppression 175
   Memcheck:Leak
   fun:_Znam
   fun:_ZN7TString7ReplaceEiiPKci
   fun:_ZN11TDataMember4InitEb
   fun:_ZN11TDataMemberC1EP16DataMemberInfo_tP6TClass
   fun:_ZN18TListOfDataMembers3GetEP16DataMemberInfo_tb
   fun:_ZN18TListOfDataMembers4LoadEv
   fun:_ZN6TClass20GetListOfDataMembersEb
   fun:_ZN5Cppyy17GetNumDatamembersEl
   fun:_ZN6PyROOT16CreateScopeProxyERKSsP7_object
   fun:_ZN6PyROOT16CreateScopeProxyEP7_objectS1_
   fun:PyCFunction_Call
   fun:PyEval_EvalFrameEx
}

{
   basf2 suppression 176
   Memcheck:Leak
   fun:_Znwm
   fun:_ZN5TList7NewLinkEP7TObjectP8TObjLink
   fun:_ZN5TList7AddLastEP7TObject
   fun:_ZN9THashList7AddLastEP7TObject
   fun:_ZN18TListOfDataMembers3GetEP16DataMemberInfo_tb
   fun:_ZN18TListOfDataMembers4LoadEv
   fun:_ZN6TClass20GetListOfDataMembersEb
   fun:_ZN5Cppyy17GetNumDatamembersEl
   fun:_ZN6PyROOT16CreateScopeProxyERKSsP7_object
   fun:_ZN6PyROOT16CreateScopeProxyEP7_objectS1_
   fun:PyCFunction_Call
   fun:PyEval_EvalFrameEx
}

{
   basf2 suppression 177
   Memcheck:Leak
   fun:_Znwm
   fun:_ZN5TList7NewLinkEP7TObjectP8TObjLink.part.23.constprop.47
   fun:_ZN5TList7AddLastEP7TObject
   fun:_ZN9THashList7AddLastEP7TObject
   fun:_ZN16TListOfFunctions3GetEPKv
   fun:_ZNK6TClass8PropertyEv
   fun:_ZNK6TClass9IsForeignEv
   fun:_ZN6TClass13PostLoadCheckEv
   fun:_ZN6TClass8GetClassEPKcbb
   fun:_ZN5Cppyy8GetScopeERKSs
   fun:_ZN6PyROOT16CreateScopeProxyERKSsP7_object
   fun:_ZN6PyROOT16CreateScopeProxyEP7_objectS1_
}

{
   basf2 suppression 178
   Memcheck:Leak
   fun:_Znwm
   fun:_ZN5TList7NewLinkEP7TObjectP8TObjLink.part.23.constprop.47
   fun:_ZN5TList7AddLastEP7TObject
   fun:_ZN10THashTable3AddEP7TObject
   fun:_ZN16TListOfFunctions3GetEPKv
   fun:_ZNK6TClass8PropertyEv
   fun:_ZNK6TClass9IsForeignEv
   fun:_ZN6TClass13PostLoadCheckEv
   fun:_ZN6TClass8GetClassEPKcbb
   fun:_ZN5Cppyy8GetScopeERKSs
   fun:_ZN6PyROOT16CreateScopeProxyERKSsP7_object
   fun:_ZN6PyROOT16CreateScopeProxyEP7_objectS1_
}

{
   basf2 suppression 179
   Memcheck:Leak
   fun:_Znwm
   fun:_ZN8TStorage11ObjectAllocEm
   fun:_ZN12TListOfEnumsC1EP6TClass
   fun:_ZN6TClass14GetListOfEnumsEb
   fun:_ZN6PyROOT16CreateScopeProxyERKSsP7_object
   fun:_ZN6PyROOT16CreateScopeProxyERKSsP7_object
   fun:_ZN6PyROOT16CreateScopeProxyEP7_objectS1_
   fun:PyCFunction_Call
   fun:PyEval_EvalFrameEx
   fun:_PyEval_EvalCodeWithName
   fun:PyEval_EvalCodeEx
   fun:function_call
}

{
   basf2 suppression 180
   Memcheck:Leak
   fun:_Znwm
   fun:_ZN8TStorage11ObjectAllocEm
   fun:_ZN16TListOfFunctionsC1EP6TClass
   fun:_ZN6TClass13GetMethodListEv
   fun:_ZN6TClass27GetClassMethodWithPrototypeEPKcS1_bN4ROOT18EFunctionMatchModeE
   fun:_ZNK6TClass8PropertyEv
   fun:_ZNK6TClass9IsForeignEv
   fun:_ZN6TClass13PostLoadCheckEv
   fun:_ZN6TClass8GetClassEPKcbb
   fun:_ZN5Cppyy8GetScopeERKSs
   fun:_ZN6PyROOT16CreateScopeProxyERKSsP7_object
   fun:_ZN6PyROOT16CreateScopeProxyERKSsP7_object
}

{
   basf2 suppression 181
   Memcheck:Leak
   fun:_Znwm
   fun:_ZN5TList7NewLinkEP7TObjectP8TObjLink.part.23.constprop.47
   fun:_ZN5TList7AddLastEP7TObject
   fun:_ZN9THashList7AddLastEP7TObject
   fun:_ZN16TListOfFunctions3GetEPKv
   fun:_ZNK6TClass8PropertyEv
   fun:_ZNK6TClass9IsForeignEv
   fun:_ZN6TClass13PostLoadCheckEv
   fun:_ZN6TClass8GetClassEPKcbb
   fun:_ZN5Cppyy8GetScopeERKSs
   fun:_ZN6PyROOT16CreateScopeProxyERKSsP7_object
   fun:_ZN6PyROOT16CreateScopeProxyERKSsP7_object
}

{
   basf2 suppression 182
   Memcheck:Leak
   fun:_Znwm
   fun:_ZN5TList7NewLinkEP7TObjectP8TObjLink.part.23.constprop.47
   fun:_ZN5TList7AddLastEP7TObject
   fun:_ZN10THashTable3AddEP7TObject
   fun:_ZN16TListOfFunctions3GetEPKv
   fun:_ZNK6TClass8PropertyEv
   fun:_ZNK6TClass9IsForeignEv
   fun:_ZN6TClass13PostLoadCheckEv
   fun:_ZN6TClass8GetClassEPKcbb
   fun:_ZN5Cppyy8GetScopeERKSs
   fun:_ZN6PyROOT16CreateScopeProxyERKSsP7_object
   fun:_ZN6PyROOT16CreateScopeProxyERKSsP7_object
}

{
   basf2 suppression 183
   Memcheck:Leak
   fun:_Znwm
   fun:_ZN8TStorage11ObjectAllocEm
   fun:_ZN12TListOfEnumsC1EP6TClass
   fun:_ZN6TClass14GetListOfEnumsEb
   fun:_ZN6PyROOT16CreateScopeProxyERKSsP7_object
   fun:_ZN6PyROOT16CreateScopeProxyEP7_objectS1_
   fun:PyCFunction_Call
   fun:PyEval_EvalFrameEx
   fun:_PyEval_EvalCodeWithName
   fun:PyEval_EvalCodeEx
   fun:function_call
   fun:PyObject_Call
}

{
   basf2 suppression 184
   Memcheck:Leak
   fun:_Znam
   fun:_ZN7TString7ReplaceEiiPKci
   fun:_ZN6TNamed8SetTitleEPKc
   fun:_ZN11TDataMember4InitEb
   fun:_ZN11TDataMemberC1EP16DataMemberInfo_tP6TClass
   fun:_ZN18TListOfDataMembers3GetEP16DataMemberInfo_tb
   fun:_ZN18TListOfDataMembers4LoadEv
   fun:_ZN6TClass20GetListOfDataMembersEb
   fun:_ZN5Cppyy17GetNumDatamembersEl
   fun:_ZN6PyROOT16CreateScopeProxyERKSsP7_object
   fun:_ZN6PyROOT16CreateScopeProxyEP7_objectS1_
   fun:PyCFunction_Call
}

{
   basf2 suppression 185
   Memcheck:Leak
   fun:_Znwm
   fun:_ZN5TList7NewLinkEP7TObjectP8TObjLink.part.23.constprop.47
   fun:_ZN5TList7AddLastEP7TObject
   fun:_ZN11TDataMember4InitEb
   fun:_ZN11TDataMemberC1EP16DataMemberInfo_tP6TClass
   fun:_ZN18TListOfDataMembers3GetEP16DataMemberInfo_tb
   fun:_ZN18TListOfDataMembers4LoadEv
   fun:_ZN6TClass20GetListOfDataMembersEb
   fun:_ZN5Cppyy17GetNumDatamembersEl
   fun:_ZN6PyROOT16CreateScopeProxyERKSsP7_object
   fun:_ZN6PyROOT16CreateScopeProxyEP7_objectS1_
   fun:PyCFunction_Call
}

{
   basf2 suppression 186
   Memcheck:Leak
   fun:_Znwm
   fun:_ZN5TList7NewLinkEP7TObjectP8TObjLink
   fun:_ZN5TList7AddLastEP7TObject
   fun:_ZN11TDataMember4InitEb
   fun:_ZN11TDataMemberC1EP16DataMemberInfo_tP6TClass
   fun:_ZN18TListOfDataMembers3GetEP16DataMemberInfo_tb
   fun:_ZN18TListOfDataMembers4LoadEv
   fun:_ZN6TClass20GetListOfDataMembersEb
   fun:_ZN5Cppyy17GetNumDatamembersEl
   fun:_ZN6PyROOT16CreateScopeProxyERKSsP7_object
   fun:_ZN6PyROOT16CreateScopeProxyEP7_objectS1_
   fun:PyCFunction_Call
}

{
   basf2 suppression 187
   Memcheck:Leak
   fun:_Znam
   fun:_ZN7TString4InitEii
   fun:_ZN7TStringC1EPKc
   fun:_ZN6TClassC1EPKcsRKSt9type_infoP16TVirtualIsAProxyS1_S1_iib
   fun:_ZNK4ROOT20TQObjectInitBehavior11CreateClassEPKcsRKSt9type_infoP16TVirtualIsAProxyS2_S2_ii
   fun:_ZN4ROOT17TGenericClassInfo8GetClassEv
   fun:_ZN6PyROOT18TPyROOTApplication10DictionaryEv
   fun:_ZN6TClass8GetClassEPKcbb
   fun:_ZN5Cppyy8GetScopeERKSs
   fun:_ZN6PyROOT16CreateScopeProxyERKSsP7_object
   fun:_ZN6PyROOT16CreateScopeProxyEP7_objectS1_
   fun:PyCFunction_Call
}

{
   basf2 suppression 188
   Memcheck:Leak
   fun:_Znwm
   fun:_ZN8TStorage11ObjectAllocEm
   fun:_ZN12TListOfEnumsC1EP6TClass
   fun:_ZN6TClass14GetListOfEnumsEb
   fun:_ZN6PyROOT16CreateScopeProxyERKSsP7_object
   fun:_ZN6PyROOT16CreateScopeProxyERKSsP7_object
   fun:_ZN6PyROOT16CreateScopeProxyEP7_objectS1_
   fun:PyCFunction_Call
   fun:PyEval_EvalFrameEx
   fun:_PyEval_EvalCodeWithName
   fun:PyEval_EvalFrameEx
   fun:_PyEval_EvalCodeWithName
}

{
   basf2 suppression 189
   Memcheck:Leak
   fun:_Znwm
   fun:_ZN5TList7NewLinkEP7TObjectP8TObjLink.part.23.constprop.47
   fun:_ZN5TList7AddLastEP7TObject
   fun:_ZN9THashList7AddLastEP7TObject
   fun:_ZN12TListOfEnums3GetEPKvPKc
   fun:_ZNK6TCling9LoadEnumsER12TListOfEnums
   fun:_ZN12TListOfEnums4LoadEv
   fun:_ZN6TClass14GetListOfEnumsEb
   fun:_ZN6PyROOT16CreateScopeProxyERKSsP7_object
   fun:_ZN6PyROOT16CreateScopeProxyERKSsP7_object
   fun:_ZN6PyROOT16CreateScopeProxyEP7_objectS1_
   fun:PyCFunction_Call
}

{
   basf2 suppression 190
   Memcheck:Leak
   fun:_Znam
   fun:_ZN7TString7ReplaceEiiPKci
   fun:_ZN6TNamed7SetNameEPKc
   fun:_ZN5TEnumC1EPKcPvP6TClass
   fun:_ZNK6TCling10CreateEnumEPvP6TClass
   fun:_ZN12TListOfEnums3GetEPKvPKc
   fun:_ZNK6TCling9LoadEnumsER12TListOfEnums
   fun:_ZN12TListOfEnums4LoadEv
   fun:_ZN6TClass14GetListOfEnumsEb
   fun:_ZN6PyROOT16CreateScopeProxyERKSsP7_object
   fun:_ZN6PyROOT16CreateScopeProxyERKSsP7_object
   fun:_ZN6PyROOT16CreateScopeProxyEP7_objectS1_
}

{
   basf2 suppression 191
   Memcheck:Leak
   fun:_Znwm
   fun:_ZN8TStorage11ObjectAllocEm
   fun:_ZN12TListOfEnumsC1EP6TClass
   fun:_ZN6TClass14GetListOfEnumsEb
   fun:_ZN6PyROOT16CreateScopeProxyERKSsP7_object
   fun:_ZN6PyROOT16CreateScopeProxyEP7_objectS1_
   fun:PyCFunction_Call
   fun:PyEval_EvalFrameEx
   fun:_PyEval_EvalCodeWithName
   fun:PyEval_EvalFrameEx
   fun:_PyEval_EvalCodeWithName
   fun:PyEval_EvalCodeEx
}

{
   basf2 suppression 192
   Memcheck:Leak
   fun:_Znwm
   fun:_ZN8TStorage11ObjectAllocEm
   fun:_ZN18TListOfDataMembers3GetEP16DataMemberInfo_tb
   fun:_ZN18TListOfDataMembers4LoadEv
   fun:_ZN6TClass20GetListOfDataMembersEb
   fun:_ZN5Cppyy17GetNumDatamembersEl
   fun:_ZN6PyROOT16CreateScopeProxyERKSsP7_object
   fun:_ZN6PyROOT16CreateScopeProxyEP7_objectS1_
   fun:PyCFunction_Call
   fun:PyEval_EvalFrameEx
   fun:_PyEval_EvalCodeWithName
   fun:PyEval_EvalFrameEx
}

{
   basf2 suppression 193
   Memcheck:Leak
   fun:_Znwm
   fun:_ZNSs4_Rep9_S_createEmmRKSaIcE
   fun:_ZNSs12_S_constructIPKcEEPcT_S3_RKSaIcESt20forward_iterator_tag.part.29
   fun:_ZNSsC1EPKcRKSaIcE
   fun:_GLOBAL__sub_I_G4RegisterPhysLists.cc
   fun:_dl_init
   fun:dl_open_worker
   fun:_dl_catch_error
   fun:_dl_open
   fun:dlopen_doit
   fun:_dl_catch_error
   fun:_dlerror_run
}

{
   basf2 suppression 194
   Memcheck:Leak
   fun:_Znwm
   fun:_ZNSs4_Rep9_S_createEmmRKSaIcE
   fun:_ZNSs12_S_constructIPKcEEPcT_S3_RKSaIcESt20forward_iterator_tag.part.29
   fun:_ZNSsC1EPKcRKSaIcE
   fun:_GLOBAL__sub_I_G4RegisterPhysLists.cc
   fun:_dl_init
   fun:dl_open_worker
   fun:_dl_catch_error
   fun:_dl_open
   fun:dlopen_doit
   fun:_dl_catch_error
   fun:_dlerror_run
}

{
   basf2 suppression 195
   Memcheck:Leak
   fun:_Znwm
   fun:_ZNSs4_Rep9_S_createEmmRKSaIcE
   fun:_ZNSs12_S_constructIPKcEEPcT_S3_RKSaIcESt20forward_iterator_tag.part.29
   fun:_ZNSsC1EPKcRKSaIcE
   fun:_ZN4TMVA9MsgLogger8InitMapsEv
   fun:_ZN4TMVA9MsgLoggerC1ERKSsNS_8EMsgTypeE
   fun:_ZN4TMVA5TypesC1Ev
   fun:_ZN4TMVA5Types8InstanceEv
   fun:_GLOBAL__sub_I_MethodBDT.cxx
   fun:_dl_init
   fun:dl_open_worker
   fun:_dl_catch_error
}

{
   basf2 suppression 196
   Memcheck:Leak
   fun:_Znwm
   fun:_ZNSs4_Rep9_S_createEmmRKSaIcE
   fun:_ZNSs12_S_constructIPKcEEPcT_S3_RKSaIcESt20forward_iterator_tag.part.29
   fun:_ZNSsC1EPKcRKSaIcE
   fun:_ZN4TMVA9MsgLogger8InitMapsEv
   fun:_ZN4TMVA9MsgLoggerC1ERKSsNS_8EMsgTypeE
   fun:_ZN4TMVA5TypesC1Ev
   fun:_ZN4TMVA5Types8InstanceEv
   fun:_GLOBAL__sub_I_MethodBDT.cxx
   fun:_dl_init
   fun:dl_open_worker
   fun:_dl_catch_error
}

{
   basf2 suppression 197
   Memcheck:Leak
   fun:_Znwm
   fun:_ZNSs4_Rep9_S_createEmmRKSaIcE
   fun:_ZNSs12_S_constructIPKcEEPcT_S3_RKSaIcESt20forward_iterator_tag.part.29
   fun:_ZNSsC1EPKcRKSaIcE
   fun:_ZN4TMVA9MsgLogger8InitMapsEv
   fun:_ZN4TMVA9MsgLoggerC1ERKSsNS_8EMsgTypeE
   fun:_ZN4TMVA5TypesC1Ev
   fun:_ZN4TMVA5Types8InstanceEv
   fun:_GLOBAL__sub_I_MethodBDT.cxx
   fun:_dl_init
   fun:dl_open_worker
   fun:_dl_catch_error
}

{
   basf2 suppression 198
   Memcheck:Leak
   fun:_Znwm
   fun:_ZNSs4_Rep9_S_createEmmRKSaIcE
   fun:_ZNSs12_S_constructIPKcEEPcT_S3_RKSaIcESt20forward_iterator_tag.part.29
   fun:_ZNSsC1EPKcRKSaIcE
   fun:_GLOBAL__sub_I_MethodHMatrix.cxx
   fun:_dl_init
   fun:dl_open_worker
   fun:_dl_catch_error
   fun:_dl_open
   fun:dlopen_doit
   fun:_dl_catch_error
   fun:_dlerror_run
}

{
   basf2 suppression 199
   Memcheck:Leak
   fun:_Znwm
   fun:_ZNSs4_Rep9_S_createEmmRKSaIcE
   fun:_ZNSs12_S_constructIPKcEEPcT_S3_RKSaIcESt20forward_iterator_tag.part.29
   fun:_ZNSsC1EPKcRKSaIcE
   fun:_GLOBAL__sub_I_MethodPDEFoam.cxx
   fun:_dl_init
   fun:dl_open_worker
   fun:_dl_catch_error
   fun:_dl_open
   fun:dlopen_doit
   fun:_dl_catch_error
   fun:_dlerror_run
}

{
   basf2 suppression 200
   Memcheck:Leak
   fun:_Znwm
   fun:_ZNSs4_Rep9_S_createEmmRKSaIcE
   fun:_ZNSs12_S_constructIPKcEEPcT_S3_RKSaIcESt20forward_iterator_tag.part.29
   fun:_ZNSsC1EPKcRKSaIcE
   fun:_GLOBAL__sub_I_MethodPlugins.cxx
   fun:_dl_init
   fun:dl_open_worker
   fun:_dl_catch_error
   fun:_dl_open
   fun:dlopen_doit
   fun:_dl_catch_error
   fun:_dlerror_run
}

{
   basf2 suppression 201
   Memcheck:Leak
   fun:_Znwm
   fun:_ZNSs4_Rep9_S_createEmmRKSaIcE
   fun:_ZNSs12_S_constructIPKcEEPcT_S3_RKSaIcESt20forward_iterator_tag.part.29
   fun:_ZNSsC1EPKcRKSaIcE
   fun:_GLOBAL__sub_I_MethodRuleFit.cxx
   fun:_dl_init
   fun:dl_open_worker
   fun:_dl_catch_error
   fun:_dl_open
   fun:dlopen_doit
   fun:_dl_catch_error
   fun:_dlerror_run
}

{
   basf2 suppression 202
   Memcheck:Leak
   fun:_Znwm
   fun:_ZNSs4_Rep9_S_createEmmRKSaIcE
   fun:_ZNSs12_S_constructIPKcEEPcT_S3_RKSaIcESt20forward_iterator_tag.part.29
   fun:_ZNSsC1EPKcRKSaIcE
   fun:_GLOBAL__sub_I_MethodTMlpANN.cxx
   fun:_dl_init
   fun:dl_open_worker
   fun:_dl_catch_error
   fun:_dl_open
   fun:dlopen_doit
   fun:_dl_catch_error
   fun:_dlerror_run
}

{
   basf2 suppression 203
   Memcheck:Leak
   fun:_Znwm
   fun:_ZNSs4_Rep9_S_createEmmRKSaIcE
   fun:_ZNSs12_S_constructIPKcEEPcT_S3_RKSaIcESt20forward_iterator_tag.part.29
   fun:_ZNSsC1EPKcRKSaIcE
   fun:_ZN11G4UnboundPNC1Ev
   fun:_ZN11G4UnboundPN10DefinitionEv
   fun:_ZNK13G4NucleiModel21generateQuasiDeuteronEiii
   fun:_ZN13G4NucleiModel27generateInteractionPartnersER16G4CascadParticle
   fun:_ZN13G4NucleiModel20generateParticleFateER16G4CascadParticleP28G4ElementaryParticleColliderRSt6vectorIS0_SaIS0_EE
   fun:_ZN21G4IntraNucleiCascader15generateCascadeEv
   fun:_ZN21G4IntraNucleiCascader7collideEP15G4InuclParticleS1_R17G4CollisionOutput
   fun:_ZN15G4InuclCollider7collideEP15G4InuclParticleS1_R17G4CollisionOutput
}

{
   basf2 suppression 204
   Memcheck:Leak
   fun:_Znwm
   fun:_ZNSs4_Rep9_S_createEmmRKSaIcE
   fun:_ZNSs12_S_constructIPKcEEPcT_S3_RKSaIcESt20forward_iterator_tag.part.29
   fun:_ZNSsC1EPKcRKSaIcE
   fun:_ZN10G4DiprotonC1Ev
   fun:_ZN10G4Diproton10DefinitionEv
   fun:_ZN25G4InuclElementaryParticle4typeEPK20G4ParticleDefinition
   fun:_ZN13G4NucleiModel19inverseMeanFreePathERK16G4CascadParticleRK25G4InuclElementaryParticlei
   fun:_ZN13G4NucleiModel27generateInteractionPartnersER16G4CascadParticle
   fun:_ZN13G4NucleiModel20generateParticleFateER16G4CascadParticleP28G4ElementaryParticleColliderRSt6vectorIS0_SaIS0_EE
   fun:_ZN21G4IntraNucleiCascader15generateCascadeEv
   fun:_ZN21G4IntraNucleiCascader7collideEP15G4InuclParticleS1_R17G4CollisionOutput
}

{
   basf2 suppression 205
   Memcheck:Leak
   fun:_Znwm
   fun:_ZNSs4_Rep9_S_createEmmRKSaIcE
   fun:_ZNSs12_S_constructIPKcEEPcT_S3_RKSaIcESt20forward_iterator_tag.part.29
   fun:_ZNSsC1EPKcRKSaIcE
   fun:_ZN11G4DineutronC1Ev
   fun:_ZN11G4Dineutron10DefinitionEv
   fun:_ZNK13G4NucleiModel21generateQuasiDeuteronEiii
   fun:_ZN13G4NucleiModel27generateInteractionPartnersER16G4CascadParticle
   fun:_ZN13G4NucleiModel20generateParticleFateER16G4CascadParticleP28G4ElementaryParticleColliderRSt6vectorIS0_SaIS0_EE
   fun:_ZN21G4IntraNucleiCascader15generateCascadeEv
   fun:_ZN21G4IntraNucleiCascader7collideEP15G4InuclParticleS1_R17G4CollisionOutput
   fun:_ZN15G4InuclCollider7collideEP15G4InuclParticleS1_R17G4CollisionOutput
}

{
   basf2 suppression 206
   Memcheck:Leak
   fun:_Znwm
   fun:_ZNSs4_Rep9_S_createEmmRKSaIcE
   fun:_ZNSs12_S_constructIPKcEEPcT_S3_RKSaIcESt20forward_iterator_tag.part.29
   fun:_ZNSsC1EPKcRKSaIcE
   fun:_ZN13G4BaryonWidthC1Ev
   fun:_ZN32G4ConcreteMesonBaryonToResonance14theBaryonWidthEv
   fun:_ZN32G4ConcreteMesonBaryonToResonanceC1EPK20G4ParticleDefinitionS2_S2_RK8G4String
   fun:_ZN33G4CollisionMesonBaryonToResonanceC1Ev
   fun:_ZN22G4CollisionMesonBaryonC1Ev
   fun:_ZN11G4ScattererC1Ev
   fun:_ZN15G4BinaryCascadeC1EP19G4VPreCompoundModel
   fun:_ZN24G4BinaryLightIonReactionC1EP19G4VPreCompoundModel
}

{
   basf2 suppression 207
   Memcheck:Leak
   fun:_Znwm
   fun:_ZNSs4_Rep9_S_createEmmRKSaIcE
   fun:_ZNSs12_S_constructIPKcEEPcT_S3_RKSaIcESt20forward_iterator_tag.part.29
   fun:_ZNSsC1EPKcRKSaIcE
   fun:_ZN13G4BaryonWidthC1Ev
   fun:_ZN32G4ConcreteMesonBaryonToResonance14theBaryonWidthEv
   fun:_ZN32G4ConcreteMesonBaryonToResonanceC1EPK20G4ParticleDefinitionS2_S2_RK8G4String
   fun:_ZN33G4CollisionMesonBaryonToResonanceC1Ev
   fun:_ZN22G4CollisionMesonBaryonC1Ev
   fun:_ZN11G4ScattererC1Ev
   fun:_ZN15G4BinaryCascadeC1EP19G4VPreCompoundModel
   fun:_ZN24G4BinaryLightIonReactionC1EP19G4VPreCompoundModel
}

{
   basf2 suppression 208
   Memcheck:Leak
   fun:_Znwm
   fun:_ZNSs4_Rep9_S_createEmmRKSaIcE
   fun:_ZNSs12_S_constructIPKcEEPcT_S3_RKSaIcESt20forward_iterator_tag.part.29
   fun:_ZNSsC1EPKcRKSaIcE
   fun:_ZN13G4BaryonWidthC1Ev
   fun:_ZN32G4ConcreteMesonBaryonToResonance14theBaryonWidthEv
   fun:_ZN32G4ConcreteMesonBaryonToResonanceC1EPK20G4ParticleDefinitionS2_S2_RK8G4String
   fun:_ZN33G4CollisionMesonBaryonToResonanceC1Ev
   fun:_ZN22G4CollisionMesonBaryonC1Ev
   fun:_ZN11G4ScattererC1Ev
   fun:_ZN15G4BinaryCascadeC1EP19G4VPreCompoundModel
   fun:_ZN24G4BinaryLightIonReactionC1EP19G4VPreCompoundModel
}

{
   basf2 suppression 209
   Memcheck:Leak
   fun:_Znwm
   fun:_ZNSs4_Rep9_S_createEmmRKSaIcE
   fun:_ZNSs12_S_constructIPKcEEPcT_S3_RKSaIcESt20forward_iterator_tag.part.29
   fun:_ZNSsC1EPKcRKSaIcE
   fun:_ZN13G4BaryonWidthC1Ev
   fun:_ZN32G4ConcreteMesonBaryonToResonance14theBaryonWidthEv
   fun:_ZN32G4ConcreteMesonBaryonToResonanceC1EPK20G4ParticleDefinitionS2_S2_RK8G4String
   fun:_ZN33G4CollisionMesonBaryonToResonanceC1Ev
   fun:_ZN22G4CollisionMesonBaryonC1Ev
   fun:_ZN11G4ScattererC1Ev
   fun:_ZN15G4BinaryCascadeC1EP19G4VPreCompoundModel
   fun:_ZN24G4BinaryLightIonReactionC1EP19G4VPreCompoundModel
}

{
   basf2 suppression 210
   Memcheck:Leak
   fun:_Znwm
   fun:_ZNSs4_Rep9_S_createEmmRKSaIcE
   fun:_ZNSs12_S_constructIPKcEEPcT_S3_RKSaIcESt20forward_iterator_tag.part.29
   fun:_ZNSsC1EPKcRKSaIcE
   fun:_ZN13G4BaryonWidthC1Ev
   fun:_ZN32G4ConcreteMesonBaryonToResonance14theBaryonWidthEv
   fun:_ZN32G4ConcreteMesonBaryonToResonanceC1EPK20G4ParticleDefinitionS2_S2_RK8G4String
   fun:_ZN33G4CollisionMesonBaryonToResonanceC1Ev
   fun:_ZN22G4CollisionMesonBaryonC1Ev
   fun:_ZN11G4ScattererC1Ev
   fun:_ZN15G4BinaryCascadeC1EP19G4VPreCompoundModel
   fun:_ZN24G4BinaryLightIonReactionC1EP19G4VPreCompoundModel
}

{
   basf2 suppression 211
   Memcheck:Leak
   fun:_Znwm
   fun:_ZNSs4_Rep9_S_createEmmRKSaIcE
   fun:_ZNSs12_S_constructIPKcEEPcT_S3_RKSaIcESt20forward_iterator_tag.part.29
   fun:_ZNSsC1EPKcRKSaIcE
   fun:_ZN13G4BaryonWidthC1Ev
   fun:_ZN32G4ConcreteMesonBaryonToResonance14theBaryonWidthEv
   fun:_ZN32G4ConcreteMesonBaryonToResonanceC1EPK20G4ParticleDefinitionS2_S2_RK8G4String
   fun:_ZN33G4CollisionMesonBaryonToResonanceC1Ev
   fun:_ZN22G4CollisionMesonBaryonC1Ev
   fun:_ZN11G4ScattererC1Ev
   fun:_ZN15G4BinaryCascadeC1EP19G4VPreCompoundModel
   fun:_ZN24G4BinaryLightIonReactionC1EP19G4VPreCompoundModel
}

{
   basf2 suppression 212
   Memcheck:Leak
   fun:_Znwm
   fun:_ZNSs4_Rep9_S_createEmmRKSaIcE
   fun:_ZNSs12_S_constructIPKcEEPcT_S3_RKSaIcESt20forward_iterator_tag.part.29
   fun:_ZNSsC1EPKcRKSaIcE
   fun:_ZN13G4BaryonWidthC1Ev
   fun:_ZN32G4ConcreteMesonBaryonToResonance14theBaryonWidthEv
   fun:_ZN32G4ConcreteMesonBaryonToResonanceC1EPK20G4ParticleDefinitionS2_S2_RK8G4String
   fun:_ZN33G4CollisionMesonBaryonToResonanceC1Ev
   fun:_ZN22G4CollisionMesonBaryonC1Ev
   fun:_ZN11G4ScattererC1Ev
   fun:_ZN15G4BinaryCascadeC1EP19G4VPreCompoundModel
   fun:_ZN24G4BinaryLightIonReactionC1EP19G4VPreCompoundModel
}

{
   basf2 suppression 213
   Memcheck:Leak
   fun:_Znwm
   fun:_ZNSs4_Rep9_S_createEmmRKSaIcE
   fun:_ZNSs12_S_constructIPKcEEPcT_S3_RKSaIcESt20forward_iterator_tag.part.29
   fun:_ZNSsC1EPKcRKSaIcE
   fun:_ZN13G4BaryonWidthC1Ev
   fun:_ZN32G4ConcreteMesonBaryonToResonance14theBaryonWidthEv
   fun:_ZN32G4ConcreteMesonBaryonToResonanceC1EPK20G4ParticleDefinitionS2_S2_RK8G4String
   fun:_ZN33G4CollisionMesonBaryonToResonanceC1Ev
   fun:_ZN22G4CollisionMesonBaryonC1Ev
   fun:_ZN11G4ScattererC1Ev
   fun:_ZN15G4BinaryCascadeC1EP19G4VPreCompoundModel
   fun:_ZN24G4BinaryLightIonReactionC1EP19G4VPreCompoundModel
}

{
   basf2 suppression 214
   Memcheck:Leak
   fun:_Znwm
   fun:_ZNSs4_Rep9_S_createEmmRKSaIcE
   fun:_ZNSs12_S_constructIPKcEEPcT_S3_RKSaIcESt20forward_iterator_tag.part.29
   fun:_ZNSsC1EPKcRKSaIcE
   fun:_ZN13G4BaryonWidthC1Ev
   fun:_ZN32G4ConcreteMesonBaryonToResonance14theBaryonWidthEv
   fun:_ZN32G4ConcreteMesonBaryonToResonanceC1EPK20G4ParticleDefinitionS2_S2_RK8G4String
   fun:_ZN33G4CollisionMesonBaryonToResonanceC1Ev
   fun:_ZN22G4CollisionMesonBaryonC1Ev
   fun:_ZN11G4ScattererC1Ev
   fun:_ZN15G4BinaryCascadeC1EP19G4VPreCompoundModel
   fun:_ZN24G4BinaryLightIonReactionC1EP19G4VPreCompoundModel
}

{
   basf2 suppression 215
   Memcheck:Leak
   fun:_Znwm
   fun:_ZNSs4_Rep9_S_createEmmRKSaIcE
   fun:_ZNSs12_S_constructIPKcEEPcT_S3_RKSaIcESt20forward_iterator_tag.part.29
   fun:_ZNSsC1EPKcRKSaIcE
   fun:_ZN13G4BaryonWidthC1Ev
   fun:_ZN32G4ConcreteMesonBaryonToResonance14theBaryonWidthEv
   fun:_ZN32G4ConcreteMesonBaryonToResonanceC1EPK20G4ParticleDefinitionS2_S2_RK8G4String
   fun:_ZN33G4CollisionMesonBaryonToResonanceC1Ev
   fun:_ZN22G4CollisionMesonBaryonC1Ev
   fun:_ZN11G4ScattererC1Ev
   fun:_ZN15G4BinaryCascadeC1EP19G4VPreCompoundModel
   fun:_ZN24G4BinaryLightIonReactionC1EP19G4VPreCompoundModel
}

{
   basf2 suppression 216
   Memcheck:Leak
   fun:_Znwm
   fun:_ZNSs4_Rep9_S_createEmmRKSaIcE
   fun:_ZNSs12_S_constructIPKcEEPcT_S3_RKSaIcESt20forward_iterator_tag.part.29
   fun:_ZNSsC1EPKcRKSaIcE
   fun:_ZN13G4BaryonWidthC1Ev
   fun:_ZN32G4ConcreteMesonBaryonToResonance14theBaryonWidthEv
   fun:_ZN32G4ConcreteMesonBaryonToResonanceC1EPK20G4ParticleDefinitionS2_S2_RK8G4String
   fun:_ZN33G4CollisionMesonBaryonToResonanceC1Ev
   fun:_ZN22G4CollisionMesonBaryonC1Ev
   fun:_ZN11G4ScattererC1Ev
   fun:_ZN15G4BinaryCascadeC1EP19G4VPreCompoundModel
   fun:_ZN24G4BinaryLightIonReactionC1EP19G4VPreCompoundModel
}

{
   basf2 suppression 217
   Memcheck:Leak
   fun:_Znwm
   fun:_ZNSs4_Rep9_S_createEmmRKSaIcE
   fun:_ZNSs12_S_constructIPKcEEPcT_S3_RKSaIcESt20forward_iterator_tag.part.29
   fun:_ZNSsC1EPKcRKSaIcE
   fun:_ZN13G4BaryonWidthC1Ev
   fun:_ZN32G4ConcreteMesonBaryonToResonance14theBaryonWidthEv
   fun:_ZN32G4ConcreteMesonBaryonToResonanceC1EPK20G4ParticleDefinitionS2_S2_RK8G4String
   fun:_ZN33G4CollisionMesonBaryonToResonanceC1Ev
   fun:_ZN22G4CollisionMesonBaryonC1Ev
   fun:_ZN11G4ScattererC1Ev
   fun:_ZN15G4BinaryCascadeC1EP19G4VPreCompoundModel
   fun:_ZN24G4BinaryLightIonReactionC1EP19G4VPreCompoundModel
}

{
   basf2 suppression 218
   Memcheck:Leak
   fun:_Znwm
   fun:_ZNSs4_Rep9_S_createEmmRKSaIcE
   fun:_ZNSs12_S_constructIPKcEEPcT_S3_RKSaIcESt20forward_iterator_tag.part.29
   fun:_ZNSsC1EPKcRKSaIcE
   fun:_ZN13G4BaryonWidthC1Ev
   fun:_ZN32G4ConcreteMesonBaryonToResonance14theBaryonWidthEv
   fun:_ZN32G4ConcreteMesonBaryonToResonanceC1EPK20G4ParticleDefinitionS2_S2_RK8G4String
   fun:_ZN33G4CollisionMesonBaryonToResonanceC1Ev
   fun:_ZN22G4CollisionMesonBaryonC1Ev
   fun:_ZN11G4ScattererC1Ev
   fun:_ZN15G4BinaryCascadeC1EP19G4VPreCompoundModel
   fun:_ZN24G4BinaryLightIonReactionC1EP19G4VPreCompoundModel
}

{
   basf2 suppression 219
   Memcheck:Leak
   fun:_Znwm
   fun:_ZNSs4_Rep9_S_createEmmRKSaIcE
   fun:_ZNSs12_S_constructIPKcEEPcT_S3_RKSaIcESt20forward_iterator_tag.part.29
   fun:_ZNSsC1EPKcRKSaIcE
   fun:_ZN13G4BaryonWidthC1Ev
   fun:_ZN32G4ConcreteMesonBaryonToResonance14theBaryonWidthEv
   fun:_ZN32G4ConcreteMesonBaryonToResonanceC1EPK20G4ParticleDefinitionS2_S2_RK8G4String
   fun:_ZN33G4CollisionMesonBaryonToResonanceC1Ev
   fun:_ZN22G4CollisionMesonBaryonC1Ev
   fun:_ZN11G4ScattererC1Ev
   fun:_ZN15G4BinaryCascadeC1EP19G4VPreCompoundModel
   fun:_ZN24G4BinaryLightIonReactionC1EP19G4VPreCompoundModel
}

{
   basf2 suppression 220
   Memcheck:Leak
   fun:_Znwm
   fun:_ZNSs4_Rep9_S_createEmmRKSaIcE
   fun:_ZNSs4_Rep8_M_cloneERKSaIcEm
   fun:_ZNSs7reserveEm
   fun:_ZNSs6appendERKSs
   fun:_ZN7Pythia819ResonanceLeptoquark13initConstantsEv
   fun:_ZN7Pythia815ResonanceWidths4initEPNS_4InfoEPNS_8SettingsEPNS_12ParticleDataEPNS_9CouplingsE
   fun:_ZN7Pythia812ParticleData10initWidthsESt6vectorIPNS_15ResonanceWidthsESaIS3_EE
   fun:_ZN7Pythia86Pythia4initEv
   fun:_ZN15EvtPythiaEngine10initialiseEv
   fun:_ZN15EvtPythiaEngine7doDecayEP11EvtParticle
   fun:_ZN9EvtPythia5decayEP11EvtParticle
}

{
   basf2 suppression 221
   Memcheck:Leak
   fun:_Znwm
   fun:_ZNSs4_Rep9_S_createEmmRKSaIcE
   fun:_ZNSs4_Rep8_M_cloneERKSaIcEm
   fun:_ZNSs7reserveEm
   fun:_ZNSs6appendERKSs
   fun:_ZN7Pythia819ResonanceLeptoquark13initConstantsEv
   fun:_ZN7Pythia815ResonanceWidths4initEPNS_4InfoEPNS_8SettingsEPNS_12ParticleDataEPNS_9CouplingsE
   fun:_ZN7Pythia812ParticleData10initWidthsESt6vectorIPNS_15ResonanceWidthsESaIS3_EE
   fun:_ZN7Pythia86Pythia4initEv
   fun:_ZN15EvtPythiaEngine10initialiseEv
   fun:_ZN15EvtPythiaEngine7doDecayEP11EvtParticle
   fun:_ZN9EvtPythia5decayEP11EvtParticle
}

{
   basf2 suppression 222
   Memcheck:Leak
   fun:_Znwm
   fun:_ZN5TList7NewLinkEP7TObjectP8TObjLink.part.23.constprop.47
   fun:_ZN5TList7AddLastEP7TObject
   fun:_ZN9THashList7AddLastEP7TObject
   fun:_ZN16TListOfFunctions6UnloadEv
   fun:_ZN6TClass11SetUnloadedEv
   fun:_ZN4ROOT11RemoveClassEPKc
   fun:_ZN4ROOT17TGenericClassInfoD1Ev
   fun:exit
   fun:(below main)
}

{
   basf2 suppression 223
   Memcheck:Leak
   fun:_Znwm
   fun:_ZNK28FsmwLinearizationPointFinder5cloneEv
   fun:_ZN22SequentialVertexFitterILj5EEC1ERKS0_
   fun:_ZNK18KalmanVertexFitter5cloneEv
   fun:_ZN18AbstractConfFitterC1ERK12VertexFitterILj5EE
   fun:_ZN24ConfigurableKalmanFitterC1Ev
   fun:_ZN17ConfFitterBuilderI24ConfigurableKalmanFitterEC1ERKSsS3_
   fun:_GLOBAL__sub_I_ConfigurableKalmanFitter.cc
   fun:_dl_init
   fun:dl_open_worker
   fun:_dl_catch_error
   fun:_dl_open
}

{
   basf2 suppression 224
   Memcheck:Leak
   fun:_Znwm
   fun:_ZNK28FsmwLinearizationPointFinder5cloneEv
   fun:_ZN22SequentialVertexFitterILj5EEC1ERKS0_
   fun:_ZNK18KalmanVertexFitter5cloneEv
   fun:_ZN18AbstractConfFitterC1ERKS_
   fun:_ZN24ConfigurableKalmanFitterC1ERKS_
   fun:_ZNK24ConfigurableKalmanFitter5cloneEv
   fun:_ZN23ReconstructorFromFitterC1ERK18AbstractConfFitter
   fun:_ZN19VertexFitterManager14registerFitterERKSsP18AbstractConfFitterS1_
   fun:_GLOBAL__sub_I_ConfigurableKalmanFitter.cc
   fun:_dl_init
   fun:dl_open_worker
}

{
   basf2 suppression 225
   Memcheck:Leak
   fun:_Znwm
   fun:_ZNK28FsmwLinearizationPointFinder5cloneEv
   fun:_ZN20AdaptiveVertexFitterC1ERKS_
   fun:_ZNK20AdaptiveVertexFitter5cloneEv
   fun:_ZN23AdaptiveGsfVertexFitterC1ERKS_
   fun:_ZNK23AdaptiveGsfVertexFitter5cloneEv
   fun:_ZN18AbstractConfFitterC1ERK12VertexFitterILj5EE
   fun:_ZN37ConfigurableAdaptiveGaussianSumFilterC1Ev
   fun:_GLOBAL__sub_I_ConfigurableAdaptiveGaussianSumFilter.cc
   fun:_dl_init
   fun:dl_open_worker
   fun:_dl_catch_error
}

{
   basf2 suppression 226
   Memcheck:Leak
   fun:_Znwm
   fun:_ZNK28FsmwLinearizationPointFinder5cloneEv
   fun:_ZN20AdaptiveVertexFitterC1ERKS_
   fun:_ZNK20AdaptiveVertexFitter5cloneEv
   fun:_ZN23AdaptiveGsfVertexFitterC1ERKS_
   fun:_ZNK23AdaptiveGsfVertexFitter5cloneEv
   fun:_ZN18AbstractConfFitterC1ERKS_
   fun:_ZN37ConfigurableAdaptiveGaussianSumFilterC1ERKS_
   fun:_ZNK37ConfigurableAdaptiveGaussianSumFilter5cloneEv
   fun:_ZN23ReconstructorFromFitterC1ERK18AbstractConfFitter
   fun:_ZN19VertexFitterManager14registerFitterERKSsP18AbstractConfFitterS1_
   fun:_GLOBAL__sub_I_ConfigurableAdaptiveGaussianSumFilter.cc
}

{
   basf2 suppression 227
   Memcheck:Leak
   fun:_Znwm
   fun:_ZNK28FsmwLinearizationPointFinder5cloneEv
   fun:_ZN20AdaptiveVertexFitterC1ERKS_
   fun:_ZNK20AdaptiveVertexFitter5cloneEv
   fun:_ZN18AbstractConfFitterC1ERK12VertexFitterILj5EE
   fun:_ZN26ConfigurableAdaptiveFitterC1Ev
   fun:_GLOBAL__sub_I_ConfigurableAdaptiveFitter.cc
   fun:_dl_init
   fun:dl_open_worker
   fun:_dl_catch_error
   fun:_dl_open
   fun:dlopen_doit
}

{
   basf2 suppression 228
   Memcheck:Leak
   fun:_Znwm
   fun:_ZNK28FsmwLinearizationPointFinder5cloneEv
   fun:_ZN20AdaptiveVertexFitterC1ERKS_
   fun:_ZNK20AdaptiveVertexFitter5cloneEv
   fun:_ZN18AbstractConfFitterC1ERKS_
   fun:_ZN26ConfigurableAdaptiveFitterC1ERKS_
   fun:_ZNK26ConfigurableAdaptiveFitter5cloneEv
   fun:_ZN23ReconstructorFromFitterC1ERK18AbstractConfFitter
   fun:_ZN19VertexFitterManager14registerFitterERKSsP18AbstractConfFitterS1_
   fun:_GLOBAL__sub_I_ConfigurableAdaptiveFitter.cc
   fun:_dl_init
   fun:dl_open_worker
}

{
   basf2 suppression 229
   Memcheck:Leak
   fun:_Znwm
   fun:_ZNK28FsmwLinearizationPointFinder5cloneEv
   fun:_ZN20AdaptiveVertexFitterC1ERK17AnnealingScheduleRK24LinearizationPointFinderRK13VertexUpdatorILj5EERK33VertexTrackCompatibilityEstimatorILj5EERK14VertexSmootherILj5EERK18AbstractLTSFactoryILj5EE
   fun:_ZN27AdaptiveVertexReconstructor12setupFittersEddddddb
   fun:_ZN27AdaptiveVertexReconstructorC1Edddbd
   fun:_ZN33ConfigurableAdaptiveReconstructorC1Ev
   fun:_GLOBAL__sub_I_ConfigurableAdaptiveReconstructor.cc
   fun:_dl_init
   fun:dl_open_worker
   fun:_dl_catch_error
   fun:_dl_open
   fun:dlopen_doit
}

{
   basf2 suppression 230
   Memcheck:Leak
   fun:_Znwm
   fun:_ZNK28FsmwLinearizationPointFinder5cloneEv
   fun:_ZN20AdaptiveVertexFitterC1ERK17AnnealingScheduleRK24LinearizationPointFinderRK13VertexUpdatorILj5EERK33VertexTrackCompatibilityEstimatorILj5EERK14VertexSmootherILj5EERK18AbstractLTSFactoryILj5EE
   fun:_ZN27AdaptiveVertexReconstructor12setupFittersEddddddb
   fun:_ZN27AdaptiveVertexReconstructorC1Edddbd
   fun:_ZN33ConfigurableAdaptiveReconstructorC1Ev
   fun:_GLOBAL__sub_I_ConfigurableAdaptiveReconstructor.cc
   fun:_dl_init
   fun:dl_open_worker
   fun:_dl_catch_error
   fun:_dl_open
   fun:dlopen_doit
}

{
   basf2 suppression 231
   Memcheck:Leak
   fun:_Znwm
   fun:_ZNK28FsmwLinearizationPointFinder5cloneEv
   fun:_ZN22SequentialVertexFitterILj5EEC1ERKS0_
   fun:_ZNK18KalmanVertexFitter5cloneEv
   fun:_ZN18AbstractConfFitterC1ERK12VertexFitterILj5EE
   fun:_ZN24ConfigurableKalmanFitterC1Ev
   fun:_ZN17ConfFitterBuilderI24ConfigurableKalmanFitterEC1ERKSsS3_
   fun:_GLOBAL__sub_I_ConfigurableKalmanFitter.cc
   fun:_dl_init
   fun:dl_open_worker
   fun:_dl_catch_error
   fun:_dl_open
}

{
   basf2 suppression 232
   Memcheck:Leak
   fun:_Znwm
   fun:_ZNK28FsmwLinearizationPointFinder5cloneEv
   fun:_ZN17MultiVertexFitterC1ERK17AnnealingScheduleRK24LinearizationPointFinderRK14VertexSmootherILj5EEf
   fun:_ZN24MultiVertexReconstructorC1ERK19VertexReconstructorRK17AnnealingScheduleRK14VertexSmootherILj5EEf
   fun:_ZN29ConfigurableMultiVertexFitterC1Ev
   fun:_GLOBAL__sub_I_ConfigurableMultiVertexFitter.cc
   fun:_dl_init
   fun:dl_open_worker
   fun:_dl_catch_error
   fun:_dl_open
   fun:dlopen_doit
   fun:_dl_catch_error
}

{
   basf2 suppression 233
   Memcheck:Leak
   fun:_Znwm
   fun:_ZNK28FsmwLinearizationPointFinder5cloneEv
   fun:_ZN22SequentialVertexFitterILj5EEC1ERKS0_
   fun:_ZNK18KalmanVertexFitter5cloneEv
   fun:_ZN19TrimmedVertexFinderC1EPK12VertexFitterILj5EEPK13VertexUpdatorILj5EEPK33VertexTrackCompatibilityEstimatorILj5EE
   fun:_ZN31ConfigurableTrimmedVertexFinderC1EPK12VertexFitterILj5EEPK13VertexUpdatorILj5EEPK33VertexTrackCompatibilityEstimatorILj5EE
   fun:_ZN25KalmanTrimmedVertexFinderC1Ev
   fun:_ZN31ConfigurableTrimmedKalmanFinder9configureERKN3edm12ParameterSetE
   fun:_ZN31ConfigurableTrimmedKalmanFinderC1Ev
   fun:_GLOBAL__sub_I_ConfigurableTrimmedKalmanFinder.cc
   fun:_dl_init
   fun:dl_open_worker
}

{
   basf2 suppression 234
   Memcheck:Leak
   fun:_Znwm
   fun:_ZNK28FsmwLinearizationPointFinder5cloneEv
   fun:_ZN22SequentialVertexFitterILj5EEC1ERKS0_
   fun:_ZN15GsfVertexFitterC1ERKS_
   fun:_ZNK15GsfVertexFitter5cloneEv
   fun:_ZN18AbstractConfFitterC1ERK12VertexFitterILj5EE
   fun:_ZN29ConfigurableGaussianSumFilterC1Ev
   fun:_GLOBAL__sub_I_ConfigurableGaussianSumFilter.cc
   fun:_dl_init
   fun:dl_open_worker
   fun:_dl_catch_error
   fun:_dl_open
}

{
   basf2 suppression 235
   Memcheck:Leak
   fun:_Znwm
   fun:_ZNK28FsmwLinearizationPointFinder5cloneEv
   fun:_ZN22SequentialVertexFitterILj5EEC1ERKS0_
   fun:_ZN15GsfVertexFitterC1ERKS_
   fun:_ZNK15GsfVertexFitter5cloneEv
   fun:_ZN18AbstractConfFitterC1ERKS_
   fun:_ZN29ConfigurableGaussianSumFilterC1ERKS_
   fun:_ZNK29ConfigurableGaussianSumFilter5cloneEv
   fun:_ZN23ReconstructorFromFitterC1ERK18AbstractConfFitter
   fun:_ZN19VertexFitterManager14registerFitterERKSsP18AbstractConfFitterS1_
   fun:_GLOBAL__sub_I_ConfigurableGaussianSumFilter.cc
   fun:_dl_init
}

{
   basf2 suppression 236
   Memcheck:Leak
   fun:_Znwm
   fun:_ZNSt6vectorI18G4ApplicationStateSaIS0_EE13_M_insert_auxEN9__gnu_cxx17__normal_iteratorIPS0_S2_EERKS0_
   fun:_ZN11G4UIcommandC1EPKcP13G4UImessengerb
   fun:_ZN21G4EnergyLossMessengerC1Ev
   fun:_ZN18G4LossTableManagerC1Ev
   fun:_ZN18G4LossTableManager8InstanceEv
   fun:_ZN20G4VEnergyLossProcessC1ERK8G4String13G4ProcessType
   fun:_ZN18G4MuBremsstrahlungC1ERK8G4String
   fun:_ZN19G4EmStandardPhysics16ConstructProcessEv
   fun:_ZN21G4VModularPhysicsList16ConstructProcessEv
   fun:_ZN18G4RunManagerKernel17InitializePhysicsEv
   fun:_ZN12G4RunManager17InitializePhysicsEv
}

{
   basf2 suppression 237
   Memcheck:Leak
   fun:_Znwm
   fun:_ZNSt6vectorIP13G4UIparameterSaIS1_EE13_M_insert_auxEN9__gnu_cxx17__normal_iteratorIPS1_S3_EERKS1_
   fun:_ZN11G4UIcommand12SetParameterEP13G4UIparameter
   fun:_ZN21G4EnergyLossMessengerC1Ev
   fun:_ZN18G4LossTableManagerC1Ev
   fun:_ZN18G4LossTableManager8InstanceEv
   fun:_ZN20G4VEnergyLossProcessC1ERK8G4String13G4ProcessType
   fun:_ZN18G4MuBremsstrahlungC1ERK8G4String
   fun:_ZN19G4EmStandardPhysics16ConstructProcessEv
   fun:_ZN21G4VModularPhysicsList16ConstructProcessEv
   fun:_ZN18G4RunManagerKernel17InitializePhysicsEv
   fun:_ZN12G4RunManager17InitializePhysicsEv
}

{
   basf2 suppression 238
   Memcheck:Leak
   fun:_Znwm
   fun:_ZNSs4_Rep9_S_createEmmRKSaIcE
   fun:_ZNSs12_S_constructIPKcEEPcT_S3_RKSaIcESt20forward_iterator_tag.part.29
   fun:_ZNSsC1EPKcmRKSaIcE
   fun:_ZN5clang6Parser24initializePragmaHandlersEv
   fun:_ZN5clang6ParserC1ERNS_12PreprocessorERNS_4SemaEbb
   fun:_ZN5cling17IncrementalParser10InitializeERN4llvm15SmallVectorImplINS1_14PointerIntPairIPNS_11TransactionELj2ENS0_12EParseResultENS1_21PointerLikeTypeTraitsIS5_EEEEEE
   fun:_ZN5cling11InterpreterC1EiPKPKcS2_b
   fun:_ZN6TClingC1EPKcS1_
   fun:CreateInterpreter
   fun:_ZN5TROOT15InitInterpreterEv
   fun:_ZN4ROOT8GetROOT2Ev
}

{
   basf2 suppression 239
   Memcheck:Leak
   fun:_Znwm
   fun:_ZNSs4_Rep9_S_createEmmRKSaIcE
   fun:_ZNSs12_S_constructIPKcEEPcT_S3_RKSaIcESt20forward_iterator_tag.part.29
   fun:_ZNSsC1EPKcmRKSaIcE
   fun:_ZN5clang6Parser24initializePragmaHandlersEv
   fun:_ZN5clang6ParserC1ERNS_12PreprocessorERNS_4SemaEbb
   fun:_ZN5cling17IncrementalParser10InitializeERN4llvm15SmallVectorImplINS1_14PointerIntPairIPNS_11TransactionELj2ENS0_12EParseResultENS1_21PointerLikeTypeTraitsIS5_EEEEEE
   fun:_ZN5cling11InterpreterC1EiPKPKcS2_b
   fun:_ZN6TClingC1EPKcS1_
   fun:CreateInterpreter
   fun:_ZN5TROOT15InitInterpreterEv
   fun:_ZN4ROOT8GetROOT2Ev
}

{
   basf2 suppression 240
   Memcheck:Leak
   fun:_Znwm
   fun:_ZNSs4_Rep9_S_createEmmRKSaIcE
   fun:_ZNSs12_S_constructIPKcEEPcT_S3_RKSaIcESt20forward_iterator_tag.part.29
   fun:_ZNSsC1EPKcRKSaIcE
   fun:_GLOBAL__sub_I_G4RegisterPhysLists.cc
   fun:_dl_init
   fun:dl_open_worker
   fun:_dl_catch_error
   fun:_dl_open
   fun:dlopen_doit
   fun:_dl_catch_error
   fun:_dlerror_run
}

{
   basf2 suppression 241
   Memcheck:Leak
   fun:_Znwm
   fun:_ZNSs4_Rep9_S_createEmmRKSaIcE
   fun:_ZNSs12_S_constructIPKcEEPcT_S3_RKSaIcESt20forward_iterator_tag.part.29
   fun:_ZNSsC1EPKcRKSaIcE
   fun:_GLOBAL__sub_I_MethodCFMlpANN.cxx
   fun:_dl_init
   fun:dl_open_worker
   fun:_dl_catch_error
   fun:_dl_open
   fun:dlopen_doit
   fun:_dl_catch_error
   fun:_dlerror_run
}

{
   basf2 suppression 242
   Memcheck:Leak
   fun:_Znwm
   fun:_ZNSs4_Rep9_S_createEmmRKSaIcE
   fun:_ZNSs12_S_constructIPKcEEPcT_S3_RKSaIcESt20forward_iterator_tag.part.29
   fun:_ZNSsC1EPKcRKSaIcE
   fun:_GLOBAL__sub_I_MethodCategory.cxx
   fun:_dl_init
   fun:dl_open_worker
   fun:_dl_catch_error
   fun:_dl_open
   fun:dlopen_doit
   fun:_dl_catch_error
   fun:_dlerror_run
}

{
   basf2 suppression 243
   Memcheck:Leak
   fun:_Znwm
   fun:_ZNSs4_Rep9_S_createEmmRKSaIcE
   fun:_ZNSs12_S_constructIPKcEEPcT_S3_RKSaIcESt20forward_iterator_tag.part.29
   fun:_ZNSsC1EPKcRKSaIcE
   fun:_ZN10G4DiprotonC1Ev
   fun:_ZN10G4Diproton10DefinitionEv
   fun:_ZN25G4InuclElementaryParticle4typeEPK20G4ParticleDefinition
   fun:_ZN13G4NucleiModel19inverseMeanFreePathERK16G4CascadParticleRK25G4InuclElementaryParticlei
   fun:_ZN13G4NucleiModel27generateInteractionPartnersER16G4CascadParticle
   fun:_ZN13G4NucleiModel20generateParticleFateER16G4CascadParticleP28G4ElementaryParticleColliderRSt6vectorIS0_SaIS0_EE
   fun:_ZN21G4IntraNucleiCascader15generateCascadeEv
   fun:_ZN21G4IntraNucleiCascader7collideEP15G4InuclParticleS1_R17G4CollisionOutput
}

{
   basf2 suppression 244
   Memcheck:Leak
   fun:_Znwm
   fun:_ZNSs4_Rep9_S_createEmmRKSaIcE
   fun:_ZNSs12_S_constructIPKcEEPcT_S3_RKSaIcESt20forward_iterator_tag.part.29
   fun:_ZNSsC1EPKcRKSaIcE
   fun:_ZN13G4BaryonWidthC1Ev
   fun:_ZN32G4ConcreteMesonBaryonToResonance14theBaryonWidthEv
   fun:_ZN32G4ConcreteMesonBaryonToResonanceC1EPK20G4ParticleDefinitionS2_S2_RK8G4String
   fun:_ZN33G4CollisionMesonBaryonToResonanceC1Ev
   fun:_ZN22G4CollisionMesonBaryonC1Ev
   fun:_ZN11G4ScattererC1Ev
   fun:_ZN15G4BinaryCascadeC1EP19G4VPreCompoundModel
   fun:_ZN24G4BinaryLightIonReactionC1EP19G4VPreCompoundModel
}

{
   basf2 suppression 245
   Memcheck:Leak
   fun:_Znwm
   fun:_ZNSs4_Rep9_S_createEmmRKSaIcE
   fun:_ZNSs12_S_constructIPKcEEPcT_S3_RKSaIcESt20forward_iterator_tag.part.29
   fun:_ZNSsC1EPKcRKSaIcE
   fun:_ZN13G4BaryonWidthC1Ev
   fun:_ZN32G4ConcreteMesonBaryonToResonance14theBaryonWidthEv
   fun:_ZN32G4ConcreteMesonBaryonToResonanceC1EPK20G4ParticleDefinitionS2_S2_RK8G4String
   fun:_ZN33G4CollisionMesonBaryonToResonanceC1Ev
   fun:_ZN22G4CollisionMesonBaryonC1Ev
   fun:_ZN11G4ScattererC1Ev
   fun:_ZN15G4BinaryCascadeC1EP19G4VPreCompoundModel
   fun:_ZN24G4BinaryLightIonReactionC1EP19G4VPreCompoundModel
}

{
   basf2 suppression 246
   Memcheck:Leak
   fun:_Znwm
   fun:_ZNSs4_Rep9_S_createEmmRKSaIcE
   fun:_ZNSs12_S_constructIPKcEEPcT_S3_RKSaIcESt20forward_iterator_tag.part.29
   fun:_ZNSsC1EPKcRKSaIcE
   fun:_ZN13G4BaryonWidthC1Ev
   fun:_ZN32G4ConcreteMesonBaryonToResonance14theBaryonWidthEv
   fun:_ZN32G4ConcreteMesonBaryonToResonanceC1EPK20G4ParticleDefinitionS2_S2_RK8G4String
   fun:_ZN33G4CollisionMesonBaryonToResonanceC1Ev
   fun:_ZN22G4CollisionMesonBaryonC1Ev
   fun:_ZN11G4ScattererC1Ev
   fun:_ZN15G4BinaryCascadeC1EP19G4VPreCompoundModel
   fun:_ZN24G4BinaryLightIonReactionC1EP19G4VPreCompoundModel
}

{
   basf2 suppression 247
   Memcheck:Leak
   fun:_Znwm
   fun:_ZNSs4_Rep9_S_createEmmRKSaIcE
   fun:_ZNSs12_S_constructIPKcEEPcT_S3_RKSaIcESt20forward_iterator_tag.part.29
   fun:_ZNSsC1EPKcRKSaIcE
   fun:_ZN13G4BaryonWidthC1Ev
   fun:_ZN32G4ConcreteMesonBaryonToResonance14theBaryonWidthEv
   fun:_ZN32G4ConcreteMesonBaryonToResonanceC1EPK20G4ParticleDefinitionS2_S2_RK8G4String
   fun:_ZN33G4CollisionMesonBaryonToResonanceC1Ev
   fun:_ZN22G4CollisionMesonBaryonC1Ev
   fun:_ZN11G4ScattererC1Ev
   fun:_ZN15G4BinaryCascadeC1EP19G4VPreCompoundModel
   fun:_ZN24G4BinaryLightIonReactionC1EP19G4VPreCompoundModel
}

{
   basf2 suppression 248
   Memcheck:Leak
   fun:_Znwm
   fun:_ZNSs4_Rep9_S_createEmmRKSaIcE
   fun:_ZNSs12_S_constructIPKcEEPcT_S3_RKSaIcESt20forward_iterator_tag.part.29
   fun:_ZNSsC1EPKcRKSaIcE
   fun:_ZN13G4BaryonWidthC1Ev
   fun:_ZN32G4ConcreteMesonBaryonToResonance14theBaryonWidthEv
   fun:_ZN32G4ConcreteMesonBaryonToResonanceC1EPK20G4ParticleDefinitionS2_S2_RK8G4String
   fun:_ZN33G4CollisionMesonBaryonToResonanceC1Ev
   fun:_ZN22G4CollisionMesonBaryonC1Ev
   fun:_ZN11G4ScattererC1Ev
   fun:_ZN15G4BinaryCascadeC1EP19G4VPreCompoundModel
   fun:_ZN24G4BinaryLightIonReactionC1EP19G4VPreCompoundModel
}

{
   basf2 suppression 249
   Memcheck:Leak
   fun:_Znwm
   fun:_ZNSs4_Rep9_S_createEmmRKSaIcE
   fun:_ZNSs12_S_constructIPKcEEPcT_S3_RKSaIcESt20forward_iterator_tag.part.29
   fun:_ZNSsC1EPKcRKSaIcE
   fun:_ZN20G4BaryonPartialWidthC1Ev
   fun:_ZN32G4ConcreteMesonBaryonToResonance21theBaryonPartialWidthEv
   fun:_ZN32G4ConcreteMesonBaryonToResonanceC1EPK20G4ParticleDefinitionS2_S2_RK8G4String
   fun:_ZN33G4CollisionMesonBaryonToResonanceC1Ev
   fun:_ZN22G4CollisionMesonBaryonC1Ev
   fun:_ZN11G4ScattererC1Ev
   fun:_ZN15G4BinaryCascadeC1EP19G4VPreCompoundModel
   fun:_ZN24G4BinaryLightIonReactionC1EP19G4VPreCompoundModel
}

{
   basf2 suppression 250
   Memcheck:Leak
   fun:_Znwm
   fun:_ZNSs4_Rep9_S_createEmmRKSaIcE
   fun:_ZNSs12_S_constructIPKcEEPcT_S3_RKSaIcESt20forward_iterator_tag.part.29
   fun:_ZNSsC1EPKcRKSaIcE
   fun:_ZN20G4BaryonPartialWidthC1Ev
   fun:_ZN32G4ConcreteMesonBaryonToResonance21theBaryonPartialWidthEv
   fun:_ZN32G4ConcreteMesonBaryonToResonanceC1EPK20G4ParticleDefinitionS2_S2_RK8G4String
   fun:_ZN33G4CollisionMesonBaryonToResonanceC1Ev
   fun:_ZN22G4CollisionMesonBaryonC1Ev
   fun:_ZN11G4ScattererC1Ev
   fun:_ZN15G4BinaryCascadeC1EP19G4VPreCompoundModel
   fun:_ZN24G4BinaryLightIonReactionC1EP19G4VPreCompoundModel
}

{
   basf2 suppression 251
   Memcheck:Leak
   fun:_Znwm
   fun:_ZNSs4_Rep9_S_createEmmRKSaIcE
   fun:_ZNSs12_S_constructIPKcEEPcT_S3_RKSaIcESt20forward_iterator_tag.part.29
   fun:_ZNSsC1EPKcRKSaIcE
   fun:_ZN20G4BaryonPartialWidthC1Ev
   fun:_ZN32G4ConcreteMesonBaryonToResonance21theBaryonPartialWidthEv
   fun:_ZN32G4ConcreteMesonBaryonToResonanceC1EPK20G4ParticleDefinitionS2_S2_RK8G4String
   fun:_ZN33G4CollisionMesonBaryonToResonanceC1Ev
   fun:_ZN22G4CollisionMesonBaryonC1Ev
   fun:_ZN11G4ScattererC1Ev
   fun:_ZN15G4BinaryCascadeC1EP19G4VPreCompoundModel
   fun:_ZN24G4BinaryLightIonReactionC1EP19G4VPreCompoundModel
}

{
   basf2 suppression 252
   Memcheck:Leak
   fun:_Znwm
   fun:_ZNSs4_Rep9_S_createEmmRKSaIcE
   fun:_ZNSs12_S_constructIPKcEEPcT_S3_RKSaIcESt20forward_iterator_tag.part.29
   fun:_ZNSsC1EPKcRKSaIcE
   fun:_ZN20G4BaryonPartialWidthC1Ev
   fun:_ZN32G4ConcreteMesonBaryonToResonance21theBaryonPartialWidthEv
   fun:_ZN32G4ConcreteMesonBaryonToResonanceC1EPK20G4ParticleDefinitionS2_S2_RK8G4String
   fun:_ZN33G4CollisionMesonBaryonToResonanceC1Ev
   fun:_ZN22G4CollisionMesonBaryonC1Ev
   fun:_ZN11G4ScattererC1Ev
   fun:_ZN15G4BinaryCascadeC1EP19G4VPreCompoundModel
   fun:_ZN24G4BinaryLightIonReactionC1EP19G4VPreCompoundModel
}

{
   basf2 suppression 253
   Memcheck:Leak
   fun:_Znwm
   fun:_ZNSs4_Rep9_S_createEmmRKSaIcE
   fun:_ZNSs12_S_constructIPKcEEPcT_S3_RKSaIcESt20forward_iterator_tag.part.29
   fun:_ZNSsC1EPKcRKSaIcE
   fun:_ZN20G4BaryonPartialWidthC1Ev
   fun:_ZN32G4ConcreteMesonBaryonToResonance21theBaryonPartialWidthEv
   fun:_ZN32G4ConcreteMesonBaryonToResonanceC1EPK20G4ParticleDefinitionS2_S2_RK8G4String
   fun:_ZN33G4CollisionMesonBaryonToResonanceC1Ev
   fun:_ZN22G4CollisionMesonBaryonC1Ev
   fun:_ZN11G4ScattererC1Ev
   fun:_ZN15G4BinaryCascadeC1EP19G4VPreCompoundModel
   fun:_ZN24G4BinaryLightIonReactionC1EP19G4VPreCompoundModel
}

{
   basf2 suppression 254
   Memcheck:Leak
   fun:_Znwm
   fun:_ZNSs4_Rep9_S_createEmmRKSaIcE
   fun:_ZNSs12_S_constructIPKcEEPcT_S3_RKSaIcESt20forward_iterator_tag.part.29
   fun:_ZNSsC1EPKcRKSaIcE
   fun:_ZN20G4BaryonPartialWidthC1Ev
   fun:_ZN32G4ConcreteMesonBaryonToResonance21theBaryonPartialWidthEv
   fun:_ZN32G4ConcreteMesonBaryonToResonanceC1EPK20G4ParticleDefinitionS2_S2_RK8G4String
   fun:_ZN33G4CollisionMesonBaryonToResonanceC1Ev
   fun:_ZN22G4CollisionMesonBaryonC1Ev
   fun:_ZN11G4ScattererC1Ev
   fun:_ZN15G4BinaryCascadeC1EP19G4VPreCompoundModel
   fun:_ZN24G4BinaryLightIonReactionC1EP19G4VPreCompoundModel
}

{
   basf2 suppression 255
   Memcheck:Leak
   fun:_Znwm
   fun:_ZNSs4_Rep9_S_createEmmRKSaIcE
   fun:_ZNSs12_S_constructIPKcEEPcT_S3_RKSaIcESt20forward_iterator_tag.part.29
   fun:_ZNSsC1EPKcmRKSaIcE
   fun:_ZN12_GLOBAL__N_1L12createCIImplESt10unique_ptrIN4llvm12MemoryBufferESt14default_deleteIS2_EEiPKPKcS7_b
   fun:_ZN5cling9CIFactory8createCIEN4llvm9StringRefEiPKPKcS4_
   fun:_ZN5cling17IncrementalParserC1EPNS_11InterpreterEiPKPKcS4_
   fun:_ZN5cling11InterpreterC1EiPKPKcS2_b
   fun:_ZN6TClingC1EPKcS1_
   fun:CreateInterpreter
   fun:_ZN5TROOT15InitInterpreterEv
   fun:_ZN4ROOT8GetROOT2Ev
}

{
   basf2 suppression 256
   Memcheck:Leak
   fun:_Znwm
   fun:_ZNSs4_Rep9_S_createEmmRKSaIcE
   fun:_ZNSs12_S_constructIPKcEEPcT_S3_RKSaIcESt20forward_iterator_tag.part.29
   fun:_ZNSsC1EPKcmRKSaIcE
   fun:_ZN5clang12Preprocessor22RegisterBuiltinPragmasEv
   fun:_ZN5clang12PreprocessorC1EN4llvm18IntrusiveRefCntPtrINS_19PreprocessorOptionsEEERNS_17DiagnosticsEngineERNS_11LangOptionsERNS_13SourceManagerERNS_12HeaderSearchERNS_12ModuleLoaderEPNS_20IdentifierInfoLookupEbNS_19TranslationUnitKindE
   fun:_ZN5clang16CompilerInstance18createPreprocessorENS_19TranslationUnitKindE
   fun:_ZN12_GLOBAL__N_1L12createCIImplESt10unique_ptrIN4llvm12MemoryBufferESt14default_deleteIS2_EEiPKPKcS7_b
   fun:_ZN5cling9CIFactory8createCIEN4llvm9StringRefEiPKPKcS4_
   fun:_ZN5cling17IncrementalParserC1EPNS_11InterpreterEiPKPKcS4_
   fun:_ZN5cling11InterpreterC1EiPKPKcS2_b
   fun:_ZN6TClingC1EPKcS1_
}

{
   basf2 suppression 257
   Memcheck:Leak
   fun:_Znwm
   fun:_ZNSs4_Rep9_S_createEmmRKSaIcE
   fun:_ZNSs12_S_constructIPKcEEPcT_S3_RKSaIcESt20forward_iterator_tag.part.29
   fun:_ZNSsC1EPKcmRKSaIcE
   fun:_ZN5clang6Parser24initializePragmaHandlersEv
   fun:_ZN5clang6ParserC1ERNS_12PreprocessorERNS_4SemaEbb
   fun:_ZN5cling17IncrementalParser10InitializeERN4llvm15SmallVectorImplINS1_14PointerIntPairIPNS_11TransactionELj2ENS0_12EParseResultENS1_21PointerLikeTypeTraitsIS5_EEEEEE
   fun:_ZN5cling11InterpreterC1EiPKPKcS2_b
   fun:_ZN6TClingC1EPKcS1_
   fun:CreateInterpreter
   fun:_ZN5TROOT15InitInterpreterEv
   fun:_ZN4ROOT8GetROOT2Ev
}

{
   basf2 suppression 258
   Memcheck:Leak
   fun:malloc
   fun:PyBytes_FromStringAndSize
   fun:r_object
   fun:r_object
   fun:r_object
   fun:r_object
   fun:r_object
   fun:r_object
   fun:r_object
   fun:marshal_loads
   fun:PyCFunction_Call
   fun:PyEval_EvalFrameEx
}

{
   basf2 suppression 259
   Memcheck:Leak
   fun:_Znwm
   fun:_ZNSs4_Rep9_S_createEmmRKSaIcE
   fun:_ZNSs12_S_constructIPKcEEPcT_S3_RKSaIcESt20forward_iterator_tag.part.29
   fun:_ZNSsC1EPKcRKSaIcE
   fun:_GLOBAL__sub_I_G4RegisterPhysLists.cc
   fun:_dl_init
   fun:dl_open_worker
   fun:_dl_catch_error
   fun:_dl_open
   fun:dlopen_doit
   fun:_dl_catch_error
   fun:_dlerror_run
}

{
   basf2 suppression 260
   Memcheck:Leak
   fun:malloc
   fun:PyBytes_FromStringAndSize
   fun:PyUnicode_AsEncodedString
   fun:unicode_encode
   fun:PyCFunction_Call
   fun:PyEval_EvalFrameEx
   fun:PyEval_EvalFrameEx
   fun:_PyEval_EvalCodeWithName
   fun:PyEval_EvalCodeEx
   fun:PyEval_EvalCode
   fun:builtin_exec
   fun:PyCFunction_Call
}

{
   basf2 suppression 261
   Memcheck:Leak
   fun:malloc
   fun:PyBytes_FromStringAndSize
   fun:memory_cast
   fun:PyCFunction_Call
   fun:PyEval_EvalFrameEx
   fun:PyEval_EvalFrameEx
   fun:PyEval_EvalFrameEx
   fun:_PyEval_EvalCodeWithName
   fun:PyEval_EvalFrameEx
   fun:PyEval_EvalFrameEx
   fun:PyEval_EvalFrameEx
   fun:PyEval_EvalFrameEx
}

{
   basf2 suppression 262
   Memcheck:Leak
   fun:malloc
   fun:PyBytes_FromStringAndSize
   fun:PyArray_DescrConverter
   fun:arraydescr_new
   fun:type_call
   fun:PyObject_Call
   fun:PyEval_EvalFrameEx
   fun:_PyEval_EvalCodeWithName
   fun:PyEval_EvalCodeEx
   fun:function_call
   fun:PyObject_Call
   fun:method_call
}

{
   basf2 suppression 263
   Memcheck:Leak
   fun:_Znwm
   fun:_ZNSs4_Rep9_S_createEmmRKSaIcE
   fun:_ZNSs12_S_constructIPKcEEPcT_S3_RKSaIcESt20forward_iterator_tag.part.29
   fun:_ZNSsC1EPKcRKSaIcE
   fun:_GLOBAL__sub_I_G4RegisterPhysLists.cc
   fun:_dl_init
   fun:dl_open_worker
   fun:_dl_catch_error
   fun:_dl_open
   fun:dlopen_doit
   fun:_dl_catch_error
   fun:_dlerror_run
}

{
   basf2 suppression 264
   Memcheck:Leak
   fun:_Znwm
   fun:_ZNSs4_Rep9_S_createEmmRKSaIcE
   fun:_ZNSs12_S_constructIPKcEEPcT_S3_RKSaIcESt20forward_iterator_tag.part.29
   fun:_ZNSsC1EPKcRKSaIcE
   fun:_GLOBAL__sub_I_G4RegisterPhysLists.cc
   fun:_dl_init
   fun:dl_open_worker
   fun:_dl_catch_error
   fun:_dl_open
   fun:dlopen_doit
   fun:_dl_catch_error
   fun:_dlerror_run
}

{
   basf2 suppression 265
   Memcheck:Leak
   fun:_Znwm
   fun:_ZNSs4_Rep9_S_createEmmRKSaIcE
   fun:_ZNSs12_S_constructIPKcEEPcT_S3_RKSaIcESt20forward_iterator_tag.part.29
   fun:_ZNSsC1EPKcRKSaIcE
   fun:_ZN11G4UnboundPNC1Ev
   fun:_ZN11G4UnboundPN10DefinitionEv
   fun:_ZNK13G4NucleiModel21generateQuasiDeuteronEiii
   fun:_ZN13G4NucleiModel27generateInteractionPartnersER16G4CascadParticle
   fun:_ZN13G4NucleiModel20generateParticleFateER16G4CascadParticleP28G4ElementaryParticleColliderRSt6vectorIS0_SaIS0_EE
   fun:_ZN21G4IntraNucleiCascader15generateCascadeEv
   fun:_ZN21G4IntraNucleiCascader7collideEP15G4InuclParticleS1_R17G4CollisionOutput
   fun:_ZN15G4InuclCollider7collideEP15G4InuclParticleS1_R17G4CollisionOutput
}

{
   basf2 suppression 266
   Memcheck:Leak
   fun:_Znwm
   fun:_ZNSs4_Rep9_S_createEmmRKSaIcE
   fun:_ZNSs12_S_constructIPKcEEPcT_S3_RKSaIcESt20forward_iterator_tag.part.29
   fun:_ZNSsC1EPKcRKSaIcE
   fun:_ZN11G4DineutronC1Ev
   fun:_ZN11G4Dineutron10DefinitionEv
   fun:_ZNK13G4NucleiModel21generateQuasiDeuteronEiii
   fun:_ZN13G4NucleiModel27generateInteractionPartnersER16G4CascadParticle
   fun:_ZN13G4NucleiModel20generateParticleFateER16G4CascadParticleP28G4ElementaryParticleColliderRSt6vectorIS0_SaIS0_EE
   fun:_ZN21G4IntraNucleiCascader15generateCascadeEv
   fun:_ZN21G4IntraNucleiCascader7collideEP15G4InuclParticleS1_R17G4CollisionOutput
   fun:_ZN15G4InuclCollider7collideEP15G4InuclParticleS1_R17G4CollisionOutput
}

{
   basf2 suppression 267
   Memcheck:Leak
   fun:_Znwm
   fun:_ZNSs4_Rep9_S_createEmmRKSaIcE
   fun:_ZNSs12_S_constructIPKcEEPcT_S3_RKSaIcESt20forward_iterator_tag.part.29
   fun:_ZNSsC1EPKcRKSaIcE
   fun:_ZN20G4BaryonPartialWidthC1Ev
   fun:_ZN32G4ConcreteMesonBaryonToResonance21theBaryonPartialWidthEv
   fun:_ZN32G4ConcreteMesonBaryonToResonanceC1EPK20G4ParticleDefinitionS2_S2_RK8G4String
   fun:_ZN33G4CollisionMesonBaryonToResonanceC1Ev
   fun:_ZN22G4CollisionMesonBaryonC1Ev
   fun:_ZN11G4ScattererC1Ev
   fun:_ZN15G4BinaryCascadeC1EP19G4VPreCompoundModel
   fun:_ZN24G4BinaryLightIonReactionC1EP19G4VPreCompoundModel
}

{
   basf2 suppression 268
   Memcheck:Leak
   fun:_Znwm
   fun:_ZNSs4_Rep9_S_createEmmRKSaIcE
   fun:_ZNSs12_S_constructIPKcEEPcT_S3_RKSaIcESt20forward_iterator_tag.part.29
   fun:_ZNSsC1EPKcRKSaIcE
   fun:_ZN20G4BaryonPartialWidthC1Ev
   fun:_ZN32G4ConcreteMesonBaryonToResonance21theBaryonPartialWidthEv
   fun:_ZN32G4ConcreteMesonBaryonToResonanceC1EPK20G4ParticleDefinitionS2_S2_RK8G4String
   fun:_ZN33G4CollisionMesonBaryonToResonanceC1Ev
   fun:_ZN22G4CollisionMesonBaryonC1Ev
   fun:_ZN11G4ScattererC1Ev
   fun:_ZN15G4BinaryCascadeC1EP19G4VPreCompoundModel
   fun:_ZN24G4BinaryLightIonReactionC1EP19G4VPreCompoundModel
}

{
   basf2 suppression 269
   Memcheck:Leak
   fun:_Znwm
   fun:_ZNSs4_Rep9_S_createEmmRKSaIcE
   fun:_ZNSs12_S_constructIPKcEEPcT_S3_RKSaIcESt20forward_iterator_tag.part.29
   fun:_ZNSsC1EPKcRKSaIcE
   fun:_ZN20G4BaryonPartialWidthC1Ev
   fun:_ZN32G4ConcreteMesonBaryonToResonance21theBaryonPartialWidthEv
   fun:_ZN32G4ConcreteMesonBaryonToResonanceC1EPK20G4ParticleDefinitionS2_S2_RK8G4String
   fun:_ZN33G4CollisionMesonBaryonToResonanceC1Ev
   fun:_ZN22G4CollisionMesonBaryonC1Ev
   fun:_ZN11G4ScattererC1Ev
   fun:_ZN15G4BinaryCascadeC1EP19G4VPreCompoundModel
   fun:_ZN24G4BinaryLightIonReactionC1EP19G4VPreCompoundModel
}

{
   basf2 suppression 270
   Memcheck:Leak
   fun:_Znwm
   fun:_ZNSs4_Rep9_S_createEmmRKSaIcE
   fun:_ZNSs12_S_constructIPKcEEPcT_S3_RKSaIcESt20forward_iterator_tag.part.29
   fun:_ZNSsC1EPKcRKSaIcE
   fun:_ZN20G4BaryonPartialWidthC1Ev
   fun:_ZN32G4ConcreteMesonBaryonToResonance21theBaryonPartialWidthEv
   fun:_ZN32G4ConcreteMesonBaryonToResonanceC1EPK20G4ParticleDefinitionS2_S2_RK8G4String
   fun:_ZN33G4CollisionMesonBaryonToResonanceC1Ev
   fun:_ZN22G4CollisionMesonBaryonC1Ev
   fun:_ZN11G4ScattererC1Ev
   fun:_ZN15G4BinaryCascadeC1EP19G4VPreCompoundModel
   fun:_ZN24G4BinaryLightIonReactionC1EP19G4VPreCompoundModel
}

{
   basf2 suppression 271
   Memcheck:Leak
   fun:_Znwm
   fun:_ZNSs4_Rep9_S_createEmmRKSaIcE
   fun:_ZNSs12_S_constructIPKcEEPcT_S3_RKSaIcESt20forward_iterator_tag.part.29
   fun:_ZNSsC1EPKcRKSaIcE
   fun:_ZN20G4BaryonPartialWidthC1Ev
   fun:_ZN32G4ConcreteMesonBaryonToResonance21theBaryonPartialWidthEv
   fun:_ZN32G4ConcreteMesonBaryonToResonanceC1EPK20G4ParticleDefinitionS2_S2_RK8G4String
   fun:_ZN33G4CollisionMesonBaryonToResonanceC1Ev
   fun:_ZN22G4CollisionMesonBaryonC1Ev
   fun:_ZN11G4ScattererC1Ev
   fun:_ZN15G4BinaryCascadeC1EP19G4VPreCompoundModel
   fun:_ZN24G4BinaryLightIonReactionC1EP19G4VPreCompoundModel
}

{
   basf2 suppression 272
   Memcheck:Leak
   fun:_Znwm
   fun:_ZNSs4_Rep9_S_createEmmRKSaIcE
   fun:_ZNSs12_S_constructIPKcEEPcT_S3_RKSaIcESt20forward_iterator_tag.part.29
   fun:_ZNSsC1EPKcRKSaIcE
   fun:_ZN20G4BaryonPartialWidthC1Ev
   fun:_ZN32G4ConcreteMesonBaryonToResonance21theBaryonPartialWidthEv
   fun:_ZN32G4ConcreteMesonBaryonToResonanceC1EPK20G4ParticleDefinitionS2_S2_RK8G4String
   fun:_ZN33G4CollisionMesonBaryonToResonanceC1Ev
   fun:_ZN22G4CollisionMesonBaryonC1Ev
   fun:_ZN11G4ScattererC1Ev
   fun:_ZN15G4BinaryCascadeC1EP19G4VPreCompoundModel
   fun:_ZN24G4BinaryLightIonReactionC1EP19G4VPreCompoundModel
}

{
   basf2 suppression 273
   Memcheck:Leak
   fun:_Znwm
   fun:_ZNSs4_Rep9_S_createEmmRKSaIcE
   fun:_ZNSs12_S_constructIPKcEEPcT_S3_RKSaIcESt20forward_iterator_tag.part.29
   fun:_ZNSsC1EPKcRKSaIcE
   fun:_ZN20G4BaryonPartialWidthC1Ev
   fun:_ZN32G4ConcreteMesonBaryonToResonance21theBaryonPartialWidthEv
   fun:_ZN32G4ConcreteMesonBaryonToResonanceC1EPK20G4ParticleDefinitionS2_S2_RK8G4String
   fun:_ZN33G4CollisionMesonBaryonToResonanceC1Ev
   fun:_ZN22G4CollisionMesonBaryonC1Ev
   fun:_ZN11G4ScattererC1Ev
   fun:_ZN15G4BinaryCascadeC1EP19G4VPreCompoundModel
   fun:_ZN24G4BinaryLightIonReactionC1EP19G4VPreCompoundModel
}

{
   basf2 suppression 274
   Memcheck:Leak
   fun:_Znwm
   fun:_ZNSs4_Rep9_S_createEmmRKSaIcE
   fun:_ZNSs12_S_constructIPKcEEPcT_S3_RKSaIcESt20forward_iterator_tag.part.29
   fun:_ZNSsC1EPKcRKSaIcE
   fun:_ZN20G4BaryonPartialWidthC1Ev
   fun:_ZN32G4ConcreteMesonBaryonToResonance21theBaryonPartialWidthEv
   fun:_ZN32G4ConcreteMesonBaryonToResonanceC1EPK20G4ParticleDefinitionS2_S2_RK8G4String
   fun:_ZN33G4CollisionMesonBaryonToResonanceC1Ev
   fun:_ZN22G4CollisionMesonBaryonC1Ev
   fun:_ZN11G4ScattererC1Ev
   fun:_ZN15G4BinaryCascadeC1EP19G4VPreCompoundModel
   fun:_ZN24G4BinaryLightIonReactionC1EP19G4VPreCompoundModel
}

{
   basf2 suppression 275
   Memcheck:Leak
   fun:_Znwm
   fun:_ZNSs4_Rep9_S_createEmmRKSaIcE
   fun:_ZNSs12_S_constructIPKcEEPcT_S3_RKSaIcESt20forward_iterator_tag.part.29
   fun:_ZNSsC1EPKcRKSaIcE
   fun:_ZN20G4BaryonPartialWidthC1Ev
   fun:_ZN32G4ConcreteMesonBaryonToResonance21theBaryonPartialWidthEv
   fun:_ZN32G4ConcreteMesonBaryonToResonanceC1EPK20G4ParticleDefinitionS2_S2_RK8G4String
   fun:_ZN33G4CollisionMesonBaryonToResonanceC1Ev
   fun:_ZN22G4CollisionMesonBaryonC1Ev
   fun:_ZN11G4ScattererC1Ev
   fun:_ZN15G4BinaryCascadeC1EP19G4VPreCompoundModel
   fun:_ZN24G4BinaryLightIonReactionC1EP19G4VPreCompoundModel
}

{
   basf2 suppression 276
   Memcheck:Leak
   fun:_Znwm
   fun:_ZNSs4_Rep9_S_createEmmRKSaIcE
   fun:_ZNSs12_S_constructIPKcEEPcT_S3_RKSaIcESt20forward_iterator_tag.part.29
   fun:_ZNSsC1EPKcRKSaIcE
   fun:_ZN20G4BaryonPartialWidthC1Ev
   fun:_ZN32G4ConcreteMesonBaryonToResonance21theBaryonPartialWidthEv
   fun:_ZN32G4ConcreteMesonBaryonToResonanceC1EPK20G4ParticleDefinitionS2_S2_RK8G4String
   fun:_ZN33G4CollisionMesonBaryonToResonanceC1Ev
   fun:_ZN22G4CollisionMesonBaryonC1Ev
   fun:_ZN11G4ScattererC1Ev
   fun:_ZN15G4BinaryCascadeC1EP19G4VPreCompoundModel
   fun:_ZN24G4BinaryLightIonReactionC1EP19G4VPreCompoundModel
}

{
   basf2 suppression 277
   Memcheck:Leak
   fun:_Znwm
   fun:_ZNSs4_Rep9_S_createEmmRKSaIcE
   fun:_ZNSs12_S_constructIPKcEEPcT_S3_RKSaIcESt20forward_iterator_tag.part.29
   fun:_ZNSsC1EPKcRKSaIcE
   fun:_ZN20G4BaryonPartialWidthC1Ev
   fun:_ZN32G4ConcreteMesonBaryonToResonance21theBaryonPartialWidthEv
   fun:_ZN32G4ConcreteMesonBaryonToResonanceC1EPK20G4ParticleDefinitionS2_S2_RK8G4String
   fun:_ZN33G4CollisionMesonBaryonToResonanceC1Ev
   fun:_ZN22G4CollisionMesonBaryonC1Ev
   fun:_ZN11G4ScattererC1Ev
   fun:_ZN15G4BinaryCascadeC1EP19G4VPreCompoundModel
   fun:_ZN24G4BinaryLightIonReactionC1EP19G4VPreCompoundModel
}

{
   basf2 suppression 278
   Memcheck:Leak
   fun:_Znwm
   fun:_ZNSs4_Rep9_S_createEmmRKSaIcE
   fun:_ZNSs12_S_constructIPKcEEPcT_S3_RKSaIcESt20forward_iterator_tag.part.29
   fun:_ZNSsC1EPKcRKSaIcE
   fun:_ZN20G4BaryonPartialWidthC1Ev
   fun:_ZN32G4ConcreteMesonBaryonToResonance21theBaryonPartialWidthEv
   fun:_ZN32G4ConcreteMesonBaryonToResonanceC1EPK20G4ParticleDefinitionS2_S2_RK8G4String
   fun:_ZN33G4CollisionMesonBaryonToResonanceC1Ev
   fun:_ZN22G4CollisionMesonBaryonC1Ev
   fun:_ZN11G4ScattererC1Ev
   fun:_ZN15G4BinaryCascadeC1EP19G4VPreCompoundModel
   fun:_ZN24G4BinaryLightIonReactionC1EP19G4VPreCompoundModel
}

{
   basf2 suppression 279
   Memcheck:Leak
   fun:_Znwm
   fun:_ZNSs4_Rep9_S_createEmmRKSaIcE
   fun:_ZNSs12_S_constructIPKcEEPcT_S3_RKSaIcESt20forward_iterator_tag.part.29
   fun:_ZNSsC1EPKcRKSaIcE
   fun:_ZN20G4BaryonPartialWidthC1Ev
   fun:_ZN32G4ConcreteMesonBaryonToResonance21theBaryonPartialWidthEv
   fun:_ZN32G4ConcreteMesonBaryonToResonanceC1EPK20G4ParticleDefinitionS2_S2_RK8G4String
   fun:_ZN33G4CollisionMesonBaryonToResonanceC1Ev
   fun:_ZN22G4CollisionMesonBaryonC1Ev
   fun:_ZN11G4ScattererC1Ev
   fun:_ZN15G4BinaryCascadeC1EP19G4VPreCompoundModel
   fun:_ZN24G4BinaryLightIonReactionC1EP19G4VPreCompoundModel
}

{
   basf2 suppression 280
   Memcheck:Leak
   fun:_Znwm
   fun:_ZNSs4_Rep9_S_createEmmRKSaIcE
   fun:_ZNSs12_S_constructIPKcEEPcT_S3_RKSaIcESt20forward_iterator_tag.part.29
   fun:_ZNSsC1EPKcRKSaIcE
   fun:_ZN20G4BaryonPartialWidthC1Ev
   fun:_ZN32G4ConcreteMesonBaryonToResonance21theBaryonPartialWidthEv
   fun:_ZN32G4ConcreteMesonBaryonToResonanceC1EPK20G4ParticleDefinitionS2_S2_RK8G4String
   fun:_ZN33G4CollisionMesonBaryonToResonanceC1Ev
   fun:_ZN22G4CollisionMesonBaryonC1Ev
   fun:_ZN11G4ScattererC1Ev
   fun:_ZN15G4BinaryCascadeC1EP19G4VPreCompoundModel
   fun:_ZN24G4BinaryLightIonReactionC1EP19G4VPreCompoundModel
}

{
   basf2 suppression 281
   Memcheck:Leak
   fun:_Znwm
   fun:_ZNSs4_Rep9_S_createEmmRKSaIcE
   fun:_ZNSs12_S_constructIPKcEEPcT_S3_RKSaIcESt20forward_iterator_tag.part.29
   fun:_ZNSsC1EPKcRKSaIcE
   fun:_ZN20G4BaryonPartialWidthC1Ev
   fun:_ZN32G4ConcreteMesonBaryonToResonance21theBaryonPartialWidthEv
   fun:_ZN32G4ConcreteMesonBaryonToResonanceC1EPK20G4ParticleDefinitionS2_S2_RK8G4String
   fun:_ZN33G4CollisionMesonBaryonToResonanceC1Ev
   fun:_ZN22G4CollisionMesonBaryonC1Ev
   fun:_ZN11G4ScattererC1Ev
   fun:_ZN15G4BinaryCascadeC1EP19G4VPreCompoundModel
   fun:_ZN24G4BinaryLightIonReactionC1EP19G4VPreCompoundModel
}

{
   basf2 suppression 282
   Memcheck:Leak
   fun:_Znwm
   fun:_ZNSs4_Rep9_S_createEmmRKSaIcE
   fun:_ZNSs12_S_constructIPKcEEPcT_S3_RKSaIcESt20forward_iterator_tag.part.29
   fun:_ZNSsC1EPKcRKSaIcE
   fun:_ZN20G4BaryonPartialWidthC1Ev
   fun:_ZN32G4ConcreteMesonBaryonToResonance21theBaryonPartialWidthEv
   fun:_ZN32G4ConcreteMesonBaryonToResonanceC1EPK20G4ParticleDefinitionS2_S2_RK8G4String
   fun:_ZN33G4CollisionMesonBaryonToResonanceC1Ev
   fun:_ZN22G4CollisionMesonBaryonC1Ev
   fun:_ZN11G4ScattererC1Ev
   fun:_ZN15G4BinaryCascadeC1EP19G4VPreCompoundModel
   fun:_ZN24G4BinaryLightIonReactionC1EP19G4VPreCompoundModel
}

{
   basf2 suppression 283
   Memcheck:Leak
   fun:_Znwm
   fun:_ZNSs4_Rep9_S_createEmmRKSaIcE
   fun:_ZNSs12_S_constructIPKcEEPcT_S3_RKSaIcESt20forward_iterator_tag.part.29
   fun:_ZNSsC1EPKcRKSaIcE
   fun:_ZN20G4BaryonPartialWidthC1Ev
   fun:_ZN32G4ConcreteMesonBaryonToResonance21theBaryonPartialWidthEv
   fun:_ZN32G4ConcreteMesonBaryonToResonanceC1EPK20G4ParticleDefinitionS2_S2_RK8G4String
   fun:_ZN33G4CollisionMesonBaryonToResonanceC1Ev
   fun:_ZN22G4CollisionMesonBaryonC1Ev
   fun:_ZN11G4ScattererC1Ev
   fun:_ZN15G4BinaryCascadeC1EP19G4VPreCompoundModel
   fun:_ZN24G4BinaryLightIonReactionC1EP19G4VPreCompoundModel
}

{
   basf2 suppression 284
   Memcheck:Leak
   fun:_Znwm
   fun:_ZNSs4_Rep9_S_createEmmRKSaIcE
   fun:_ZNSs12_S_constructIPKcEEPcT_S3_RKSaIcESt20forward_iterator_tag.part.29
   fun:_ZNSsC1EPKcRKSaIcE
   fun:_ZN20G4BaryonPartialWidthC1Ev
   fun:_ZN32G4ConcreteMesonBaryonToResonance21theBaryonPartialWidthEv
   fun:_ZN32G4ConcreteMesonBaryonToResonanceC1EPK20G4ParticleDefinitionS2_S2_RK8G4String
   fun:_ZN33G4CollisionMesonBaryonToResonanceC1Ev
   fun:_ZN22G4CollisionMesonBaryonC1Ev
   fun:_ZN11G4ScattererC1Ev
   fun:_ZN15G4BinaryCascadeC1EP19G4VPreCompoundModel
   fun:_ZN24G4BinaryLightIonReactionC1EP19G4VPreCompoundModel
}

{
   basf2 suppression 285
   Memcheck:Leak
   fun:_Znwm
   fun:_ZNSs4_Rep9_S_createEmmRKSaIcE
   fun:_ZNSs12_S_constructIPKcEEPcT_S3_RKSaIcESt20forward_iterator_tag.part.29
   fun:_ZNSsC1EPKcRKSaIcE
   fun:_ZN20G4BaryonPartialWidthC1Ev
   fun:_ZN32G4ConcreteMesonBaryonToResonance21theBaryonPartialWidthEv
   fun:_ZN32G4ConcreteMesonBaryonToResonanceC1EPK20G4ParticleDefinitionS2_S2_RK8G4String
   fun:_ZN33G4CollisionMesonBaryonToResonanceC1Ev
   fun:_ZN22G4CollisionMesonBaryonC1Ev
   fun:_ZN11G4ScattererC1Ev
   fun:_ZN15G4BinaryCascadeC1EP19G4VPreCompoundModel
   fun:_ZN24G4BinaryLightIonReactionC1EP19G4VPreCompoundModel
}

{
   basf2 suppression 286
   Memcheck:Leak
   fun:_Znwm
   fun:_ZNSs4_Rep9_S_createEmmRKSaIcE
   fun:_ZNSs12_S_constructIPKcEEPcT_S3_RKSaIcESt20forward_iterator_tag.part.29
   fun:_ZNSsC1EPKcRKSaIcE
   fun:_ZN20G4BaryonPartialWidthC1Ev
   fun:_ZN32G4ConcreteMesonBaryonToResonance21theBaryonPartialWidthEv
   fun:_ZN32G4ConcreteMesonBaryonToResonanceC1EPK20G4ParticleDefinitionS2_S2_RK8G4String
   fun:_ZN33G4CollisionMesonBaryonToResonanceC1Ev
   fun:_ZN22G4CollisionMesonBaryonC1Ev
   fun:_ZN11G4ScattererC1Ev
   fun:_ZN15G4BinaryCascadeC1EP19G4VPreCompoundModel
   fun:_ZN24G4BinaryLightIonReactionC1EP19G4VPreCompoundModel
}

{
   basf2 suppression 287
   Memcheck:Leak
   fun:_Znwm
   fun:_ZNSs4_Rep9_S_createEmmRKSaIcE
   fun:_ZNSs12_S_constructIPKcEEPcT_S3_RKSaIcESt20forward_iterator_tag.part.29
   fun:_ZNSsC1EPKcRKSaIcE
   fun:_ZN20G4BaryonPartialWidthC1Ev
   fun:_ZN32G4ConcreteMesonBaryonToResonance21theBaryonPartialWidthEv
   fun:_ZN32G4ConcreteMesonBaryonToResonanceC1EPK20G4ParticleDefinitionS2_S2_RK8G4String
   fun:_ZN33G4CollisionMesonBaryonToResonanceC1Ev
   fun:_ZN22G4CollisionMesonBaryonC1Ev
   fun:_ZN11G4ScattererC1Ev
   fun:_ZN15G4BinaryCascadeC1EP19G4VPreCompoundModel
   fun:_ZN24G4BinaryLightIonReactionC1EP19G4VPreCompoundModel
}

{
   basf2 suppression 288
   Memcheck:Leak
   fun:_Znwm
   fun:_ZNSs4_Rep9_S_createEmmRKSaIcE
   fun:_ZNSs12_S_constructIPKcEEPcT_S3_RKSaIcESt20forward_iterator_tag.part.29
   fun:_ZNSsC1EPKcRKSaIcE
   fun:_ZN20G4BaryonPartialWidthC1Ev
   fun:_ZN32G4ConcreteMesonBaryonToResonance21theBaryonPartialWidthEv
   fun:_ZN32G4ConcreteMesonBaryonToResonanceC1EPK20G4ParticleDefinitionS2_S2_RK8G4String
   fun:_ZN33G4CollisionMesonBaryonToResonanceC1Ev
   fun:_ZN22G4CollisionMesonBaryonC1Ev
   fun:_ZN11G4ScattererC1Ev
   fun:_ZN15G4BinaryCascadeC1EP19G4VPreCompoundModel
   fun:_ZN24G4BinaryLightIonReactionC1EP19G4VPreCompoundModel
}

{
   basf2 suppression 289
   Memcheck:Leak
   fun:_Znwm
   fun:_ZNSs4_Rep9_S_createEmmRKSaIcE
   fun:_ZNSs12_S_constructIPKcEEPcT_S3_RKSaIcESt20forward_iterator_tag.part.29
   fun:_ZNSsC1EPKcRKSaIcE
   fun:_ZN20G4BaryonPartialWidthC1Ev
   fun:_ZN32G4ConcreteMesonBaryonToResonance21theBaryonPartialWidthEv
   fun:_ZN32G4ConcreteMesonBaryonToResonanceC1EPK20G4ParticleDefinitionS2_S2_RK8G4String
   fun:_ZN33G4CollisionMesonBaryonToResonanceC1Ev
   fun:_ZN22G4CollisionMesonBaryonC1Ev
   fun:_ZN11G4ScattererC1Ev
   fun:_ZN15G4BinaryCascadeC1EP19G4VPreCompoundModel
   fun:_ZN24G4BinaryLightIonReactionC1EP19G4VPreCompoundModel
}

{
   basf2 suppression 290
   Memcheck:Leak
   fun:_Znwm
   fun:_ZNSs4_Rep9_S_createEmmRKSaIcE
   fun:_ZNSs12_S_constructIPKcEEPcT_S3_RKSaIcESt20forward_iterator_tag.part.29
   fun:_ZNSsC1EPKcRKSaIcE
   fun:_ZN20G4BaryonPartialWidthC1Ev
   fun:_ZN32G4ConcreteMesonBaryonToResonance21theBaryonPartialWidthEv
   fun:_ZN32G4ConcreteMesonBaryonToResonanceC1EPK20G4ParticleDefinitionS2_S2_RK8G4String
   fun:_ZN33G4CollisionMesonBaryonToResonanceC1Ev
   fun:_ZN22G4CollisionMesonBaryonC1Ev
   fun:_ZN11G4ScattererC1Ev
   fun:_ZN15G4BinaryCascadeC1EP19G4VPreCompoundModel
   fun:_ZN24G4BinaryLightIonReactionC1EP19G4VPreCompoundModel
}

{
   basf2 suppression 291
   Memcheck:Leak
   fun:_Znwm
   fun:_ZNSs4_Rep9_S_createEmmRKSaIcE
   fun:_ZNSs12_S_constructIPKcEEPcT_S3_RKSaIcESt20forward_iterator_tag.part.29
   fun:_ZNSsC1EPKcRKSaIcE
   fun:_ZN20G4BaryonPartialWidthC1Ev
   fun:_ZN32G4ConcreteMesonBaryonToResonance21theBaryonPartialWidthEv
   fun:_ZN32G4ConcreteMesonBaryonToResonanceC1EPK20G4ParticleDefinitionS2_S2_RK8G4String
   fun:_ZN33G4CollisionMesonBaryonToResonanceC1Ev
   fun:_ZN22G4CollisionMesonBaryonC1Ev
   fun:_ZN11G4ScattererC1Ev
   fun:_ZN15G4BinaryCascadeC1EP19G4VPreCompoundModel
   fun:_ZN24G4BinaryLightIonReactionC1EP19G4VPreCompoundModel
}

{
   basf2 suppression 292
   Memcheck:Leak
   fun:_Znwm
   fun:_ZNSs4_Rep9_S_createEmmRKSaIcE
   fun:_ZNSs12_S_constructIPKcEEPcT_S3_RKSaIcESt20forward_iterator_tag.part.29
   fun:_ZNSsC1EPKcRKSaIcE
   fun:_ZN20G4BaryonPartialWidthC1Ev
   fun:_ZN32G4ConcreteMesonBaryonToResonance21theBaryonPartialWidthEv
   fun:_ZN32G4ConcreteMesonBaryonToResonanceC1EPK20G4ParticleDefinitionS2_S2_RK8G4String
   fun:_ZN33G4CollisionMesonBaryonToResonanceC1Ev
   fun:_ZN22G4CollisionMesonBaryonC1Ev
   fun:_ZN11G4ScattererC1Ev
   fun:_ZN15G4BinaryCascadeC1EP19G4VPreCompoundModel
   fun:_ZN24G4BinaryLightIonReactionC1EP19G4VPreCompoundModel
}

{
   basf2 suppression 293
   Memcheck:Leak
   fun:_Znwm
   fun:_ZNSs4_Rep9_S_createEmmRKSaIcE
   fun:_ZNSs12_S_constructIPKcEEPcT_S3_RKSaIcESt20forward_iterator_tag.part.29
   fun:_ZNSsC1EPKcRKSaIcE
   fun:_ZN20G4BaryonPartialWidthC1Ev
   fun:_ZN32G4ConcreteMesonBaryonToResonance21theBaryonPartialWidthEv
   fun:_ZN32G4ConcreteMesonBaryonToResonanceC1EPK20G4ParticleDefinitionS2_S2_RK8G4String
   fun:_ZN33G4CollisionMesonBaryonToResonanceC1Ev
   fun:_ZN22G4CollisionMesonBaryonC1Ev
   fun:_ZN11G4ScattererC1Ev
   fun:_ZN15G4BinaryCascadeC1EP19G4VPreCompoundModel
   fun:_ZN24G4BinaryLightIonReactionC1EP19G4VPreCompoundModel
}

{
   basf2 suppression 294
   Memcheck:Leak
   fun:_Znwm
   fun:_ZNSs4_Rep9_S_createEmmRKSaIcE
   fun:_ZNSs12_S_constructIPKcEEPcT_S3_RKSaIcESt20forward_iterator_tag.part.29
   fun:_ZNSsC1EPKcRKSaIcE
   fun:_ZN20G4BaryonPartialWidthC1Ev
   fun:_ZN32G4ConcreteMesonBaryonToResonance21theBaryonPartialWidthEv
   fun:_ZN32G4ConcreteMesonBaryonToResonanceC1EPK20G4ParticleDefinitionS2_S2_RK8G4String
   fun:_ZN33G4CollisionMesonBaryonToResonanceC1Ev
   fun:_ZN22G4CollisionMesonBaryonC1Ev
   fun:_ZN11G4ScattererC1Ev
   fun:_ZN15G4BinaryCascadeC1EP19G4VPreCompoundModel
   fun:_ZN24G4BinaryLightIonReactionC1EP19G4VPreCompoundModel
}

{
   basf2 suppression 295
   Memcheck:Leak
   fun:_Znwm
   fun:_ZNSs4_Rep9_S_createEmmRKSaIcE
   fun:_ZNSs12_S_constructIPKcEEPcT_S3_RKSaIcESt20forward_iterator_tag.part.29
   fun:_ZNSsC1EPKcRKSaIcE
   fun:_ZN20G4BaryonPartialWidthC1Ev
   fun:_ZN32G4ConcreteMesonBaryonToResonance21theBaryonPartialWidthEv
   fun:_ZN32G4ConcreteMesonBaryonToResonanceC1EPK20G4ParticleDefinitionS2_S2_RK8G4String
   fun:_ZN33G4CollisionMesonBaryonToResonanceC1Ev
   fun:_ZN22G4CollisionMesonBaryonC1Ev
   fun:_ZN11G4ScattererC1Ev
   fun:_ZN15G4BinaryCascadeC1EP19G4VPreCompoundModel
   fun:_ZN24G4BinaryLightIonReactionC1EP19G4VPreCompoundModel
}

{
   basf2 suppression 296
   Memcheck:Leak
   fun:_Znwm
   fun:_ZNSs4_Rep9_S_createEmmRKSaIcE
   fun:_ZNSs12_S_constructIPKcEEPcT_S3_RKSaIcESt20forward_iterator_tag.part.29
   fun:_ZNSsC1EPKcRKSaIcE
   fun:_ZN20G4BaryonPartialWidthC1Ev
   fun:_ZN32G4ConcreteMesonBaryonToResonance21theBaryonPartialWidthEv
   fun:_ZN32G4ConcreteMesonBaryonToResonanceC1EPK20G4ParticleDefinitionS2_S2_RK8G4String
   fun:_ZN33G4CollisionMesonBaryonToResonanceC1Ev
   fun:_ZN22G4CollisionMesonBaryonC1Ev
   fun:_ZN11G4ScattererC1Ev
   fun:_ZN15G4BinaryCascadeC1EP19G4VPreCompoundModel
   fun:_ZN24G4BinaryLightIonReactionC1EP19G4VPreCompoundModel
}

{
   basf2 suppression 297
   Memcheck:Leak
   fun:_Znwm
   fun:_ZNSs4_Rep9_S_createEmmRKSaIcE
   fun:_ZNSs12_S_constructIPKcEEPcT_S3_RKSaIcESt20forward_iterator_tag.part.29
   fun:_ZNSsC1EPKcRKSaIcE
   fun:_ZN20G4BaryonPartialWidthC1Ev
   fun:_ZN32G4ConcreteMesonBaryonToResonance21theBaryonPartialWidthEv
   fun:_ZN32G4ConcreteMesonBaryonToResonanceC1EPK20G4ParticleDefinitionS2_S2_RK8G4String
   fun:_ZN33G4CollisionMesonBaryonToResonanceC1Ev
   fun:_ZN22G4CollisionMesonBaryonC1Ev
   fun:_ZN11G4ScattererC1Ev
   fun:_ZN15G4BinaryCascadeC1EP19G4VPreCompoundModel
   fun:_ZN24G4BinaryLightIonReactionC1EP19G4VPreCompoundModel
}

{
   basf2 suppression 298
   Memcheck:Leak
   fun:_Znwm
   fun:_ZNSs4_Rep9_S_createEmmRKSaIcE
   fun:_ZNSs12_S_constructIPKcEEPcT_S3_RKSaIcESt20forward_iterator_tag.part.29
   fun:_ZNSsC1EPKcRKSaIcE
   fun:_ZN20G4BaryonPartialWidthC1Ev
   fun:_ZN32G4ConcreteMesonBaryonToResonance21theBaryonPartialWidthEv
   fun:_ZN32G4ConcreteMesonBaryonToResonanceC1EPK20G4ParticleDefinitionS2_S2_RK8G4String
   fun:_ZN33G4CollisionMesonBaryonToResonanceC1Ev
   fun:_ZN22G4CollisionMesonBaryonC1Ev
   fun:_ZN11G4ScattererC1Ev
   fun:_ZN15G4BinaryCascadeC1EP19G4VPreCompoundModel
   fun:_ZN24G4BinaryLightIonReactionC1EP19G4VPreCompoundModel
}

{
   basf2 suppression 299
   Memcheck:Leak
   fun:_Znwm
   fun:_ZNSs4_Rep9_S_createEmmRKSaIcE
   fun:_ZNSs12_S_constructIPKcEEPcT_S3_RKSaIcESt20forward_iterator_tag.part.29
   fun:_ZNSsC1EPKcRKSaIcE
   fun:_ZN20G4BaryonPartialWidthC1Ev
   fun:_ZN32G4ConcreteMesonBaryonToResonance21theBaryonPartialWidthEv
   fun:_ZN32G4ConcreteMesonBaryonToResonanceC1EPK20G4ParticleDefinitionS2_S2_RK8G4String
   fun:_ZN33G4CollisionMesonBaryonToResonanceC1Ev
   fun:_ZN22G4CollisionMesonBaryonC1Ev
   fun:_ZN11G4ScattererC1Ev
   fun:_ZN15G4BinaryCascadeC1EP19G4VPreCompoundModel
   fun:_ZN24G4BinaryLightIonReactionC1EP19G4VPreCompoundModel
}

{
   basf2 suppression 300
   Memcheck:Leak
   fun:_Znwm
   fun:_ZNSs4_Rep9_S_createEmmRKSaIcE
   fun:_ZNSs12_S_constructIPKcEEPcT_S3_RKSaIcESt20forward_iterator_tag.part.29
   fun:_ZNSsC1EPKcRKSaIcE
   fun:_ZN20G4BaryonPartialWidthC1Ev
   fun:_ZN32G4ConcreteMesonBaryonToResonance21theBaryonPartialWidthEv
   fun:_ZN32G4ConcreteMesonBaryonToResonanceC1EPK20G4ParticleDefinitionS2_S2_RK8G4String
   fun:_ZN33G4CollisionMesonBaryonToResonanceC1Ev
   fun:_ZN22G4CollisionMesonBaryonC1Ev
   fun:_ZN11G4ScattererC1Ev
   fun:_ZN15G4BinaryCascadeC1EP19G4VPreCompoundModel
   fun:_ZN24G4BinaryLightIonReactionC1EP19G4VPreCompoundModel
}

{
   basf2 suppression 301
   Memcheck:Leak
   fun:_Znwm
   fun:_ZNSs4_Rep9_S_createEmmRKSaIcE
   fun:_ZNSs12_S_constructIPKcEEPcT_S3_RKSaIcESt20forward_iterator_tag.part.29
   fun:_ZNSsC1EPKcRKSaIcE
   fun:_ZN20G4BaryonPartialWidthC1Ev
   fun:_ZN32G4ConcreteMesonBaryonToResonance21theBaryonPartialWidthEv
   fun:_ZN32G4ConcreteMesonBaryonToResonanceC1EPK20G4ParticleDefinitionS2_S2_RK8G4String
   fun:_ZN33G4CollisionMesonBaryonToResonanceC1Ev
   fun:_ZN22G4CollisionMesonBaryonC1Ev
   fun:_ZN11G4ScattererC1Ev
   fun:_ZN15G4BinaryCascadeC1EP19G4VPreCompoundModel
   fun:_ZN24G4BinaryLightIonReactionC1EP19G4VPreCompoundModel
}

{
   basf2 suppression 302
   Memcheck:Leak
   fun:_Znwm
   fun:_ZNSs4_Rep9_S_createEmmRKSaIcE
   fun:_ZNSs12_S_constructIPKcEEPcT_S3_RKSaIcESt20forward_iterator_tag.part.29
   fun:_ZNSsC1EPKcRKSaIcE
   fun:_ZN20G4BaryonPartialWidthC1Ev
   fun:_ZN32G4ConcreteMesonBaryonToResonance21theBaryonPartialWidthEv
   fun:_ZN32G4ConcreteMesonBaryonToResonanceC1EPK20G4ParticleDefinitionS2_S2_RK8G4String
   fun:_ZN33G4CollisionMesonBaryonToResonanceC1Ev
   fun:_ZN22G4CollisionMesonBaryonC1Ev
   fun:_ZN11G4ScattererC1Ev
   fun:_ZN15G4BinaryCascadeC1EP19G4VPreCompoundModel
   fun:_ZN24G4BinaryLightIonReactionC1EP19G4VPreCompoundModel
}

{
   basf2 suppression 303
   Memcheck:Leak
   fun:_Znwm
   fun:_ZNSs4_Rep9_S_createEmmRKSaIcE
   fun:_ZNSs12_S_constructIPKcEEPcT_S3_RKSaIcESt20forward_iterator_tag.part.29
   fun:_ZNSsC1EPKcRKSaIcE
   fun:_ZN20G4BaryonPartialWidthC1Ev
   fun:_ZN32G4ConcreteMesonBaryonToResonance21theBaryonPartialWidthEv
   fun:_ZN32G4ConcreteMesonBaryonToResonanceC1EPK20G4ParticleDefinitionS2_S2_RK8G4String
   fun:_ZN33G4CollisionMesonBaryonToResonanceC1Ev
   fun:_ZN22G4CollisionMesonBaryonC1Ev
   fun:_ZN11G4ScattererC1Ev
   fun:_ZN15G4BinaryCascadeC1EP19G4VPreCompoundModel
   fun:_ZN24G4BinaryLightIonReactionC1EP19G4VPreCompoundModel
}

{
   basf2 suppression 304
   Memcheck:Leak
   fun:_Znwm
   fun:_ZNSs4_Rep9_S_createEmmRKSaIcE
   fun:_ZNSs12_S_constructIPKcEEPcT_S3_RKSaIcESt20forward_iterator_tag.part.29
   fun:_ZNSsC1EPKcRKSaIcE
   fun:_ZN20G4BaryonPartialWidthC1Ev
   fun:_ZN32G4ConcreteMesonBaryonToResonance21theBaryonPartialWidthEv
   fun:_ZN32G4ConcreteMesonBaryonToResonanceC1EPK20G4ParticleDefinitionS2_S2_RK8G4String
   fun:_ZN33G4CollisionMesonBaryonToResonanceC1Ev
   fun:_ZN22G4CollisionMesonBaryonC1Ev
   fun:_ZN11G4ScattererC1Ev
   fun:_ZN15G4BinaryCascadeC1EP19G4VPreCompoundModel
   fun:_ZN24G4BinaryLightIonReactionC1EP19G4VPreCompoundModel
}

{
   basf2 suppression 305
   Memcheck:Leak
   fun:_Znwm
   fun:_ZNSs4_Rep9_S_createEmmRKSaIcE
   fun:_ZNSs12_S_constructIPKcEEPcT_S3_RKSaIcESt20forward_iterator_tag.part.29
   fun:_ZNSsC1EPKcRKSaIcE
   fun:_ZN20G4BaryonPartialWidthC1Ev
   fun:_ZN32G4ConcreteMesonBaryonToResonance21theBaryonPartialWidthEv
   fun:_ZN32G4ConcreteMesonBaryonToResonanceC1EPK20G4ParticleDefinitionS2_S2_RK8G4String
   fun:_ZN33G4CollisionMesonBaryonToResonanceC1Ev
   fun:_ZN22G4CollisionMesonBaryonC1Ev
   fun:_ZN11G4ScattererC1Ev
   fun:_ZN15G4BinaryCascadeC1EP19G4VPreCompoundModel
   fun:_ZN24G4BinaryLightIonReactionC1EP19G4VPreCompoundModel
}

{
   basf2 suppression 306
   Memcheck:Leak
   fun:_Znwm
   fun:_ZNSs4_Rep9_S_createEmmRKSaIcE
   fun:_ZNSs12_S_constructIPKcEEPcT_S3_RKSaIcESt20forward_iterator_tag.part.29
   fun:_ZNSsC1EPKcRKSaIcE
   fun:_ZN20G4BaryonPartialWidthC1Ev
   fun:_ZN32G4ConcreteMesonBaryonToResonance21theBaryonPartialWidthEv
   fun:_ZN32G4ConcreteMesonBaryonToResonanceC1EPK20G4ParticleDefinitionS2_S2_RK8G4String
   fun:_ZN33G4CollisionMesonBaryonToResonanceC1Ev
   fun:_ZN22G4CollisionMesonBaryonC1Ev
   fun:_ZN11G4ScattererC1Ev
   fun:_ZN15G4BinaryCascadeC1EP19G4VPreCompoundModel
   fun:_ZN24G4BinaryLightIonReactionC1EP19G4VPreCompoundModel
}

{
   basf2 suppression 307
   Memcheck:Leak
   fun:_Znwm
   fun:_ZNSs4_Rep9_S_createEmmRKSaIcE
   fun:_ZNSs12_S_constructIPKcEEPcT_S3_RKSaIcESt20forward_iterator_tag.part.29
   fun:_ZNSsC1EPKcRKSaIcE
   fun:_ZN20G4BaryonPartialWidthC1Ev
   fun:_ZN32G4ConcreteMesonBaryonToResonance21theBaryonPartialWidthEv
   fun:_ZN32G4ConcreteMesonBaryonToResonanceC1EPK20G4ParticleDefinitionS2_S2_RK8G4String
   fun:_ZN33G4CollisionMesonBaryonToResonanceC1Ev
   fun:_ZN22G4CollisionMesonBaryonC1Ev
   fun:_ZN11G4ScattererC1Ev
   fun:_ZN15G4BinaryCascadeC1EP19G4VPreCompoundModel
   fun:_ZN24G4BinaryLightIonReactionC1EP19G4VPreCompoundModel
}

{
   basf2 suppression 308
   Memcheck:Leak
   fun:_Znwm
   fun:_ZNSs4_Rep9_S_createEmmRKSaIcE
   fun:_ZNSs12_S_constructIPKcEEPcT_S3_RKSaIcESt20forward_iterator_tag.part.29
   fun:_ZNSsC1EPKcRKSaIcE
   fun:_ZN20G4BaryonPartialWidthC1Ev
   fun:_ZN32G4ConcreteMesonBaryonToResonance21theBaryonPartialWidthEv
   fun:_ZN32G4ConcreteMesonBaryonToResonanceC1EPK20G4ParticleDefinitionS2_S2_RK8G4String
   fun:_ZN33G4CollisionMesonBaryonToResonanceC1Ev
   fun:_ZN22G4CollisionMesonBaryonC1Ev
   fun:_ZN11G4ScattererC1Ev
   fun:_ZN15G4BinaryCascadeC1EP19G4VPreCompoundModel
   fun:_ZN24G4BinaryLightIonReactionC1EP19G4VPreCompoundModel
}

{
   basf2 suppression 309
   Memcheck:Leak
   fun:_Znwm
   fun:_ZNSs4_Rep9_S_createEmmRKSaIcE
   fun:_ZNSs12_S_constructIPKcEEPcT_S3_RKSaIcESt20forward_iterator_tag.part.29
   fun:_ZNSsC1EPKcRKSaIcE
   fun:_ZN20G4BaryonPartialWidthC1Ev
   fun:_ZN32G4ConcreteMesonBaryonToResonance21theBaryonPartialWidthEv
   fun:_ZN32G4ConcreteMesonBaryonToResonanceC1EPK20G4ParticleDefinitionS2_S2_RK8G4String
   fun:_ZN33G4CollisionMesonBaryonToResonanceC1Ev
   fun:_ZN22G4CollisionMesonBaryonC1Ev
   fun:_ZN11G4ScattererC1Ev
   fun:_ZN15G4BinaryCascadeC1EP19G4VPreCompoundModel
   fun:_ZN24G4BinaryLightIonReactionC1EP19G4VPreCompoundModel
}

{
   basf2 suppression 310
   Memcheck:Leak
   fun:_Znwm
   fun:_ZNSs4_Rep9_S_createEmmRKSaIcE
   fun:_ZNSs12_S_constructIPKcEEPcT_S3_RKSaIcESt20forward_iterator_tag.part.29
   fun:_ZNSsC1EPKcRKSaIcE
   fun:_ZN20G4BaryonPartialWidthC1Ev
   fun:_ZN32G4ConcreteMesonBaryonToResonance21theBaryonPartialWidthEv
   fun:_ZN32G4ConcreteMesonBaryonToResonanceC1EPK20G4ParticleDefinitionS2_S2_RK8G4String
   fun:_ZN33G4CollisionMesonBaryonToResonanceC1Ev
   fun:_ZN22G4CollisionMesonBaryonC1Ev
   fun:_ZN11G4ScattererC1Ev
   fun:_ZN15G4BinaryCascadeC1EP19G4VPreCompoundModel
   fun:_ZN24G4BinaryLightIonReactionC1EP19G4VPreCompoundModel
}

{
   basf2 suppression 311
   Memcheck:Leak
   fun:_Znwm
   fun:_ZNSs4_Rep9_S_createEmmRKSaIcE
   fun:_ZNSs12_S_constructIPKcEEPcT_S3_RKSaIcESt20forward_iterator_tag.part.29
   fun:_ZNSsC1EPKcRKSaIcE
   fun:_ZN20G4BaryonPartialWidthC1Ev
   fun:_ZN32G4ConcreteMesonBaryonToResonance21theBaryonPartialWidthEv
   fun:_ZN32G4ConcreteMesonBaryonToResonanceC1EPK20G4ParticleDefinitionS2_S2_RK8G4String
   fun:_ZN33G4CollisionMesonBaryonToResonanceC1Ev
   fun:_ZN22G4CollisionMesonBaryonC1Ev
   fun:_ZN11G4ScattererC1Ev
   fun:_ZN15G4BinaryCascadeC1EP19G4VPreCompoundModel
   fun:_ZN24G4BinaryLightIonReactionC1EP19G4VPreCompoundModel
}

{
   basf2 suppression 312
   Memcheck:Leak
   fun:_Znwm
   fun:_ZNSs4_Rep9_S_createEmmRKSaIcE
   fun:_ZNSs12_S_constructIPKcEEPcT_S3_RKSaIcESt20forward_iterator_tag.part.29
   fun:_ZNSsC1EPKcRKSaIcE
   fun:_ZN20G4BaryonPartialWidthC1Ev
   fun:_ZN32G4ConcreteMesonBaryonToResonance21theBaryonPartialWidthEv
   fun:_ZN32G4ConcreteMesonBaryonToResonanceC1EPK20G4ParticleDefinitionS2_S2_RK8G4String
   fun:_ZN33G4CollisionMesonBaryonToResonanceC1Ev
   fun:_ZN22G4CollisionMesonBaryonC1Ev
   fun:_ZN11G4ScattererC1Ev
   fun:_ZN15G4BinaryCascadeC1EP19G4VPreCompoundModel
   fun:_ZN24G4BinaryLightIonReactionC1EP19G4VPreCompoundModel
}

{
   basf2 suppression 313
   Memcheck:Leak
   fun:_Znwm
   fun:_ZNSs4_Rep9_S_createEmmRKSaIcE
   fun:_ZNSs12_S_constructIPKcEEPcT_S3_RKSaIcESt20forward_iterator_tag.part.29
   fun:_ZNSsC1EPKcRKSaIcE
   fun:_ZN20G4BaryonPartialWidthC1Ev
   fun:_ZN32G4ConcreteMesonBaryonToResonance21theBaryonPartialWidthEv
   fun:_ZN32G4ConcreteMesonBaryonToResonanceC1EPK20G4ParticleDefinitionS2_S2_RK8G4String
   fun:_ZN33G4CollisionMesonBaryonToResonanceC1Ev
   fun:_ZN22G4CollisionMesonBaryonC1Ev
   fun:_ZN11G4ScattererC1Ev
   fun:_ZN15G4BinaryCascadeC1EP19G4VPreCompoundModel
   fun:_ZN24G4BinaryLightIonReactionC1EP19G4VPreCompoundModel
}

{
   basf2 suppression 314
   Memcheck:Leak
   fun:_Znwm
   fun:_ZNSs4_Rep9_S_createEmmRKSaIcE
   fun:_ZNSs12_S_constructIPKcEEPcT_S3_RKSaIcESt20forward_iterator_tag.part.29
   fun:_ZNSsC1EPKcRKSaIcE
   fun:_ZN20G4BaryonPartialWidthC1Ev
   fun:_ZN32G4ConcreteMesonBaryonToResonance21theBaryonPartialWidthEv
   fun:_ZN32G4ConcreteMesonBaryonToResonanceC1EPK20G4ParticleDefinitionS2_S2_RK8G4String
   fun:_ZN33G4CollisionMesonBaryonToResonanceC1Ev
   fun:_ZN22G4CollisionMesonBaryonC1Ev
   fun:_ZN11G4ScattererC1Ev
   fun:_ZN15G4BinaryCascadeC1EP19G4VPreCompoundModel
   fun:_ZN24G4BinaryLightIonReactionC1EP19G4VPreCompoundModel
}

{
   basf2 suppression 315
   Memcheck:Leak
   fun:_Znwm
   fun:_ZNSs4_Rep9_S_createEmmRKSaIcE
   fun:_ZNSs12_S_constructIPKcEEPcT_S3_RKSaIcESt20forward_iterator_tag.part.29
   fun:_ZNSsC1EPKcRKSaIcE
   fun:_ZN20G4BaryonPartialWidthC1Ev
   fun:_ZN32G4ConcreteMesonBaryonToResonance21theBaryonPartialWidthEv
   fun:_ZN32G4ConcreteMesonBaryonToResonanceC1EPK20G4ParticleDefinitionS2_S2_RK8G4String
   fun:_ZN33G4CollisionMesonBaryonToResonanceC1Ev
   fun:_ZN22G4CollisionMesonBaryonC1Ev
   fun:_ZN11G4ScattererC1Ev
   fun:_ZN15G4BinaryCascadeC1EP19G4VPreCompoundModel
   fun:_ZN24G4BinaryLightIonReactionC1EP19G4VPreCompoundModel
}

{
   basf2 suppression 316
   Memcheck:Leak
   fun:_Znwm
   fun:_ZNSs4_Rep9_S_createEmmRKSaIcE
   fun:_ZNSs12_S_constructIPKcEEPcT_S3_RKSaIcESt20forward_iterator_tag.part.29
   fun:_ZNSsC1EPKcRKSaIcE
   fun:_ZN20G4BaryonPartialWidthC1Ev
   fun:_ZN32G4ConcreteMesonBaryonToResonance21theBaryonPartialWidthEv
   fun:_ZN32G4ConcreteMesonBaryonToResonanceC1EPK20G4ParticleDefinitionS2_S2_RK8G4String
   fun:_ZN33G4CollisionMesonBaryonToResonanceC1Ev
   fun:_ZN22G4CollisionMesonBaryonC1Ev
   fun:_ZN11G4ScattererC1Ev
   fun:_ZN15G4BinaryCascadeC1EP19G4VPreCompoundModel
   fun:_ZN24G4BinaryLightIonReactionC1EP19G4VPreCompoundModel
}

{
   basf2 suppression 317
   Memcheck:Leak
   fun:_Znwm
   fun:_ZNSs4_Rep9_S_createEmmRKSaIcE
   fun:_ZNSs12_S_constructIPKcEEPcT_S3_RKSaIcESt20forward_iterator_tag.part.29
   fun:_ZNSsC1EPKcRKSaIcE
   fun:_ZN20G4BaryonPartialWidthC1Ev
   fun:_ZN32G4ConcreteMesonBaryonToResonance21theBaryonPartialWidthEv
   fun:_ZN32G4ConcreteMesonBaryonToResonanceC1EPK20G4ParticleDefinitionS2_S2_RK8G4String
   fun:_ZN33G4CollisionMesonBaryonToResonanceC1Ev
   fun:_ZN22G4CollisionMesonBaryonC1Ev
   fun:_ZN11G4ScattererC1Ev
   fun:_ZN15G4BinaryCascadeC1EP19G4VPreCompoundModel
   fun:_ZN24G4BinaryLightIonReactionC1EP19G4VPreCompoundModel
}

{
   basf2 suppression 318
   Memcheck:Leak
   fun:_Znwm
   fun:_ZNSs4_Rep9_S_createEmmRKSaIcE
   fun:_ZNSs12_S_constructIPKcEEPcT_S3_RKSaIcESt20forward_iterator_tag.part.29
   fun:_ZNSsC1EPKcRKSaIcE
   fun:_ZN20G4BaryonPartialWidthC1Ev
   fun:_ZN32G4ConcreteMesonBaryonToResonance21theBaryonPartialWidthEv
   fun:_ZN32G4ConcreteMesonBaryonToResonanceC1EPK20G4ParticleDefinitionS2_S2_RK8G4String
   fun:_ZN33G4CollisionMesonBaryonToResonanceC1Ev
   fun:_ZN22G4CollisionMesonBaryonC1Ev
   fun:_ZN11G4ScattererC1Ev
   fun:_ZN15G4BinaryCascadeC1EP19G4VPreCompoundModel
   fun:_ZN24G4BinaryLightIonReactionC1EP19G4VPreCompoundModel
}

{
   basf2 suppression 319
   Memcheck:Leak
   fun:_Znwm
   fun:_ZNSs4_Rep9_S_createEmmRKSaIcE
   fun:_ZNSs12_S_constructIPKcEEPcT_S3_RKSaIcESt20forward_iterator_tag.part.29
   fun:_ZNSsC1EPKcRKSaIcE
   fun:_ZN20G4BaryonPartialWidthC1Ev
   fun:_ZN32G4ConcreteMesonBaryonToResonance21theBaryonPartialWidthEv
   fun:_ZN32G4ConcreteMesonBaryonToResonanceC1EPK20G4ParticleDefinitionS2_S2_RK8G4String
   fun:_ZN33G4CollisionMesonBaryonToResonanceC1Ev
   fun:_ZN22G4CollisionMesonBaryonC1Ev
   fun:_ZN11G4ScattererC1Ev
   fun:_ZN15G4BinaryCascadeC1EP19G4VPreCompoundModel
   fun:_ZN24G4BinaryLightIonReactionC1EP19G4VPreCompoundModel
}

{
   basf2 suppression 320
   Memcheck:Leak
   fun:_Znwm
   fun:_ZNSs4_Rep9_S_createEmmRKSaIcE
   fun:_ZNSs12_S_constructIPKcEEPcT_S3_RKSaIcESt20forward_iterator_tag.part.29
   fun:_ZNSsC1EPKcRKSaIcE
   fun:_ZN20G4BaryonPartialWidthC1Ev
   fun:_ZN32G4ConcreteMesonBaryonToResonance21theBaryonPartialWidthEv
   fun:_ZN32G4ConcreteMesonBaryonToResonanceC1EPK20G4ParticleDefinitionS2_S2_RK8G4String
   fun:_ZN33G4CollisionMesonBaryonToResonanceC1Ev
   fun:_ZN22G4CollisionMesonBaryonC1Ev
   fun:_ZN11G4ScattererC1Ev
   fun:_ZN15G4BinaryCascadeC1EP19G4VPreCompoundModel
   fun:_ZN24G4BinaryLightIonReactionC1EP19G4VPreCompoundModel
}

{
   basf2 suppression 321
   Memcheck:Leak
   fun:_Znwm
   fun:_ZNSs4_Rep9_S_createEmmRKSaIcE
   fun:_ZNSs12_S_constructIPKcEEPcT_S3_RKSaIcESt20forward_iterator_tag.part.29
   fun:_ZNSsC1EPKcRKSaIcE
   fun:_ZN20G4BaryonPartialWidthC1Ev
   fun:_ZN32G4ConcreteMesonBaryonToResonance21theBaryonPartialWidthEv
   fun:_ZN32G4ConcreteMesonBaryonToResonanceC1EPK20G4ParticleDefinitionS2_S2_RK8G4String
   fun:_ZN33G4CollisionMesonBaryonToResonanceC1Ev
   fun:_ZN22G4CollisionMesonBaryonC1Ev
   fun:_ZN11G4ScattererC1Ev
   fun:_ZN15G4BinaryCascadeC1EP19G4VPreCompoundModel
   fun:_ZN24G4BinaryLightIonReactionC1EP19G4VPreCompoundModel
}

{
   basf2 suppression 322
   Memcheck:Leak
   fun:_Znwm
   fun:_ZNSs4_Rep9_S_createEmmRKSaIcE
   fun:_ZNSs12_S_constructIPKcEEPcT_S3_RKSaIcESt20forward_iterator_tag.part.29
   fun:_ZNSsC1EPKcRKSaIcE
   fun:_ZN20G4BaryonPartialWidthC1Ev
   fun:_ZN32G4ConcreteMesonBaryonToResonance21theBaryonPartialWidthEv
   fun:_ZN32G4ConcreteMesonBaryonToResonanceC1EPK20G4ParticleDefinitionS2_S2_RK8G4String
   fun:_ZN33G4CollisionMesonBaryonToResonanceC1Ev
   fun:_ZN22G4CollisionMesonBaryonC1Ev
   fun:_ZN11G4ScattererC1Ev
   fun:_ZN15G4BinaryCascadeC1EP19G4VPreCompoundModel
   fun:_ZN24G4BinaryLightIonReactionC1EP19G4VPreCompoundModel
}

{
   basf2 suppression 323
   Memcheck:Leak
   fun:_Znwm
   fun:_ZNSs4_Rep9_S_createEmmRKSaIcE
   fun:_ZNSs12_S_constructIPKcEEPcT_S3_RKSaIcESt20forward_iterator_tag.part.29
   fun:_ZNSsC1EPKcRKSaIcE
   fun:_ZN20G4BaryonPartialWidthC1Ev
   fun:_ZN32G4ConcreteMesonBaryonToResonance21theBaryonPartialWidthEv
   fun:_ZN32G4ConcreteMesonBaryonToResonanceC1EPK20G4ParticleDefinitionS2_S2_RK8G4String
   fun:_ZN33G4CollisionMesonBaryonToResonanceC1Ev
   fun:_ZN22G4CollisionMesonBaryonC1Ev
   fun:_ZN11G4ScattererC1Ev
   fun:_ZN15G4BinaryCascadeC1EP19G4VPreCompoundModel
   fun:_ZN24G4BinaryLightIonReactionC1EP19G4VPreCompoundModel
}

{
   basf2 suppression 324
   Memcheck:Leak
   fun:_Znwm
   fun:_ZNSs4_Rep9_S_createEmmRKSaIcE
   fun:_ZNSs12_S_constructIPKcEEPcT_S3_RKSaIcESt20forward_iterator_tag.part.29
   fun:_ZNSsC1EPKcRKSaIcE
   fun:_ZN20G4BaryonPartialWidthC1Ev
   fun:_ZN32G4ConcreteMesonBaryonToResonance21theBaryonPartialWidthEv
   fun:_ZN32G4ConcreteMesonBaryonToResonanceC1EPK20G4ParticleDefinitionS2_S2_RK8G4String
   fun:_ZN33G4CollisionMesonBaryonToResonanceC1Ev
   fun:_ZN22G4CollisionMesonBaryonC1Ev
   fun:_ZN11G4ScattererC1Ev
   fun:_ZN15G4BinaryCascadeC1EP19G4VPreCompoundModel
   fun:_ZN24G4BinaryLightIonReactionC1EP19G4VPreCompoundModel
}

{
   basf2 suppression 325
   Memcheck:Leak
   fun:_Znwm
   fun:_ZNSs4_Rep9_S_createEmmRKSaIcE
   fun:_ZNSs12_S_constructIPKcEEPcT_S3_RKSaIcESt20forward_iterator_tag.part.29
   fun:_ZNSsC1EPKcRKSaIcE
   fun:_ZN20G4BaryonPartialWidthC1Ev
   fun:_ZN32G4ConcreteMesonBaryonToResonance21theBaryonPartialWidthEv
   fun:_ZN32G4ConcreteMesonBaryonToResonanceC1EPK20G4ParticleDefinitionS2_S2_RK8G4String
   fun:_ZN33G4CollisionMesonBaryonToResonanceC1Ev
   fun:_ZN22G4CollisionMesonBaryonC1Ev
   fun:_ZN11G4ScattererC1Ev
   fun:_ZN15G4BinaryCascadeC1EP19G4VPreCompoundModel
   fun:_ZN24G4BinaryLightIonReactionC1EP19G4VPreCompoundModel
}

{
   basf2 suppression 326
   Memcheck:Leak
   fun:_Znwm
   fun:_ZNSs4_Rep9_S_createEmmRKSaIcE
   fun:_ZNSs12_S_constructIPKcEEPcT_S3_RKSaIcESt20forward_iterator_tag.part.29
   fun:_ZNSsC1EPKcRKSaIcE
   fun:_ZN20G4BaryonPartialWidthC1Ev
   fun:_ZN32G4ConcreteMesonBaryonToResonance21theBaryonPartialWidthEv
   fun:_ZN32G4ConcreteMesonBaryonToResonanceC1EPK20G4ParticleDefinitionS2_S2_RK8G4String
   fun:_ZN33G4CollisionMesonBaryonToResonanceC1Ev
   fun:_ZN22G4CollisionMesonBaryonC1Ev
   fun:_ZN11G4ScattererC1Ev
   fun:_ZN15G4BinaryCascadeC1EP19G4VPreCompoundModel
   fun:_ZN24G4BinaryLightIonReactionC1EP19G4VPreCompoundModel
}

{
   basf2 suppression 327
   Memcheck:Leak
   fun:_Znwm
   fun:_ZNSs4_Rep9_S_createEmmRKSaIcE
   fun:_ZNSs12_S_constructIPKcEEPcT_S3_RKSaIcESt20forward_iterator_tag.part.29
   fun:_ZNSsC1EPKcRKSaIcE
   fun:_ZN20G4BaryonPartialWidthC1Ev
   fun:_ZN32G4ConcreteMesonBaryonToResonance21theBaryonPartialWidthEv
   fun:_ZN32G4ConcreteMesonBaryonToResonanceC1EPK20G4ParticleDefinitionS2_S2_RK8G4String
   fun:_ZN33G4CollisionMesonBaryonToResonanceC1Ev
   fun:_ZN22G4CollisionMesonBaryonC1Ev
   fun:_ZN11G4ScattererC1Ev
   fun:_ZN15G4BinaryCascadeC1EP19G4VPreCompoundModel
   fun:_ZN24G4BinaryLightIonReactionC1EP19G4VPreCompoundModel
}

{
   basf2 suppression 328
   Memcheck:Leak
   fun:_Znwm
   fun:_ZNSs4_Rep9_S_createEmmRKSaIcE
   fun:_ZNSs12_S_constructIPKcEEPcT_S3_RKSaIcESt20forward_iterator_tag.part.29
   fun:_ZNSsC1EPKcRKSaIcE
   fun:_ZN20G4BaryonPartialWidthC1Ev
   fun:_ZN32G4ConcreteMesonBaryonToResonance21theBaryonPartialWidthEv
   fun:_ZN32G4ConcreteMesonBaryonToResonanceC1EPK20G4ParticleDefinitionS2_S2_RK8G4String
   fun:_ZN33G4CollisionMesonBaryonToResonanceC1Ev
   fun:_ZN22G4CollisionMesonBaryonC1Ev
   fun:_ZN11G4ScattererC1Ev
   fun:_ZN15G4BinaryCascadeC1EP19G4VPreCompoundModel
   fun:_ZN24G4BinaryLightIonReactionC1EP19G4VPreCompoundModel
}

{
   basf2 suppression 329
   Memcheck:Leak
   fun:_Znwm
   fun:_ZNSs4_Rep9_S_createEmmRKSaIcE
   fun:_ZNSs12_S_constructIPKcEEPcT_S3_RKSaIcESt20forward_iterator_tag.part.29
   fun:_ZNSsC1EPKcRKSaIcE
   fun:_ZN20G4BaryonPartialWidthC1Ev
   fun:_ZN32G4ConcreteMesonBaryonToResonance21theBaryonPartialWidthEv
   fun:_ZN32G4ConcreteMesonBaryonToResonanceC1EPK20G4ParticleDefinitionS2_S2_RK8G4String
   fun:_ZN33G4CollisionMesonBaryonToResonanceC1Ev
   fun:_ZN22G4CollisionMesonBaryonC1Ev
   fun:_ZN11G4ScattererC1Ev
   fun:_ZN15G4BinaryCascadeC1EP19G4VPreCompoundModel
   fun:_ZN24G4BinaryLightIonReactionC1EP19G4VPreCompoundModel
}

{
   basf2 suppression 330
   Memcheck:Leak
   fun:_Znwm
   fun:_ZNSs4_Rep9_S_createEmmRKSaIcE
   fun:_ZNSs12_S_constructIPKcEEPcT_S3_RKSaIcESt20forward_iterator_tag.part.29
   fun:_ZNSsC1EPKcRKSaIcE
   fun:_ZN20G4BaryonPartialWidthC1Ev
   fun:_ZN32G4ConcreteMesonBaryonToResonance21theBaryonPartialWidthEv
   fun:_ZN32G4ConcreteMesonBaryonToResonanceC1EPK20G4ParticleDefinitionS2_S2_RK8G4String
   fun:_ZN33G4CollisionMesonBaryonToResonanceC1Ev
   fun:_ZN22G4CollisionMesonBaryonC1Ev
   fun:_ZN11G4ScattererC1Ev
   fun:_ZN15G4BinaryCascadeC1EP19G4VPreCompoundModel
   fun:_ZN24G4BinaryLightIonReactionC1EP19G4VPreCompoundModel
}

{
   basf2 suppression 331
   Memcheck:Leak
   fun:_Znwm
   fun:_ZNSs4_Rep9_S_createEmmRKSaIcE
   fun:_ZNSs12_S_constructIPKcEEPcT_S3_RKSaIcESt20forward_iterator_tag.part.29
   fun:_ZNSsC1EPKcRKSaIcE
   fun:_ZN20G4BaryonPartialWidthC1Ev
   fun:_ZN32G4ConcreteMesonBaryonToResonance21theBaryonPartialWidthEv
   fun:_ZN32G4ConcreteMesonBaryonToResonanceC1EPK20G4ParticleDefinitionS2_S2_RK8G4String
   fun:_ZN33G4CollisionMesonBaryonToResonanceC1Ev
   fun:_ZN22G4CollisionMesonBaryonC1Ev
   fun:_ZN11G4ScattererC1Ev
   fun:_ZN15G4BinaryCascadeC1EP19G4VPreCompoundModel
   fun:_ZN24G4BinaryLightIonReactionC1EP19G4VPreCompoundModel
}

{
   basf2 suppression 332
   Memcheck:Leak
   fun:_Znwm
   fun:_ZNSs4_Rep9_S_createEmmRKSaIcE
   fun:_ZNSs12_S_constructIPKcEEPcT_S3_RKSaIcESt20forward_iterator_tag.part.29
   fun:_ZNSsC1EPKcRKSaIcE
   fun:_ZN20G4BaryonPartialWidthC1Ev
   fun:_ZN32G4ConcreteMesonBaryonToResonance21theBaryonPartialWidthEv
   fun:_ZN32G4ConcreteMesonBaryonToResonanceC1EPK20G4ParticleDefinitionS2_S2_RK8G4String
   fun:_ZN33G4CollisionMesonBaryonToResonanceC1Ev
   fun:_ZN22G4CollisionMesonBaryonC1Ev
   fun:_ZN11G4ScattererC1Ev
   fun:_ZN15G4BinaryCascadeC1EP19G4VPreCompoundModel
   fun:_ZN24G4BinaryLightIonReactionC1EP19G4VPreCompoundModel
}

{
   basf2 suppression 333
   Memcheck:Leak
   fun:_Znwm
   fun:_ZNSs4_Rep9_S_createEmmRKSaIcE
   fun:_ZNSs12_S_constructIPKcEEPcT_S3_RKSaIcESt20forward_iterator_tag.part.29
   fun:_ZNSsC1EPKcRKSaIcE
   fun:_ZN20G4BaryonPartialWidthC1Ev
   fun:_ZN32G4ConcreteMesonBaryonToResonance21theBaryonPartialWidthEv
   fun:_ZN32G4ConcreteMesonBaryonToResonanceC1EPK20G4ParticleDefinitionS2_S2_RK8G4String
   fun:_ZN33G4CollisionMesonBaryonToResonanceC1Ev
   fun:_ZN22G4CollisionMesonBaryonC1Ev
   fun:_ZN11G4ScattererC1Ev
   fun:_ZN15G4BinaryCascadeC1EP19G4VPreCompoundModel
   fun:_ZN24G4BinaryLightIonReactionC1EP19G4VPreCompoundModel
}

{
   basf2 suppression 334
   Memcheck:Leak
   fun:_Znwm
   fun:_ZNSs4_Rep9_S_createEmmRKSaIcE
   fun:_ZNSs12_S_constructIPKcEEPcT_S3_RKSaIcESt20forward_iterator_tag.part.29
   fun:_ZNSsC1EPKcRKSaIcE
   fun:_ZN20G4BaryonPartialWidthC1Ev
   fun:_ZN32G4ConcreteMesonBaryonToResonance21theBaryonPartialWidthEv
   fun:_ZN32G4ConcreteMesonBaryonToResonanceC1EPK20G4ParticleDefinitionS2_S2_RK8G4String
   fun:_ZN33G4CollisionMesonBaryonToResonanceC1Ev
   fun:_ZN22G4CollisionMesonBaryonC1Ev
   fun:_ZN11G4ScattererC1Ev
   fun:_ZN15G4BinaryCascadeC1EP19G4VPreCompoundModel
   fun:_ZN24G4BinaryLightIonReactionC1EP19G4VPreCompoundModel
}

{
   basf2 suppression 335
   Memcheck:Leak
   fun:_Znwm
   fun:_ZNSs4_Rep9_S_createEmmRKSaIcE
   fun:_ZNSs12_S_constructIPKcEEPcT_S3_RKSaIcESt20forward_iterator_tag.part.29
   fun:_ZNSsC1EPKcRKSaIcE
   fun:_ZN20G4BaryonPartialWidthC1Ev
   fun:_ZN32G4ConcreteMesonBaryonToResonance21theBaryonPartialWidthEv
   fun:_ZN32G4ConcreteMesonBaryonToResonanceC1EPK20G4ParticleDefinitionS2_S2_RK8G4String
   fun:_ZN33G4CollisionMesonBaryonToResonanceC1Ev
   fun:_ZN22G4CollisionMesonBaryonC1Ev
   fun:_ZN11G4ScattererC1Ev
   fun:_ZN15G4BinaryCascadeC1EP19G4VPreCompoundModel
   fun:_ZN24G4BinaryLightIonReactionC1EP19G4VPreCompoundModel
}

{
   basf2 suppression 336
   Memcheck:Leak
   fun:_Znwm
   fun:_ZNSs4_Rep9_S_createEmmRKSaIcE
   fun:_ZNSs12_S_constructIPKcEEPcT_S3_RKSaIcESt20forward_iterator_tag.part.29
   fun:_ZNSsC1EPKcRKSaIcE
   fun:_ZN20G4BaryonPartialWidthC1Ev
   fun:_ZN32G4ConcreteMesonBaryonToResonance21theBaryonPartialWidthEv
   fun:_ZN32G4ConcreteMesonBaryonToResonanceC1EPK20G4ParticleDefinitionS2_S2_RK8G4String
   fun:_ZN33G4CollisionMesonBaryonToResonanceC1Ev
   fun:_ZN22G4CollisionMesonBaryonC1Ev
   fun:_ZN11G4ScattererC1Ev
   fun:_ZN15G4BinaryCascadeC1EP19G4VPreCompoundModel
   fun:_ZN24G4BinaryLightIonReactionC1EP19G4VPreCompoundModel
}

{
   basf2 suppression 337
   Memcheck:Leak
   fun:_Znwm
   fun:_ZNSs4_Rep9_S_createEmmRKSaIcE
   fun:_ZNSs12_S_constructIPKcEEPcT_S3_RKSaIcESt20forward_iterator_tag.part.29
   fun:_ZNSsC1EPKcRKSaIcE
   fun:_ZN20G4BaryonPartialWidthC1Ev
   fun:_ZN32G4ConcreteMesonBaryonToResonance21theBaryonPartialWidthEv
   fun:_ZN32G4ConcreteMesonBaryonToResonanceC1EPK20G4ParticleDefinitionS2_S2_RK8G4String
   fun:_ZN33G4CollisionMesonBaryonToResonanceC1Ev
   fun:_ZN22G4CollisionMesonBaryonC1Ev
   fun:_ZN11G4ScattererC1Ev
   fun:_ZN15G4BinaryCascadeC1EP19G4VPreCompoundModel
   fun:_ZN24G4BinaryLightIonReactionC1EP19G4VPreCompoundModel
}

{
   basf2 suppression 338
   Memcheck:Leak
   fun:_Znwm
   fun:_ZNSs4_Rep9_S_createEmmRKSaIcE
   fun:_ZNSs12_S_constructIPKcEEPcT_S3_RKSaIcESt20forward_iterator_tag.part.29
   fun:_ZNSsC1EPKcRKSaIcE
   fun:_ZN20G4BaryonPartialWidthC1Ev
   fun:_ZN32G4ConcreteMesonBaryonToResonance21theBaryonPartialWidthEv
   fun:_ZN32G4ConcreteMesonBaryonToResonanceC1EPK20G4ParticleDefinitionS2_S2_RK8G4String
   fun:_ZN33G4CollisionMesonBaryonToResonanceC1Ev
   fun:_ZN22G4CollisionMesonBaryonC1Ev
   fun:_ZN11G4ScattererC1Ev
   fun:_ZN15G4BinaryCascadeC1EP19G4VPreCompoundModel
   fun:_ZN24G4BinaryLightIonReactionC1EP19G4VPreCompoundModel
}

{
   basf2 suppression 339
   Memcheck:Leak
   fun:_Znwm
   fun:_ZNSs4_Rep9_S_createEmmRKSaIcE
   fun:_ZNSs12_S_constructIPKcEEPcT_S3_RKSaIcESt20forward_iterator_tag.part.29
   fun:_ZNSsC1EPKcRKSaIcE
   fun:_ZN20G4BaryonPartialWidthC1Ev
   fun:_ZN32G4ConcreteMesonBaryonToResonance21theBaryonPartialWidthEv
   fun:_ZN32G4ConcreteMesonBaryonToResonanceC1EPK20G4ParticleDefinitionS2_S2_RK8G4String
   fun:_ZN33G4CollisionMesonBaryonToResonanceC1Ev
   fun:_ZN22G4CollisionMesonBaryonC1Ev
   fun:_ZN11G4ScattererC1Ev
   fun:_ZN15G4BinaryCascadeC1EP19G4VPreCompoundModel
   fun:_ZN24G4BinaryLightIonReactionC1EP19G4VPreCompoundModel
}

{
   basf2 suppression 340
   Memcheck:Leak
   fun:_Znwm
   fun:_ZNSs4_Rep9_S_createEmmRKSaIcE
   fun:_ZNSs12_S_constructIPKcEEPcT_S3_RKSaIcESt20forward_iterator_tag.part.29
   fun:_ZNSsC1EPKcRKSaIcE
   fun:_ZN20G4BaryonPartialWidthC1Ev
   fun:_ZN32G4ConcreteMesonBaryonToResonance21theBaryonPartialWidthEv
   fun:_ZN32G4ConcreteMesonBaryonToResonanceC1EPK20G4ParticleDefinitionS2_S2_RK8G4String
   fun:_ZN33G4CollisionMesonBaryonToResonanceC1Ev
   fun:_ZN22G4CollisionMesonBaryonC1Ev
   fun:_ZN11G4ScattererC1Ev
   fun:_ZN15G4BinaryCascadeC1EP19G4VPreCompoundModel
   fun:_ZN24G4BinaryLightIonReactionC1EP19G4VPreCompoundModel
}

{
   basf2 suppression 341
   Memcheck:Leak
   fun:_Znwm
   fun:_ZNSs4_Rep9_S_createEmmRKSaIcE
   fun:_ZNSs12_S_constructIPKcEEPcT_S3_RKSaIcESt20forward_iterator_tag.part.29
   fun:_ZNSsC1EPKcRKSaIcE
   fun:_ZN20G4BaryonPartialWidthC1Ev
   fun:_ZN32G4ConcreteMesonBaryonToResonance21theBaryonPartialWidthEv
   fun:_ZN32G4ConcreteMesonBaryonToResonanceC1EPK20G4ParticleDefinitionS2_S2_RK8G4String
   fun:_ZN33G4CollisionMesonBaryonToResonanceC1Ev
   fun:_ZN22G4CollisionMesonBaryonC1Ev
   fun:_ZN11G4ScattererC1Ev
   fun:_ZN15G4BinaryCascadeC1EP19G4VPreCompoundModel
   fun:_ZN24G4BinaryLightIonReactionC1EP19G4VPreCompoundModel
}

{
   basf2 suppression 342
   Memcheck:Leak
   fun:_Znwm
   fun:_ZNSs4_Rep9_S_createEmmRKSaIcE
   fun:_ZNSs12_S_constructIPKcEEPcT_S3_RKSaIcESt20forward_iterator_tag.part.29
   fun:_ZNSsC1EPKcRKSaIcE
   fun:_ZN20G4BaryonPartialWidthC1Ev
   fun:_ZN32G4ConcreteMesonBaryonToResonance21theBaryonPartialWidthEv
   fun:_ZN32G4ConcreteMesonBaryonToResonanceC1EPK20G4ParticleDefinitionS2_S2_RK8G4String
   fun:_ZN33G4CollisionMesonBaryonToResonanceC1Ev
   fun:_ZN22G4CollisionMesonBaryonC1Ev
   fun:_ZN11G4ScattererC1Ev
   fun:_ZN15G4BinaryCascadeC1EP19G4VPreCompoundModel
   fun:_ZN24G4BinaryLightIonReactionC1EP19G4VPreCompoundModel
}

{
   basf2 suppression 343
   Memcheck:Leak
   fun:_Znwm
   fun:_ZNSs4_Rep9_S_createEmmRKSaIcE
   fun:_ZNSs12_S_constructIPKcEEPcT_S3_RKSaIcESt20forward_iterator_tag.part.29
   fun:_ZNSsC1EPKcmRKSaIcE
   fun:_ZNK4llvm5Twine3strEv
   fun:_ZN4llvm11NamedMDNodeC1ERKNS_5TwineE
   fun:_ZN4llvm6Module24getOrInsertNamedMetadataENS_9StringRefE
   fun:_ZN5clang7CodeGen13CodeGenModule24EmitVersionIdentMetadataEv
   fun:_ZN5clang7CodeGen13CodeGenModule7ReleaseEv
   fun:_ZN5cling17IncrementalParser18codeGenTransactionEPNS_11TransactionE
   fun:_ZN5cling17IncrementalParser17commitTransactionEN4llvm14PointerIntPairIPNS_11TransactionELj2ENS0_12EParseResultENS1_21PointerLikeTypeTraitsIS4_EEEE
   fun:_ZN5cling11InterpreterC1EiPKPKcS2_b
}

{
   basf2 suppression 344
   Memcheck:Leak
   fun:_Znwm
   fun:_ZNSs4_Rep9_S_createEmmRKSaIcE
   fun:_ZNSs12_S_constructIPKcEEPcT_S3_RKSaIcESt20forward_iterator_tag.part.29
   fun:_ZNSsC1EPKcmRKSaIcE
   fun:_ZN5clang12Preprocessor22RegisterBuiltinPragmasEv
   fun:_ZN5clang12PreprocessorC1EN4llvm18IntrusiveRefCntPtrINS_19PreprocessorOptionsEEERNS_17DiagnosticsEngineERNS_11LangOptionsERNS_13SourceManagerERNS_12HeaderSearchERNS_12ModuleLoaderEPNS_20IdentifierInfoLookupEbNS_19TranslationUnitKindE
   fun:_ZN5clang16CompilerInstance18createPreprocessorENS_19TranslationUnitKindE
   fun:_ZN12_GLOBAL__N_1L12createCIImplESt10unique_ptrIN4llvm12MemoryBufferESt14default_deleteIS2_EEiPKPKcS7_b
   fun:_ZN5cling9CIFactory8createCIEN4llvm9StringRefEiPKPKcS4_
   fun:_ZN5cling17IncrementalParserC1EPNS_11InterpreterEiPKPKcS4_
   fun:_ZN5cling11InterpreterC1EiPKPKcS2_b
   fun:_ZN6TClingC1EPKcS1_
}

{
   basf2 suppression 345
   Memcheck:Leak
   fun:_Znwm
   fun:_ZNSs4_Rep9_S_createEmmRKSaIcE
   fun:_ZNSs12_S_constructIPKcEEPcT_S3_RKSaIcESt20forward_iterator_tag.part.29
   fun:_ZNSsC1EPKcmRKSaIcE
   fun:_ZN5clang12Preprocessor22RegisterBuiltinPragmasEv
   fun:_ZN5clang12PreprocessorC1EN4llvm18IntrusiveRefCntPtrINS_19PreprocessorOptionsEEERNS_17DiagnosticsEngineERNS_11LangOptionsERNS_13SourceManagerERNS_12HeaderSearchERNS_12ModuleLoaderEPNS_20IdentifierInfoLookupEbNS_19TranslationUnitKindE
   fun:_ZN5clang16CompilerInstance18createPreprocessorENS_19TranslationUnitKindE
   fun:_ZN12_GLOBAL__N_1L12createCIImplESt10unique_ptrIN4llvm12MemoryBufferESt14default_deleteIS2_EEiPKPKcS7_b
   fun:_ZN5cling9CIFactory8createCIEN4llvm9StringRefEiPKPKcS4_
   fun:_ZN5cling17IncrementalParserC1EPNS_11InterpreterEiPKPKcS4_
   fun:_ZN5cling11InterpreterC1EiPKPKcS2_b
   fun:_ZN6TClingC1EPKcS1_
}

{
   basf2 suppression 346
   Memcheck:Leak
   fun:_Znwm
   fun:_ZNSs4_Rep9_S_createEmmRKSaIcE
   fun:_ZNSs12_S_constructIPKcEEPcT_S3_RKSaIcESt20forward_iterator_tag.part.29
   fun:_ZNSsC1EPKcmRKSaIcE
   fun:_ZN5clang12Preprocessor22RegisterBuiltinPragmasEv
   fun:_ZN5clang12PreprocessorC1EN4llvm18IntrusiveRefCntPtrINS_19PreprocessorOptionsEEERNS_17DiagnosticsEngineERNS_11LangOptionsERNS_13SourceManagerERNS_12HeaderSearchERNS_12ModuleLoaderEPNS_20IdentifierInfoLookupEbNS_19TranslationUnitKindE
   fun:_ZN5clang16CompilerInstance18createPreprocessorENS_19TranslationUnitKindE
   fun:_ZN12_GLOBAL__N_1L12createCIImplESt10unique_ptrIN4llvm12MemoryBufferESt14default_deleteIS2_EEiPKPKcS7_b
   fun:_ZN5cling9CIFactory8createCIEN4llvm9StringRefEiPKPKcS4_
   fun:_ZN5cling17IncrementalParserC1EPNS_11InterpreterEiPKPKcS4_
   fun:_ZN5cling11InterpreterC1EiPKPKcS2_b
   fun:_ZN6TClingC1EPKcS1_
}

{
   basf2 suppression 347
   Memcheck:Leak
   fun:_Znwm
   fun:_ZNSs4_Rep9_S_createEmmRKSaIcE
   fun:_ZNSs12_S_constructIPKcEEPcT_S3_RKSaIcESt20forward_iterator_tag.part.29
   fun:_ZNSsC1EPKcmRKSaIcE
   fun:_ZN5clang12Preprocessor22RegisterBuiltinPragmasEv
   fun:_ZN5clang12PreprocessorC1EN4llvm18IntrusiveRefCntPtrINS_19PreprocessorOptionsEEERNS_17DiagnosticsEngineERNS_11LangOptionsERNS_13SourceManagerERNS_12HeaderSearchERNS_12ModuleLoaderEPNS_20IdentifierInfoLookupEbNS_19TranslationUnitKindE
   fun:_ZN5clang16CompilerInstance18createPreprocessorENS_19TranslationUnitKindE
   fun:_ZN12_GLOBAL__N_1L12createCIImplESt10unique_ptrIN4llvm12MemoryBufferESt14default_deleteIS2_EEiPKPKcS7_b
   fun:_ZN5cling9CIFactory8createCIEN4llvm9StringRefEiPKPKcS4_
   fun:_ZN5cling17IncrementalParserC1EPNS_11InterpreterEiPKPKcS4_
   fun:_ZN5cling11InterpreterC1EiPKPKcS2_b
   fun:_ZN6TClingC1EPKcS1_
}

{
   basf2 suppression 348
   Memcheck:Leak
   fun:_Znwm
   fun:_ZNSs4_Rep9_S_createEmmRKSaIcE
   fun:_ZNSs12_S_constructIPKcEEPcT_S3_RKSaIcESt20forward_iterator_tag.part.29
   fun:_ZNSsC1EPKcmRKSaIcE
   fun:_ZN5clang12Preprocessor22RegisterBuiltinPragmasEv
   fun:_ZN5clang12PreprocessorC1EN4llvm18IntrusiveRefCntPtrINS_19PreprocessorOptionsEEERNS_17DiagnosticsEngineERNS_11LangOptionsERNS_13SourceManagerERNS_12HeaderSearchERNS_12ModuleLoaderEPNS_20IdentifierInfoLookupEbNS_19TranslationUnitKindE
   fun:_ZN5clang16CompilerInstance18createPreprocessorENS_19TranslationUnitKindE
   fun:_ZN12_GLOBAL__N_1L12createCIImplESt10unique_ptrIN4llvm12MemoryBufferESt14default_deleteIS2_EEiPKPKcS7_b
   fun:_ZN5cling9CIFactory8createCIEN4llvm9StringRefEiPKPKcS4_
   fun:_ZN5cling17IncrementalParserC1EPNS_11InterpreterEiPKPKcS4_
   fun:_ZN5cling11InterpreterC1EiPKPKcS2_b
   fun:_ZN6TClingC1EPKcS1_
}

{
   basf2 suppression 349
   Memcheck:Leak
   fun:_Znwm
   fun:_ZNSs4_Rep9_S_createEmmRKSaIcE
   fun:_ZNSs12_S_constructIPKcEEPcT_S3_RKSaIcESt20forward_iterator_tag.part.29
   fun:_ZNSsC1EPKcmRKSaIcE
   fun:_ZN5clang6Parser24initializePragmaHandlersEv
   fun:_ZN5clang6ParserC1ERNS_12PreprocessorERNS_4SemaEbb
   fun:_ZN5cling17IncrementalParser10InitializeERN4llvm15SmallVectorImplINS1_14PointerIntPairIPNS_11TransactionELj2ENS0_12EParseResultENS1_21PointerLikeTypeTraitsIS5_EEEEEE
   fun:_ZN5cling11InterpreterC1EiPKPKcS2_b
   fun:_ZN6TClingC1EPKcS1_
   fun:CreateInterpreter
   fun:_ZN5TROOT15InitInterpreterEv
   fun:_ZN4ROOT8GetROOT2Ev
}

{
   basf2 suppression 350
   Memcheck:Leak
   fun:malloc
   fun:PyBytes_FromStringAndSize
   fun:r_object
   fun:r_object
   fun:r_object
   fun:r_object
   fun:r_object
   fun:r_object
   fun:r_object
   fun:r_object
   fun:PyMarshal_ReadObjectFromString
   fun:_imp_get_frozen_object
}

{
   basf2 suppression 351
   Memcheck:Leak
   fun:malloc
   fun:PyBytes_FromStringAndSize
   fun:r_object
   fun:r_object
   fun:r_object
   fun:r_object
   fun:r_object
   fun:r_object
   fun:r_object
   fun:r_object
   fun:r_object
   fun:r_object
}

{
   basf2 suppression 352
   Memcheck:Leak
   fun:_Znwm
   fun:_ZNSs4_Rep9_S_createEmmRKSaIcE
   fun:_ZNSs12_S_constructIPKcEEPcT_S3_RKSaIcESt20forward_iterator_tag.part.29
   fun:_ZNSsC1EPKcRKSaIcE
   fun:_ZN4TMVA9MsgLogger8InitMapsEv
   fun:_ZN4TMVA9MsgLoggerC1ERKSsNS_8EMsgTypeE
   fun:_ZN4TMVA5TypesC1Ev
   fun:_ZN4TMVA5Types8InstanceEv
   fun:_GLOBAL__sub_I_MethodBDT.cxx
   fun:_dl_init
   fun:dl_open_worker
   fun:_dl_catch_error
}

{
   basf2 suppression 353
   Memcheck:Leak
   fun:_Znwm
   fun:_ZNSs4_Rep9_S_createEmmRKSaIcE
   fun:_ZNSs12_S_constructIPKcEEPcT_S3_RKSaIcESt20forward_iterator_tag.part.29
   fun:_ZNSsC1EPKcRKSaIcE
   fun:_GLOBAL__sub_I_MethodLikelihood.cxx
   fun:_dl_init
   fun:dl_open_worker
   fun:_dl_catch_error
   fun:_dl_open
   fun:dlopen_doit
   fun:_dl_catch_error
   fun:_dlerror_run
}

{
   basf2 suppression 354
   Memcheck:Leak
   fun:_Znwm
   fun:_ZNSs4_Rep9_S_createEmmRKSaIcE
   fun:_ZNSs12_S_constructIPKcEEPcT_S3_RKSaIcESt20forward_iterator_tag.part.29
   fun:_ZNSsC1EPKcRKSaIcE
   fun:_ZN20G4BaryonPartialWidthC1Ev
   fun:_ZN32G4ConcreteMesonBaryonToResonance21theBaryonPartialWidthEv
   fun:_ZN32G4ConcreteMesonBaryonToResonanceC1EPK20G4ParticleDefinitionS2_S2_RK8G4String
   fun:_ZN33G4CollisionMesonBaryonToResonanceC1Ev
   fun:_ZN22G4CollisionMesonBaryonC1Ev
   fun:_ZN11G4ScattererC1Ev
   fun:_ZN15G4BinaryCascadeC1EP19G4VPreCompoundModel
   fun:_ZN24G4BinaryLightIonReactionC1EP19G4VPreCompoundModel
}

{
   basf2 suppression 355
   Memcheck:Leak
   fun:_Znwm
   fun:_ZNSs4_Rep9_S_createEmmRKSaIcE
   fun:_ZNSs12_S_constructIPKcEEPcT_S3_RKSaIcESt20forward_iterator_tag.part.29
   fun:_ZNSsC1EPKcRKSaIcE
   fun:_ZN20G4BaryonPartialWidthC1Ev
   fun:_ZN32G4ConcreteMesonBaryonToResonance21theBaryonPartialWidthEv
   fun:_ZN32G4ConcreteMesonBaryonToResonanceC1EPK20G4ParticleDefinitionS2_S2_RK8G4String
   fun:_ZN33G4CollisionMesonBaryonToResonanceC1Ev
   fun:_ZN22G4CollisionMesonBaryonC1Ev
   fun:_ZN11G4ScattererC1Ev
   fun:_ZN15G4BinaryCascadeC1EP19G4VPreCompoundModel
   fun:_ZN24G4BinaryLightIonReactionC1EP19G4VPreCompoundModel
}

{
   basf2 suppression 356
   Memcheck:Leak
   fun:_Znwm
   fun:_ZNSs4_Rep9_S_createEmmRKSaIcE
   fun:_ZNSs12_S_constructIPKcEEPcT_S3_RKSaIcESt20forward_iterator_tag.part.29
   fun:_ZNSsC1EPKcRKSaIcE
   fun:_ZN20G4BaryonPartialWidthC1Ev
   fun:_ZN32G4ConcreteMesonBaryonToResonance21theBaryonPartialWidthEv
   fun:_ZN32G4ConcreteMesonBaryonToResonanceC1EPK20G4ParticleDefinitionS2_S2_RK8G4String
   fun:_ZN33G4CollisionMesonBaryonToResonanceC1Ev
   fun:_ZN22G4CollisionMesonBaryonC1Ev
   fun:_ZN11G4ScattererC1Ev
   fun:_ZN15G4BinaryCascadeC1EP19G4VPreCompoundModel
   fun:_ZN24G4BinaryLightIonReactionC1EP19G4VPreCompoundModel
}

{
   basf2 suppression 357
   Memcheck:Leak
   fun:_Znwm
   fun:_ZNSs4_Rep9_S_createEmmRKSaIcE
   fun:_ZNSs12_S_constructIPKcEEPcT_S3_RKSaIcESt20forward_iterator_tag.part.29
   fun:_ZNSsC1EPKcRKSaIcE
   fun:_ZN20G4BaryonPartialWidthC1Ev
   fun:_ZN32G4ConcreteMesonBaryonToResonance21theBaryonPartialWidthEv
   fun:_ZN32G4ConcreteMesonBaryonToResonanceC1EPK20G4ParticleDefinitionS2_S2_RK8G4String
   fun:_ZN33G4CollisionMesonBaryonToResonanceC1Ev
   fun:_ZN22G4CollisionMesonBaryonC1Ev
   fun:_ZN11G4ScattererC1Ev
   fun:_ZN15G4BinaryCascadeC1EP19G4VPreCompoundModel
   fun:_ZN24G4BinaryLightIonReactionC1EP19G4VPreCompoundModel
}

{
   basf2 suppression 358
   Memcheck:Leak
   fun:_Znwm
   fun:_ZNSs4_Rep9_S_createEmmRKSaIcE
   fun:_ZNSs12_S_constructIPKcEEPcT_S3_RKSaIcESt20forward_iterator_tag.part.29
   fun:_ZNSsC1EPKcRKSaIcE
   fun:_ZN20G4BaryonPartialWidthC1Ev
   fun:_ZN32G4ConcreteMesonBaryonToResonance21theBaryonPartialWidthEv
   fun:_ZN32G4ConcreteMesonBaryonToResonanceC1EPK20G4ParticleDefinitionS2_S2_RK8G4String
   fun:_ZN33G4CollisionMesonBaryonToResonanceC1Ev
   fun:_ZN22G4CollisionMesonBaryonC1Ev
   fun:_ZN11G4ScattererC1Ev
   fun:_ZN15G4BinaryCascadeC1EP19G4VPreCompoundModel
   fun:_ZN24G4BinaryLightIonReactionC1EP19G4VPreCompoundModel
}

{
   basf2 suppression 359
   Memcheck:Leak
   fun:_Znwm
   fun:_ZNSs4_Rep9_S_createEmmRKSaIcE
   fun:_ZNSs12_S_constructIPKcEEPcT_S3_RKSaIcESt20forward_iterator_tag.part.29
   fun:_ZNSsC1EPKcRKSaIcE
   fun:_ZN20G4BaryonPartialWidthC1Ev
   fun:_ZN32G4ConcreteMesonBaryonToResonance21theBaryonPartialWidthEv
   fun:_ZN32G4ConcreteMesonBaryonToResonanceC1EPK20G4ParticleDefinitionS2_S2_RK8G4String
   fun:_ZN33G4CollisionMesonBaryonToResonanceC1Ev
   fun:_ZN22G4CollisionMesonBaryonC1Ev
   fun:_ZN11G4ScattererC1Ev
   fun:_ZN15G4BinaryCascadeC1EP19G4VPreCompoundModel
   fun:_ZN24G4BinaryLightIonReactionC1EP19G4VPreCompoundModel
}

{
   basf2 suppression 360
   Memcheck:Leak
   fun:_Znwm
   fun:_ZNSs4_Rep9_S_createEmmRKSaIcE
   fun:_ZNSs12_S_constructIPKcEEPcT_S3_RKSaIcESt20forward_iterator_tag.part.29
   fun:_ZNSsC1EPKcRKSaIcE
   fun:_ZN20G4BaryonPartialWidthC1Ev
   fun:_ZN32G4ConcreteMesonBaryonToResonance21theBaryonPartialWidthEv
   fun:_ZN32G4ConcreteMesonBaryonToResonanceC1EPK20G4ParticleDefinitionS2_S2_RK8G4String
   fun:_ZN33G4CollisionMesonBaryonToResonanceC1Ev
   fun:_ZN22G4CollisionMesonBaryonC1Ev
   fun:_ZN11G4ScattererC1Ev
   fun:_ZN15G4BinaryCascadeC1EP19G4VPreCompoundModel
   fun:_ZN24G4BinaryLightIonReactionC1EP19G4VPreCompoundModel
}

{
   basf2 suppression 361
   Memcheck:Leak
   fun:_Znwm
   fun:_ZNSs4_Rep9_S_createEmmRKSaIcE
   fun:_ZNSs12_S_constructIPKcEEPcT_S3_RKSaIcESt20forward_iterator_tag.part.29
   fun:_ZNSsC1EPKcRKSaIcE
   fun:_ZN20G4BaryonPartialWidthC1Ev
   fun:_ZN32G4ConcreteMesonBaryonToResonance21theBaryonPartialWidthEv
   fun:_ZN32G4ConcreteMesonBaryonToResonanceC1EPK20G4ParticleDefinitionS2_S2_RK8G4String
   fun:_ZN33G4CollisionMesonBaryonToResonanceC1Ev
   fun:_ZN22G4CollisionMesonBaryonC1Ev
   fun:_ZN11G4ScattererC1Ev
   fun:_ZN15G4BinaryCascadeC1EP19G4VPreCompoundModel
   fun:_ZN24G4BinaryLightIonReactionC1EP19G4VPreCompoundModel
}

{
   basf2 suppression 362
   Memcheck:Leak
   fun:_Znwm
   fun:_ZNSs4_Rep9_S_createEmmRKSaIcE
   fun:_ZNSs12_S_constructIPKcEEPcT_S3_RKSaIcESt20forward_iterator_tag.part.29
   fun:_ZNSsC1EPKcRKSaIcE
   fun:_ZN20G4BaryonPartialWidthC1Ev
   fun:_ZN32G4ConcreteMesonBaryonToResonance21theBaryonPartialWidthEv
   fun:_ZN32G4ConcreteMesonBaryonToResonanceC1EPK20G4ParticleDefinitionS2_S2_RK8G4String
   fun:_ZN33G4CollisionMesonBaryonToResonanceC1Ev
   fun:_ZN22G4CollisionMesonBaryonC1Ev
   fun:_ZN11G4ScattererC1Ev
   fun:_ZN15G4BinaryCascadeC1EP19G4VPreCompoundModel
   fun:_ZN24G4BinaryLightIonReactionC1EP19G4VPreCompoundModel
}

{
   basf2 suppression 363
   Memcheck:Leak
   fun:_Znwm
   fun:_ZNSs4_Rep9_S_createEmmRKSaIcE
   fun:_ZNSs12_S_constructIPKcEEPcT_S3_RKSaIcESt20forward_iterator_tag.part.29
   fun:_ZNSsC1EPKcRKSaIcE
   fun:_ZN20G4BaryonPartialWidthC1Ev
   fun:_ZN32G4ConcreteMesonBaryonToResonance21theBaryonPartialWidthEv
   fun:_ZN32G4ConcreteMesonBaryonToResonanceC1EPK20G4ParticleDefinitionS2_S2_RK8G4String
   fun:_ZN33G4CollisionMesonBaryonToResonanceC1Ev
   fun:_ZN22G4CollisionMesonBaryonC1Ev
   fun:_ZN11G4ScattererC1Ev
   fun:_ZN15G4BinaryCascadeC1EP19G4VPreCompoundModel
   fun:_ZN24G4BinaryLightIonReactionC1EP19G4VPreCompoundModel
}

{
   basf2 suppression 364
   Memcheck:Leak
   fun:_Znwm
   fun:_ZNSs4_Rep9_S_createEmmRKSaIcE
   fun:_ZNSs12_S_constructIPKcEEPcT_S3_RKSaIcESt20forward_iterator_tag.part.29
   fun:_ZNSsC1EPKcRKSaIcE
   fun:_ZN20G4BaryonPartialWidthC1Ev
   fun:_ZN32G4ConcreteMesonBaryonToResonance21theBaryonPartialWidthEv
   fun:_ZN32G4ConcreteMesonBaryonToResonanceC1EPK20G4ParticleDefinitionS2_S2_RK8G4String
   fun:_ZN33G4CollisionMesonBaryonToResonanceC1Ev
   fun:_ZN22G4CollisionMesonBaryonC1Ev
   fun:_ZN11G4ScattererC1Ev
   fun:_ZN15G4BinaryCascadeC1EP19G4VPreCompoundModel
   fun:_ZN24G4BinaryLightIonReactionC1EP19G4VPreCompoundModel
}

{
   basf2 suppression 365
   Memcheck:Leak
   fun:_Znwm
   fun:_ZNSs4_Rep9_S_createEmmRKSaIcE
   fun:_ZNSs12_S_constructIPKcEEPcT_S3_RKSaIcESt20forward_iterator_tag.part.29
   fun:_ZNSsC1EPKcRKSaIcE
   fun:_ZN20G4BaryonPartialWidthC1Ev
   fun:_ZN32G4ConcreteMesonBaryonToResonance21theBaryonPartialWidthEv
   fun:_ZN32G4ConcreteMesonBaryonToResonanceC1EPK20G4ParticleDefinitionS2_S2_RK8G4String
   fun:_ZN33G4CollisionMesonBaryonToResonanceC1Ev
   fun:_ZN22G4CollisionMesonBaryonC1Ev
   fun:_ZN11G4ScattererC1Ev
   fun:_ZN15G4BinaryCascadeC1EP19G4VPreCompoundModel
   fun:_ZN24G4BinaryLightIonReactionC1EP19G4VPreCompoundModel
}

{
   basf2 suppression 366
   Memcheck:Leak
   fun:_Znwm
   fun:_ZNSs4_Rep9_S_createEmmRKSaIcE
   fun:_ZNSs12_S_constructIPKcEEPcT_S3_RKSaIcESt20forward_iterator_tag.part.29
   fun:_ZNSsC1EPKcRKSaIcE
   fun:_ZN20G4BaryonPartialWidthC1Ev
   fun:_ZN32G4ConcreteMesonBaryonToResonance21theBaryonPartialWidthEv
   fun:_ZN32G4ConcreteMesonBaryonToResonanceC1EPK20G4ParticleDefinitionS2_S2_RK8G4String
   fun:_ZN33G4CollisionMesonBaryonToResonanceC1Ev
   fun:_ZN22G4CollisionMesonBaryonC1Ev
   fun:_ZN11G4ScattererC1Ev
   fun:_ZN15G4BinaryCascadeC1EP19G4VPreCompoundModel
   fun:_ZN24G4BinaryLightIonReactionC1EP19G4VPreCompoundModel
}

{
   basf2 suppression 367
   Memcheck:Leak
   fun:_Znwm
   fun:_ZNSs4_Rep9_S_createEmmRKSaIcE
   fun:_ZNSs12_S_constructIPKcEEPcT_S3_RKSaIcESt20forward_iterator_tag.part.29
   fun:_ZNSsC1EPKcRKSaIcE
   fun:_ZN20G4BaryonPartialWidthC1Ev
   fun:_ZN32G4ConcreteMesonBaryonToResonance21theBaryonPartialWidthEv
   fun:_ZN32G4ConcreteMesonBaryonToResonanceC1EPK20G4ParticleDefinitionS2_S2_RK8G4String
   fun:_ZN33G4CollisionMesonBaryonToResonanceC1Ev
   fun:_ZN22G4CollisionMesonBaryonC1Ev
   fun:_ZN11G4ScattererC1Ev
   fun:_ZN15G4BinaryCascadeC1EP19G4VPreCompoundModel
   fun:_ZN24G4BinaryLightIonReactionC1EP19G4VPreCompoundModel
}

{
   basf2 suppression 368
   Memcheck:Leak
   fun:_Znwm
   fun:_ZNSs4_Rep9_S_createEmmRKSaIcE
   fun:_ZNSs12_S_constructIPKcEEPcT_S3_RKSaIcESt20forward_iterator_tag.part.29
   fun:_ZNSsC1EPKcRKSaIcE
   fun:_ZN20G4BaryonPartialWidthC1Ev
   fun:_ZN32G4ConcreteMesonBaryonToResonance21theBaryonPartialWidthEv
   fun:_ZN32G4ConcreteMesonBaryonToResonanceC1EPK20G4ParticleDefinitionS2_S2_RK8G4String
   fun:_ZN33G4CollisionMesonBaryonToResonanceC1Ev
   fun:_ZN22G4CollisionMesonBaryonC1Ev
   fun:_ZN11G4ScattererC1Ev
   fun:_ZN15G4BinaryCascadeC1EP19G4VPreCompoundModel
   fun:_ZN24G4BinaryLightIonReactionC1EP19G4VPreCompoundModel
}

{
   basf2 suppression 369
   Memcheck:Leak
   fun:_Znwm
   fun:_ZNSs4_Rep9_S_createEmmRKSaIcE
   fun:_ZNSs12_S_constructIPKcEEPcT_S3_RKSaIcESt20forward_iterator_tag.part.29
   fun:_ZNSsC1EPKcRKSaIcE
   fun:_ZN20G4BaryonPartialWidthC1Ev
   fun:_ZN32G4ConcreteMesonBaryonToResonance21theBaryonPartialWidthEv
   fun:_ZN32G4ConcreteMesonBaryonToResonanceC1EPK20G4ParticleDefinitionS2_S2_RK8G4String
   fun:_ZN33G4CollisionMesonBaryonToResonanceC1Ev
   fun:_ZN22G4CollisionMesonBaryonC1Ev
   fun:_ZN11G4ScattererC1Ev
   fun:_ZN15G4BinaryCascadeC1EP19G4VPreCompoundModel
   fun:_ZN24G4BinaryLightIonReactionC1EP19G4VPreCompoundModel
}

{
   basf2 suppression 370
   Memcheck:Leak
   fun:_Znwm
   fun:_ZNSs4_Rep9_S_createEmmRKSaIcE
   fun:_ZNSs12_S_constructIPKcEEPcT_S3_RKSaIcESt20forward_iterator_tag.part.29
   fun:_ZNSsC1EPKcRKSaIcE
   fun:_ZN20G4BaryonPartialWidthC1Ev
   fun:_ZN32G4ConcreteMesonBaryonToResonance21theBaryonPartialWidthEv
   fun:_ZN32G4ConcreteMesonBaryonToResonanceC1EPK20G4ParticleDefinitionS2_S2_RK8G4String
   fun:_ZN33G4CollisionMesonBaryonToResonanceC1Ev
   fun:_ZN22G4CollisionMesonBaryonC1Ev
   fun:_ZN11G4ScattererC1Ev
   fun:_ZN15G4BinaryCascadeC1EP19G4VPreCompoundModel
   fun:_ZN24G4BinaryLightIonReactionC1EP19G4VPreCompoundModel
}

{
   basf2 suppression 371
   Memcheck:Leak
   fun:_Znwm
   fun:_ZNSs4_Rep9_S_createEmmRKSaIcE
   fun:_ZNSs12_S_constructIPKcEEPcT_S3_RKSaIcESt20forward_iterator_tag.part.29
   fun:_ZNSsC1EPKcRKSaIcE
   fun:_ZN20G4BaryonPartialWidthC1Ev
   fun:_ZN32G4ConcreteMesonBaryonToResonance21theBaryonPartialWidthEv
   fun:_ZN32G4ConcreteMesonBaryonToResonanceC1EPK20G4ParticleDefinitionS2_S2_RK8G4String
   fun:_ZN33G4CollisionMesonBaryonToResonanceC1Ev
   fun:_ZN22G4CollisionMesonBaryonC1Ev
   fun:_ZN11G4ScattererC1Ev
   fun:_ZN15G4BinaryCascadeC1EP19G4VPreCompoundModel
   fun:_ZN24G4BinaryLightIonReactionC1EP19G4VPreCompoundModel
}

{
   basf2 suppression 372
   Memcheck:Leak
   fun:_Znwm
   fun:_ZNSs4_Rep9_S_createEmmRKSaIcE
   fun:_ZNSs12_S_constructIPKcEEPcT_S3_RKSaIcESt20forward_iterator_tag.part.29
   fun:_ZNSsC1EPKcRKSaIcE
   fun:_ZN20G4BaryonPartialWidthC1Ev
   fun:_ZN32G4ConcreteMesonBaryonToResonance21theBaryonPartialWidthEv
   fun:_ZN32G4ConcreteMesonBaryonToResonanceC1EPK20G4ParticleDefinitionS2_S2_RK8G4String
   fun:_ZN33G4CollisionMesonBaryonToResonanceC1Ev
   fun:_ZN22G4CollisionMesonBaryonC1Ev
   fun:_ZN11G4ScattererC1Ev
   fun:_ZN15G4BinaryCascadeC1EP19G4VPreCompoundModel
   fun:_ZN24G4BinaryLightIonReactionC1EP19G4VPreCompoundModel
}

{
   basf2 suppression 373
   Memcheck:Leak
   fun:_Znwm
   fun:_ZNSs4_Rep9_S_createEmmRKSaIcE
   fun:_ZNSs12_S_constructIPKcEEPcT_S3_RKSaIcESt20forward_iterator_tag.part.29
   fun:_ZNSsC1EPKcRKSaIcE
   fun:_ZN20G4BaryonPartialWidthC1Ev
   fun:_ZN32G4ConcreteMesonBaryonToResonance21theBaryonPartialWidthEv
   fun:_ZN32G4ConcreteMesonBaryonToResonanceC1EPK20G4ParticleDefinitionS2_S2_RK8G4String
   fun:_ZN33G4CollisionMesonBaryonToResonanceC1Ev
   fun:_ZN22G4CollisionMesonBaryonC1Ev
   fun:_ZN11G4ScattererC1Ev
   fun:_ZN15G4BinaryCascadeC1EP19G4VPreCompoundModel
   fun:_ZN24G4BinaryLightIonReactionC1EP19G4VPreCompoundModel
}

{
   basf2 suppression 374
   Memcheck:Leak
   fun:_Znwm
   fun:_ZNSs4_Rep9_S_createEmmRKSaIcE
   fun:_ZNSs12_S_constructIPKcEEPcT_S3_RKSaIcESt20forward_iterator_tag.part.29
   fun:_ZNSsC1EPKcRKSaIcE
   fun:_ZN20G4BaryonPartialWidthC1Ev
   fun:_ZN32G4ConcreteMesonBaryonToResonance21theBaryonPartialWidthEv
   fun:_ZN32G4ConcreteMesonBaryonToResonanceC1EPK20G4ParticleDefinitionS2_S2_RK8G4String
   fun:_ZN33G4CollisionMesonBaryonToResonanceC1Ev
   fun:_ZN22G4CollisionMesonBaryonC1Ev
   fun:_ZN11G4ScattererC1Ev
   fun:_ZN15G4BinaryCascadeC1EP19G4VPreCompoundModel
   fun:_ZN24G4BinaryLightIonReactionC1EP19G4VPreCompoundModel
}

{
   basf2 suppression 375
   Memcheck:Leak
   fun:_Znwm
   fun:_ZNSs4_Rep9_S_createEmmRKSaIcE
   fun:_ZNSs12_S_constructIPKcEEPcT_S3_RKSaIcESt20forward_iterator_tag.part.29
   fun:_ZNSsC1EPKcRKSaIcE
   fun:_ZN20G4BaryonPartialWidthC1Ev
   fun:_ZN32G4ConcreteMesonBaryonToResonance21theBaryonPartialWidthEv
   fun:_ZN32G4ConcreteMesonBaryonToResonanceC1EPK20G4ParticleDefinitionS2_S2_RK8G4String
   fun:_ZN33G4CollisionMesonBaryonToResonanceC1Ev
   fun:_ZN22G4CollisionMesonBaryonC1Ev
   fun:_ZN11G4ScattererC1Ev
   fun:_ZN15G4BinaryCascadeC1EP19G4VPreCompoundModel
   fun:_ZN24G4BinaryLightIonReactionC1EP19G4VPreCompoundModel
}

{
   basf2 suppression 376
   Memcheck:Leak
   fun:_Znwm
   fun:_ZNSs4_Rep9_S_createEmmRKSaIcE
   fun:_ZNSs12_S_constructIPKcEEPcT_S3_RKSaIcESt20forward_iterator_tag.part.29
   fun:_ZNSsC1EPKcRKSaIcE
   fun:_ZN20G4BaryonPartialWidthC1Ev
   fun:_ZN32G4ConcreteMesonBaryonToResonance21theBaryonPartialWidthEv
   fun:_ZN32G4ConcreteMesonBaryonToResonanceC1EPK20G4ParticleDefinitionS2_S2_RK8G4String
   fun:_ZN33G4CollisionMesonBaryonToResonanceC1Ev
   fun:_ZN22G4CollisionMesonBaryonC1Ev
   fun:_ZN11G4ScattererC1Ev
   fun:_ZN15G4BinaryCascadeC1EP19G4VPreCompoundModel
   fun:_ZN24G4BinaryLightIonReactionC1EP19G4VPreCompoundModel
}

{
   basf2 suppression 377
   Memcheck:Leak
   fun:_Znwm
   fun:_ZNSs4_Rep9_S_createEmmRKSaIcE
   fun:_ZNSs12_S_constructIPKcEEPcT_S3_RKSaIcESt20forward_iterator_tag.part.29
   fun:_ZNSsC1EPKcmRKSaIcE
   fun:_ZN5clang12Preprocessor22RegisterBuiltinPragmasEv
   fun:_ZN5clang12PreprocessorC1EN4llvm18IntrusiveRefCntPtrINS_19PreprocessorOptionsEEERNS_17DiagnosticsEngineERNS_11LangOptionsERNS_13SourceManagerERNS_12HeaderSearchERNS_12ModuleLoaderEPNS_20IdentifierInfoLookupEbNS_19TranslationUnitKindE
   fun:_ZN5clang16CompilerInstance18createPreprocessorENS_19TranslationUnitKindE
   fun:_ZN12_GLOBAL__N_1L12createCIImplESt10unique_ptrIN4llvm12MemoryBufferESt14default_deleteIS2_EEiPKPKcS7_b
   fun:_ZN5cling9CIFactory8createCIEN4llvm9StringRefEiPKPKcS4_
   fun:_ZN5cling17IncrementalParserC1EPNS_11InterpreterEiPKPKcS4_
   fun:_ZN5cling11InterpreterC1EiPKPKcS2_b
   fun:_ZN6TClingC1EPKcS1_
}

{
   basf2 suppression 378
   Memcheck:Leak
   fun:_Znwm
   fun:_ZNSs4_Rep9_S_createEmmRKSaIcE
   fun:_ZNSs12_S_constructIPKcEEPcT_S3_RKSaIcESt20forward_iterator_tag.part.29
   fun:_ZNSsC1EPKcmRKSaIcE
   fun:_ZN5clang16CompilerInstance18createPreprocessorENS_19TranslationUnitKindE
   fun:_ZN12_GLOBAL__N_1L12createCIImplESt10unique_ptrIN4llvm12MemoryBufferESt14default_deleteIS2_EEiPKPKcS7_b
   fun:_ZN5cling9CIFactory8createCIEN4llvm9StringRefEiPKPKcS4_
   fun:_ZN5cling17IncrementalParserC1EPNS_11InterpreterEiPKPKcS4_
   fun:_ZN5cling11InterpreterC1EiPKPKcS2_b
   fun:_ZN6TClingC1EPKcS1_
   fun:CreateInterpreter
   fun:_ZN5TROOT15InitInterpreterEv
}

{
   basf2 suppression 379
   Memcheck:Leak
   fun:_Znwm
   fun:_ZNSs4_Rep9_S_createEmmRKSaIcE
   fun:_ZNSs12_S_constructIPKcEEPcT_S3_RKSaIcESt20forward_iterator_tag.part.29
   fun:_ZNSsC1EPKcmRKSaIcE
   fun:_ZN5clang6Parser24initializePragmaHandlersEv
   fun:_ZN5clang6ParserC1ERNS_12PreprocessorERNS_4SemaEbb
   fun:_ZN5cling17IncrementalParser10InitializeERN4llvm15SmallVectorImplINS1_14PointerIntPairIPNS_11TransactionELj2ENS0_12EParseResultENS1_21PointerLikeTypeTraitsIS5_EEEEEE
   fun:_ZN5cling11InterpreterC1EiPKPKcS2_b
   fun:_ZN6TClingC1EPKcS1_
   fun:CreateInterpreter
   fun:_ZN5TROOT15InitInterpreterEv
   fun:_ZN4ROOT8GetROOT2Ev
}

{
   basf2 suppression 380
   Memcheck:Leak
   fun:_Znwm
   fun:_ZNSs4_Rep9_S_createEmmRKSaIcE
   fun:_ZNSs12_S_constructIPKcEEPcT_S3_RKSaIcESt20forward_iterator_tag.part.29
   fun:_ZNSsC1EPKcRKSaIcE
   fun:_ZN6PyROOT16CreateScopeProxyERKSsP7_object
   fun:_ZN6PyROOT16CreateScopeProxyEP7_objectS1_
   fun:PyCFunction_Call
   fun:PyEval_EvalFrameEx
   fun:_PyEval_EvalCodeWithName
   fun:PyEval_EvalCodeEx
   fun:builtin___build_class__
   fun:PyCFunction_Call
}

{
   basf2 suppression 381
   Memcheck:Leak
   fun:_Znwm
   fun:_ZNSs4_Rep9_S_createEmmRKSaIcE
   fun:_ZNSs12_S_constructIPKcEEPcT_S3_RKSaIcESt20forward_iterator_tag.part.29
   fun:_ZNSsC1EPKcRKSaIcE
   fun:_GLOBAL__sub_I_G4RegisterPhysLists.cc
   fun:_dl_init
   fun:dl_open_worker
   fun:_dl_catch_error
   fun:_dl_open
   fun:dlopen_doit
   fun:_dl_catch_error
   fun:_dlerror_run
}

{
   basf2 suppression 382
   Memcheck:Leak
   fun:_Znwm
   fun:_ZNSs4_Rep9_S_createEmmRKSaIcE
   fun:_ZNSs12_S_constructIPKcEEPcT_S3_RKSaIcESt20forward_iterator_tag.part.29
   fun:_ZNSsC1EPKcRKSaIcE
   fun:_GLOBAL__sub_I_G4RegisterPhysLists.cc
   fun:_dl_init
   fun:dl_open_worker
   fun:_dl_catch_error
   fun:_dl_open
   fun:dlopen_doit
   fun:_dl_catch_error
   fun:_dlerror_run
}

{
   basf2 suppression 383
   Memcheck:Leak
   fun:_Znwm
   fun:_ZNSs4_Rep9_S_createEmmRKSaIcE
   fun:_ZNSs12_S_constructIPKcEEPcT_S3_RKSaIcESt20forward_iterator_tag.part.29
   fun:_ZNSsC1EPKcRKSaIcE
   fun:_GLOBAL__sub_I_G4RegisterPhysLists.cc
   fun:_dl_init
   fun:dl_open_worker
   fun:_dl_catch_error
   fun:_dl_open
   fun:dlopen_doit
   fun:_dl_catch_error
   fun:_dlerror_run
}

{
   basf2 suppression 384
   Memcheck:Leak
   fun:_Znwm
   fun:_ZNSs4_Rep9_S_createEmmRKSaIcE
   fun:_ZNSs12_S_constructIPKcEEPcT_S3_RKSaIcESt20forward_iterator_tag.part.29
   fun:_ZNSsC1EPKcRKSaIcE
   fun:_ZN13G4BaryonWidthC1Ev
   fun:_ZN32G4ConcreteMesonBaryonToResonance14theBaryonWidthEv
   fun:_ZN32G4ConcreteMesonBaryonToResonanceC1EPK20G4ParticleDefinitionS2_S2_RK8G4String
   fun:_ZN33G4CollisionMesonBaryonToResonanceC1Ev
   fun:_ZN22G4CollisionMesonBaryonC1Ev
   fun:_ZN11G4ScattererC1Ev
   fun:_ZN15G4BinaryCascadeC1EP19G4VPreCompoundModel
   fun:_ZN24G4BinaryLightIonReactionC1EP19G4VPreCompoundModel
}

{
   basf2 suppression 385
   Memcheck:Leak
   fun:_Znwm
   fun:_ZNSs4_Rep9_S_createEmmRKSaIcE
   fun:_ZNSs12_S_constructIPKcEEPcT_S3_RKSaIcESt20forward_iterator_tag.part.29
   fun:_ZNSsC1EPKcRKSaIcE
   fun:_ZN13G4BaryonWidthC1Ev
   fun:_ZN32G4ConcreteMesonBaryonToResonance14theBaryonWidthEv
   fun:_ZN32G4ConcreteMesonBaryonToResonanceC1EPK20G4ParticleDefinitionS2_S2_RK8G4String
   fun:_ZN33G4CollisionMesonBaryonToResonanceC1Ev
   fun:_ZN22G4CollisionMesonBaryonC1Ev
   fun:_ZN11G4ScattererC1Ev
   fun:_ZN15G4BinaryCascadeC1EP19G4VPreCompoundModel
   fun:_ZN24G4BinaryLightIonReactionC1EP19G4VPreCompoundModel
}

{
   basf2 suppression 386
   Memcheck:Leak
   fun:_Znwm
   fun:_ZNSs4_Rep9_S_createEmmRKSaIcE
   fun:_ZNSs12_S_constructIPKcEEPcT_S3_RKSaIcESt20forward_iterator_tag.part.29
   fun:_ZNSsC1EPKcRKSaIcE
   fun:_ZN13G4BaryonWidthC1Ev
   fun:_ZN32G4ConcreteMesonBaryonToResonance14theBaryonWidthEv
   fun:_ZN32G4ConcreteMesonBaryonToResonanceC1EPK20G4ParticleDefinitionS2_S2_RK8G4String
   fun:_ZN33G4CollisionMesonBaryonToResonanceC1Ev
   fun:_ZN22G4CollisionMesonBaryonC1Ev
   fun:_ZN11G4ScattererC1Ev
   fun:_ZN15G4BinaryCascadeC1EP19G4VPreCompoundModel
   fun:_ZN24G4BinaryLightIonReactionC1EP19G4VPreCompoundModel
}

{
   basf2 suppression 387
   Memcheck:Leak
   fun:_Znwm
   fun:_ZNSs4_Rep9_S_createEmmRKSaIcE
   fun:_ZNSs12_S_constructIPKcEEPcT_S3_RKSaIcESt20forward_iterator_tag.part.29
   fun:_ZNSsC1EPKcRKSaIcE
   fun:_ZN13G4BaryonWidthC1Ev
   fun:_ZN32G4ConcreteMesonBaryonToResonance14theBaryonWidthEv
   fun:_ZN32G4ConcreteMesonBaryonToResonanceC1EPK20G4ParticleDefinitionS2_S2_RK8G4String
   fun:_ZN33G4CollisionMesonBaryonToResonanceC1Ev
   fun:_ZN22G4CollisionMesonBaryonC1Ev
   fun:_ZN11G4ScattererC1Ev
   fun:_ZN15G4BinaryCascadeC1EP19G4VPreCompoundModel
   fun:_ZN24G4BinaryLightIonReactionC1EP19G4VPreCompoundModel
}

{
   basf2 suppression 388
   Memcheck:Leak
   fun:_Znwm
   fun:_ZNSs4_Rep9_S_createEmmRKSaIcE
   fun:_ZNSs12_S_constructIPKcEEPcT_S3_RKSaIcESt20forward_iterator_tag.part.29
   fun:_ZNSsC1EPKcRKSaIcE
   fun:_ZN13G4BaryonWidthC1Ev
   fun:_ZN32G4ConcreteMesonBaryonToResonance14theBaryonWidthEv
   fun:_ZN32G4ConcreteMesonBaryonToResonanceC1EPK20G4ParticleDefinitionS2_S2_RK8G4String
   fun:_ZN33G4CollisionMesonBaryonToResonanceC1Ev
   fun:_ZN22G4CollisionMesonBaryonC1Ev
   fun:_ZN11G4ScattererC1Ev
   fun:_ZN15G4BinaryCascadeC1EP19G4VPreCompoundModel
   fun:_ZN24G4BinaryLightIonReactionC1EP19G4VPreCompoundModel
}

{
   basf2 suppression 389
   Memcheck:Leak
   fun:_Znwm
   fun:_ZNSs4_Rep9_S_createEmmRKSaIcE
   fun:_ZNSs12_S_constructIPKcEEPcT_S3_RKSaIcESt20forward_iterator_tag.part.29
   fun:_ZNSsC1EPKcRKSaIcE
   fun:_ZN13G4BaryonWidthC1Ev
   fun:_ZN32G4ConcreteMesonBaryonToResonance14theBaryonWidthEv
   fun:_ZN32G4ConcreteMesonBaryonToResonanceC1EPK20G4ParticleDefinitionS2_S2_RK8G4String
   fun:_ZN33G4CollisionMesonBaryonToResonanceC1Ev
   fun:_ZN22G4CollisionMesonBaryonC1Ev
   fun:_ZN11G4ScattererC1Ev
   fun:_ZN15G4BinaryCascadeC1EP19G4VPreCompoundModel
   fun:_ZN24G4BinaryLightIonReactionC1EP19G4VPreCompoundModel
}

{
   basf2 suppression 390
   Memcheck:Leak
   fun:_Znwm
   fun:_ZNSs4_Rep9_S_createEmmRKSaIcE
   fun:_ZNSs12_S_constructIPKcEEPcT_S3_RKSaIcESt20forward_iterator_tag.part.29
   fun:_ZNSsC1EPKcRKSaIcE
   fun:_ZN13G4BaryonWidthC1Ev
   fun:_ZN32G4ConcreteMesonBaryonToResonance14theBaryonWidthEv
   fun:_ZN32G4ConcreteMesonBaryonToResonanceC1EPK20G4ParticleDefinitionS2_S2_RK8G4String
   fun:_ZN33G4CollisionMesonBaryonToResonanceC1Ev
   fun:_ZN22G4CollisionMesonBaryonC1Ev
   fun:_ZN11G4ScattererC1Ev
   fun:_ZN15G4BinaryCascadeC1EP19G4VPreCompoundModel
   fun:_ZN24G4BinaryLightIonReactionC1EP19G4VPreCompoundModel
}

{
   basf2 suppression 391
   Memcheck:Leak
   fun:_Znwm
   fun:_ZNSs4_Rep9_S_createEmmRKSaIcE
   fun:_ZNSs12_S_constructIPKcEEPcT_S3_RKSaIcESt20forward_iterator_tag.part.29
   fun:_ZNSsC1EPKcRKSaIcE
   fun:_ZN13G4BaryonWidthC1Ev
   fun:_ZN32G4ConcreteMesonBaryonToResonance14theBaryonWidthEv
   fun:_ZN32G4ConcreteMesonBaryonToResonanceC1EPK20G4ParticleDefinitionS2_S2_RK8G4String
   fun:_ZN33G4CollisionMesonBaryonToResonanceC1Ev
   fun:_ZN22G4CollisionMesonBaryonC1Ev
   fun:_ZN11G4ScattererC1Ev
   fun:_ZN15G4BinaryCascadeC1EP19G4VPreCompoundModel
   fun:_ZN24G4BinaryLightIonReactionC1EP19G4VPreCompoundModel
}

{
   basf2 suppression 392
   Memcheck:Leak
   fun:_Znwm
   fun:_ZNSs4_Rep9_S_createEmmRKSaIcE
   fun:_ZNSs12_S_constructIPKcEEPcT_S3_RKSaIcESt20forward_iterator_tag.part.29
   fun:_ZNSsC1EPKcRKSaIcE
   fun:_ZN13G4BaryonWidthC1Ev
   fun:_ZN32G4ConcreteMesonBaryonToResonance14theBaryonWidthEv
   fun:_ZN32G4ConcreteMesonBaryonToResonanceC1EPK20G4ParticleDefinitionS2_S2_RK8G4String
   fun:_ZN33G4CollisionMesonBaryonToResonanceC1Ev
   fun:_ZN22G4CollisionMesonBaryonC1Ev
   fun:_ZN11G4ScattererC1Ev
   fun:_ZN15G4BinaryCascadeC1EP19G4VPreCompoundModel
   fun:_ZN24G4BinaryLightIonReactionC1EP19G4VPreCompoundModel
}

{
   basf2 suppression 393
   Memcheck:Leak
   fun:_Znwm
   fun:_ZNSs4_Rep9_S_createEmmRKSaIcE
   fun:_ZNSs12_S_constructIPKcEEPcT_S3_RKSaIcESt20forward_iterator_tag.part.29
   fun:_ZNSsC1EPKcRKSaIcE
   fun:_ZN13G4BaryonWidthC1Ev
   fun:_ZN32G4ConcreteMesonBaryonToResonance14theBaryonWidthEv
   fun:_ZN32G4ConcreteMesonBaryonToResonanceC1EPK20G4ParticleDefinitionS2_S2_RK8G4String
   fun:_ZN33G4CollisionMesonBaryonToResonanceC1Ev
   fun:_ZN22G4CollisionMesonBaryonC1Ev
   fun:_ZN11G4ScattererC1Ev
   fun:_ZN15G4BinaryCascadeC1EP19G4VPreCompoundModel
   fun:_ZN24G4BinaryLightIonReactionC1EP19G4VPreCompoundModel
}

{
   basf2 suppression 394
   Memcheck:Leak
   fun:_Znwm
   fun:_ZNSs4_Rep9_S_createEmmRKSaIcE
   fun:_ZNSs12_S_constructIPKcEEPcT_S3_RKSaIcESt20forward_iterator_tag.part.29
   fun:_ZNSsC1EPKcRKSaIcE
   fun:_ZN13G4BaryonWidthC1Ev
   fun:_ZN32G4ConcreteMesonBaryonToResonance14theBaryonWidthEv
   fun:_ZN32G4ConcreteMesonBaryonToResonanceC1EPK20G4ParticleDefinitionS2_S2_RK8G4String
   fun:_ZN33G4CollisionMesonBaryonToResonanceC1Ev
   fun:_ZN22G4CollisionMesonBaryonC1Ev
   fun:_ZN11G4ScattererC1Ev
   fun:_ZN15G4BinaryCascadeC1EP19G4VPreCompoundModel
   fun:_ZN24G4BinaryLightIonReactionC1EP19G4VPreCompoundModel
}

{
   basf2 suppression 395
   Memcheck:Leak
   fun:_Znwm
   fun:_ZNSs4_Rep9_S_createEmmRKSaIcE
   fun:_ZNSs12_S_constructIPKcEEPcT_S3_RKSaIcESt20forward_iterator_tag.part.29
   fun:_ZNSsC1EPKcRKSaIcE
   fun:_ZN13G4BaryonWidthC1Ev
   fun:_ZN32G4ConcreteMesonBaryonToResonance14theBaryonWidthEv
   fun:_ZN32G4ConcreteMesonBaryonToResonanceC1EPK20G4ParticleDefinitionS2_S2_RK8G4String
   fun:_ZN33G4CollisionMesonBaryonToResonanceC1Ev
   fun:_ZN22G4CollisionMesonBaryonC1Ev
   fun:_ZN11G4ScattererC1Ev
   fun:_ZN15G4BinaryCascadeC1EP19G4VPreCompoundModel
   fun:_ZN24G4BinaryLightIonReactionC1EP19G4VPreCompoundModel
}

{
   basf2 suppression 396
   Memcheck:Leak
   fun:_Znwm
   fun:_ZNSs4_Rep9_S_createEmmRKSaIcE
   fun:_ZNSs12_S_constructIPKcEEPcT_S3_RKSaIcESt20forward_iterator_tag.part.29
   fun:_ZNSsC1EPKcRKSaIcE
   fun:_ZN13G4BaryonWidthC1Ev
   fun:_ZN32G4ConcreteMesonBaryonToResonance14theBaryonWidthEv
   fun:_ZN32G4ConcreteMesonBaryonToResonanceC1EPK20G4ParticleDefinitionS2_S2_RK8G4String
   fun:_ZN33G4CollisionMesonBaryonToResonanceC1Ev
   fun:_ZN22G4CollisionMesonBaryonC1Ev
   fun:_ZN11G4ScattererC1Ev
   fun:_ZN15G4BinaryCascadeC1EP19G4VPreCompoundModel
   fun:_ZN24G4BinaryLightIonReactionC1EP19G4VPreCompoundModel
}

{
   basf2 suppression 397
   Memcheck:Leak
   fun:_Znwm
   fun:_ZNSs4_Rep9_S_createEmmRKSaIcE
   fun:_ZNSs12_S_constructIPKcEEPcT_S3_RKSaIcESt20forward_iterator_tag.part.29
   fun:_ZNSsC1EPKcRKSaIcE
   fun:_ZN13G4BaryonWidthC1Ev
   fun:_ZN32G4ConcreteMesonBaryonToResonance14theBaryonWidthEv
   fun:_ZN32G4ConcreteMesonBaryonToResonanceC1EPK20G4ParticleDefinitionS2_S2_RK8G4String
   fun:_ZN33G4CollisionMesonBaryonToResonanceC1Ev
   fun:_ZN22G4CollisionMesonBaryonC1Ev
   fun:_ZN11G4ScattererC1Ev
   fun:_ZN15G4BinaryCascadeC1EP19G4VPreCompoundModel
   fun:_ZN24G4BinaryLightIonReactionC1EP19G4VPreCompoundModel
}

{
   basf2 suppression 398
   Memcheck:Leak
   fun:_Znwm
   fun:_ZNSs4_Rep9_S_createEmmRKSaIcE
   fun:_ZNSs12_S_constructIPKcEEPcT_S3_RKSaIcESt20forward_iterator_tag.part.29
   fun:_ZNSsC1EPKcRKSaIcE
   fun:_ZN13G4BaryonWidthC1Ev
   fun:_ZN32G4ConcreteMesonBaryonToResonance14theBaryonWidthEv
   fun:_ZN32G4ConcreteMesonBaryonToResonanceC1EPK20G4ParticleDefinitionS2_S2_RK8G4String
   fun:_ZN33G4CollisionMesonBaryonToResonanceC1Ev
   fun:_ZN22G4CollisionMesonBaryonC1Ev
   fun:_ZN11G4ScattererC1Ev
   fun:_ZN15G4BinaryCascadeC1EP19G4VPreCompoundModel
   fun:_ZN24G4BinaryLightIonReactionC1EP19G4VPreCompoundModel
}

{
   basf2 suppression 399
   Memcheck:Leak
   fun:_Znwm
   fun:_ZNSs4_Rep9_S_createEmmRKSaIcE
   fun:_ZNSs12_S_constructIPKcEEPcT_S3_RKSaIcESt20forward_iterator_tag.part.29
   fun:_ZNSsC1EPKcRKSaIcE
   fun:_ZN13G4BaryonWidthC1Ev
   fun:_ZN32G4ConcreteMesonBaryonToResonance14theBaryonWidthEv
   fun:_ZN32G4ConcreteMesonBaryonToResonanceC1EPK20G4ParticleDefinitionS2_S2_RK8G4String
   fun:_ZN33G4CollisionMesonBaryonToResonanceC1Ev
   fun:_ZN22G4CollisionMesonBaryonC1Ev
   fun:_ZN11G4ScattererC1Ev
   fun:_ZN15G4BinaryCascadeC1EP19G4VPreCompoundModel
   fun:_ZN24G4BinaryLightIonReactionC1EP19G4VPreCompoundModel
}

{
   basf2 suppression 400
   Memcheck:Leak
   fun:_Znwm
   fun:_ZNSs4_Rep9_S_createEmmRKSaIcE
   fun:_ZNSs12_S_constructIPKcEEPcT_S3_RKSaIcESt20forward_iterator_tag.part.29
   fun:_ZNSsC1EPKcRKSaIcE
   fun:_ZN13G4BaryonWidthC1Ev
   fun:_ZN32G4ConcreteMesonBaryonToResonance14theBaryonWidthEv
   fun:_ZN32G4ConcreteMesonBaryonToResonanceC1EPK20G4ParticleDefinitionS2_S2_RK8G4String
   fun:_ZN33G4CollisionMesonBaryonToResonanceC1Ev
   fun:_ZN22G4CollisionMesonBaryonC1Ev
   fun:_ZN11G4ScattererC1Ev
   fun:_ZN15G4BinaryCascadeC1EP19G4VPreCompoundModel
   fun:_ZN24G4BinaryLightIonReactionC1EP19G4VPreCompoundModel
}

{
   basf2 suppression 401
   Memcheck:Leak
   fun:_Znwm
   fun:_ZNSs4_Rep9_S_createEmmRKSaIcE
   fun:_ZNSs12_S_constructIPKcEEPcT_S3_RKSaIcESt20forward_iterator_tag.part.29
   fun:_ZNSsC1EPKcRKSaIcE
   fun:_ZN20G4BaryonPartialWidthC1Ev
   fun:_ZN32G4ConcreteMesonBaryonToResonance21theBaryonPartialWidthEv
   fun:_ZN32G4ConcreteMesonBaryonToResonanceC1EPK20G4ParticleDefinitionS2_S2_RK8G4String
   fun:_ZN33G4CollisionMesonBaryonToResonanceC1Ev
   fun:_ZN22G4CollisionMesonBaryonC1Ev
   fun:_ZN11G4ScattererC1Ev
   fun:_ZN15G4BinaryCascadeC1EP19G4VPreCompoundModel
   fun:_ZN24G4BinaryLightIonReactionC1EP19G4VPreCompoundModel
}

{
   basf2 suppression 402
   Memcheck:Leak
   fun:_Znwm
   fun:_ZNSs4_Rep9_S_createEmmRKSaIcE
   fun:_ZNSs12_S_constructIPKcEEPcT_S3_RKSaIcESt20forward_iterator_tag.part.29
   fun:_ZNSsC1EPKcRKSaIcE
   fun:_ZN20G4BaryonPartialWidthC1Ev
   fun:_ZN32G4ConcreteMesonBaryonToResonance21theBaryonPartialWidthEv
   fun:_ZN32G4ConcreteMesonBaryonToResonanceC1EPK20G4ParticleDefinitionS2_S2_RK8G4String
   fun:_ZN33G4CollisionMesonBaryonToResonanceC1Ev
   fun:_ZN22G4CollisionMesonBaryonC1Ev
   fun:_ZN11G4ScattererC1Ev
   fun:_ZN15G4BinaryCascadeC1EP19G4VPreCompoundModel
   fun:_ZN24G4BinaryLightIonReactionC1EP19G4VPreCompoundModel
}

{
   basf2 suppression 403
   Memcheck:Leak
   fun:_Znwm
   fun:_ZNSs4_Rep9_S_createEmmRKSaIcE
   fun:_ZNSs12_S_constructIPKcEEPcT_S3_RKSaIcESt20forward_iterator_tag.part.29
   fun:_ZNSsC1EPKcRKSaIcE
   fun:_ZN20G4BaryonPartialWidthC1Ev
   fun:_ZN32G4ConcreteMesonBaryonToResonance21theBaryonPartialWidthEv
   fun:_ZN32G4ConcreteMesonBaryonToResonanceC1EPK20G4ParticleDefinitionS2_S2_RK8G4String
   fun:_ZN33G4CollisionMesonBaryonToResonanceC1Ev
   fun:_ZN22G4CollisionMesonBaryonC1Ev
   fun:_ZN11G4ScattererC1Ev
   fun:_ZN15G4BinaryCascadeC1EP19G4VPreCompoundModel
   fun:_ZN24G4BinaryLightIonReactionC1EP19G4VPreCompoundModel
}

{
   basf2 suppression 404
   Memcheck:Leak
   fun:_Znwm
   fun:_ZNSs4_Rep9_S_createEmmRKSaIcE
   fun:_ZNSs12_S_constructIPKcEEPcT_S3_RKSaIcESt20forward_iterator_tag.part.29
   fun:_ZNSsC1EPKcRKSaIcE
   fun:_ZN20G4BaryonPartialWidthC1Ev
   fun:_ZN32G4ConcreteMesonBaryonToResonance21theBaryonPartialWidthEv
   fun:_ZN32G4ConcreteMesonBaryonToResonanceC1EPK20G4ParticleDefinitionS2_S2_RK8G4String
   fun:_ZN33G4CollisionMesonBaryonToResonanceC1Ev
   fun:_ZN22G4CollisionMesonBaryonC1Ev
   fun:_ZN11G4ScattererC1Ev
   fun:_ZN15G4BinaryCascadeC1EP19G4VPreCompoundModel
   fun:_ZN24G4BinaryLightIonReactionC1EP19G4VPreCompoundModel
}

{
   basf2 suppression 405
   Memcheck:Leak
   fun:_Znwm
   fun:_ZNSs4_Rep9_S_createEmmRKSaIcE
   fun:_ZNSs12_S_constructIPKcEEPcT_S3_RKSaIcESt20forward_iterator_tag.part.29
   fun:_ZNSsC1EPKcRKSaIcE
   fun:_ZN20G4BaryonPartialWidthC1Ev
   fun:_ZN32G4ConcreteMesonBaryonToResonance21theBaryonPartialWidthEv
   fun:_ZN32G4ConcreteMesonBaryonToResonanceC1EPK20G4ParticleDefinitionS2_S2_RK8G4String
   fun:_ZN33G4CollisionMesonBaryonToResonanceC1Ev
   fun:_ZN22G4CollisionMesonBaryonC1Ev
   fun:_ZN11G4ScattererC1Ev
   fun:_ZN15G4BinaryCascadeC1EP19G4VPreCompoundModel
   fun:_ZN24G4BinaryLightIonReactionC1EP19G4VPreCompoundModel
}

{
   basf2 suppression 406
   Memcheck:Leak
   fun:_Znwm
   fun:_ZNSs4_Rep9_S_createEmmRKSaIcE
   fun:_ZNSs12_S_constructIPKcEEPcT_S3_RKSaIcESt20forward_iterator_tag.part.29
   fun:_ZNSsC1EPKcRKSaIcE
   fun:_ZN20G4BaryonPartialWidthC1Ev
   fun:_ZN32G4ConcreteMesonBaryonToResonance21theBaryonPartialWidthEv
   fun:_ZN32G4ConcreteMesonBaryonToResonanceC1EPK20G4ParticleDefinitionS2_S2_RK8G4String
   fun:_ZN33G4CollisionMesonBaryonToResonanceC1Ev
   fun:_ZN22G4CollisionMesonBaryonC1Ev
   fun:_ZN11G4ScattererC1Ev
   fun:_ZN15G4BinaryCascadeC1EP19G4VPreCompoundModel
   fun:_ZN24G4BinaryLightIonReactionC1EP19G4VPreCompoundModel
}

{
   basf2 suppression 407
   Memcheck:Leak
   fun:_Znwm
   fun:_ZNSs4_Rep9_S_createEmmRKSaIcE
   fun:_ZNSs12_S_constructIPKcEEPcT_S3_RKSaIcESt20forward_iterator_tag.part.29
   fun:_ZNSsC1EPKcRKSaIcE
   fun:_ZN20G4BaryonPartialWidthC1Ev
   fun:_ZN32G4ConcreteMesonBaryonToResonance21theBaryonPartialWidthEv
   fun:_ZN32G4ConcreteMesonBaryonToResonanceC1EPK20G4ParticleDefinitionS2_S2_RK8G4String
   fun:_ZN33G4CollisionMesonBaryonToResonanceC1Ev
   fun:_ZN22G4CollisionMesonBaryonC1Ev
   fun:_ZN11G4ScattererC1Ev
   fun:_ZN15G4BinaryCascadeC1EP19G4VPreCompoundModel
   fun:_ZN24G4BinaryLightIonReactionC1EP19G4VPreCompoundModel
}

{
   basf2 suppression 408
   Memcheck:Leak
   fun:_Znwm
   fun:_ZNSs4_Rep9_S_createEmmRKSaIcE
   fun:_ZNSs12_S_constructIPKcEEPcT_S3_RKSaIcESt20forward_iterator_tag.part.29
   fun:_ZNSsC1EPKcRKSaIcE
   fun:_ZN20G4BaryonPartialWidthC1Ev
   fun:_ZN32G4ConcreteMesonBaryonToResonance21theBaryonPartialWidthEv
   fun:_ZN32G4ConcreteMesonBaryonToResonanceC1EPK20G4ParticleDefinitionS2_S2_RK8G4String
   fun:_ZN33G4CollisionMesonBaryonToResonanceC1Ev
   fun:_ZN22G4CollisionMesonBaryonC1Ev
   fun:_ZN11G4ScattererC1Ev
   fun:_ZN15G4BinaryCascadeC1EP19G4VPreCompoundModel
   fun:_ZN24G4BinaryLightIonReactionC1EP19G4VPreCompoundModel
}

{
   basf2 suppression 409
   Memcheck:Leak
   fun:_Znwm
   fun:_ZNSs4_Rep9_S_createEmmRKSaIcE
   fun:_ZNSs12_S_constructIPKcEEPcT_S3_RKSaIcESt20forward_iterator_tag.part.29
   fun:_ZNSsC1EPKcRKSaIcE
   fun:_ZN20G4BaryonPartialWidthC1Ev
   fun:_ZN32G4ConcreteMesonBaryonToResonance21theBaryonPartialWidthEv
   fun:_ZN32G4ConcreteMesonBaryonToResonanceC1EPK20G4ParticleDefinitionS2_S2_RK8G4String
   fun:_ZN33G4CollisionMesonBaryonToResonanceC1Ev
   fun:_ZN22G4CollisionMesonBaryonC1Ev
   fun:_ZN11G4ScattererC1Ev
   fun:_ZN15G4BinaryCascadeC1EP19G4VPreCompoundModel
   fun:_ZN24G4BinaryLightIonReactionC1EP19G4VPreCompoundModel
}

{
   basf2 suppression 410
   Memcheck:Leak
   fun:_Znwm
   fun:_ZNSs4_Rep9_S_createEmmRKSaIcE
   fun:_ZNSs12_S_constructIPKcEEPcT_S3_RKSaIcESt20forward_iterator_tag.part.29
   fun:_ZNSsC1EPKcRKSaIcE
   fun:_ZN20G4BaryonPartialWidthC1Ev
   fun:_ZN32G4ConcreteMesonBaryonToResonance21theBaryonPartialWidthEv
   fun:_ZN32G4ConcreteMesonBaryonToResonanceC1EPK20G4ParticleDefinitionS2_S2_RK8G4String
   fun:_ZN33G4CollisionMesonBaryonToResonanceC1Ev
   fun:_ZN22G4CollisionMesonBaryonC1Ev
   fun:_ZN11G4ScattererC1Ev
   fun:_ZN15G4BinaryCascadeC1EP19G4VPreCompoundModel
   fun:_ZN24G4BinaryLightIonReactionC1EP19G4VPreCompoundModel
}

{
   basf2 suppression 411
   Memcheck:Leak
   fun:_Znwm
   fun:_ZNSs4_Rep9_S_createEmmRKSaIcE
   fun:_ZNSs12_S_constructIPKcEEPcT_S3_RKSaIcESt20forward_iterator_tag.part.29
   fun:_ZNSsC1EPKcRKSaIcE
   fun:_ZN20G4BaryonPartialWidthC1Ev
   fun:_ZN32G4ConcreteMesonBaryonToResonance21theBaryonPartialWidthEv
   fun:_ZN32G4ConcreteMesonBaryonToResonanceC1EPK20G4ParticleDefinitionS2_S2_RK8G4String
   fun:_ZN33G4CollisionMesonBaryonToResonanceC1Ev
   fun:_ZN22G4CollisionMesonBaryonC1Ev
   fun:_ZN11G4ScattererC1Ev
   fun:_ZN15G4BinaryCascadeC1EP19G4VPreCompoundModel
   fun:_ZN24G4BinaryLightIonReactionC1EP19G4VPreCompoundModel
}

{
   basf2 suppression 412
   Memcheck:Leak
   fun:_Znwm
   fun:_ZNSs4_Rep9_S_createEmmRKSaIcE
   fun:_ZNSs12_S_constructIPKcEEPcT_S3_RKSaIcESt20forward_iterator_tag.part.29
   fun:_ZNSsC1EPKcRKSaIcE
   fun:_ZN20G4BaryonPartialWidthC1Ev
   fun:_ZN32G4ConcreteMesonBaryonToResonance21theBaryonPartialWidthEv
   fun:_ZN32G4ConcreteMesonBaryonToResonanceC1EPK20G4ParticleDefinitionS2_S2_RK8G4String
   fun:_ZN33G4CollisionMesonBaryonToResonanceC1Ev
   fun:_ZN22G4CollisionMesonBaryonC1Ev
   fun:_ZN11G4ScattererC1Ev
   fun:_ZN15G4BinaryCascadeC1EP19G4VPreCompoundModel
   fun:_ZN24G4BinaryLightIonReactionC1EP19G4VPreCompoundModel
}

{
   basf2 suppression 413
   Memcheck:Leak
   fun:_Znwm
   fun:_ZNSs4_Rep9_S_createEmmRKSaIcE
   fun:_ZNSs12_S_constructIPKcEEPcT_S3_RKSaIcESt20forward_iterator_tag.part.29
   fun:_ZNSsC1EPKcRKSaIcE
   fun:_ZN20G4BaryonPartialWidthC1Ev
   fun:_ZN32G4ConcreteMesonBaryonToResonance21theBaryonPartialWidthEv
   fun:_ZN32G4ConcreteMesonBaryonToResonanceC1EPK20G4ParticleDefinitionS2_S2_RK8G4String
   fun:_ZN33G4CollisionMesonBaryonToResonanceC1Ev
   fun:_ZN22G4CollisionMesonBaryonC1Ev
   fun:_ZN11G4ScattererC1Ev
   fun:_ZN15G4BinaryCascadeC1EP19G4VPreCompoundModel
   fun:_ZN24G4BinaryLightIonReactionC1EP19G4VPreCompoundModel
}

{
   basf2 suppression 414
   Memcheck:Leak
   fun:_Znwm
   fun:_ZNSs4_Rep9_S_createEmmRKSaIcE
   fun:_ZNSs12_S_constructIPKcEEPcT_S3_RKSaIcESt20forward_iterator_tag.part.29
   fun:_ZNSsC1EPKcRKSaIcE
   fun:_ZN20G4BaryonPartialWidthC1Ev
   fun:_ZN32G4ConcreteMesonBaryonToResonance21theBaryonPartialWidthEv
   fun:_ZN32G4ConcreteMesonBaryonToResonanceC1EPK20G4ParticleDefinitionS2_S2_RK8G4String
   fun:_ZN33G4CollisionMesonBaryonToResonanceC1Ev
   fun:_ZN22G4CollisionMesonBaryonC1Ev
   fun:_ZN11G4ScattererC1Ev
   fun:_ZN15G4BinaryCascadeC1EP19G4VPreCompoundModel
   fun:_ZN24G4BinaryLightIonReactionC1EP19G4VPreCompoundModel
}

{
   basf2 suppression 415
   Memcheck:Leak
   fun:_Znwm
   fun:_ZNSs4_Rep9_S_createEmmRKSaIcE
   fun:_ZNSs12_S_constructIPKcEEPcT_S3_RKSaIcESt20forward_iterator_tag.part.29
   fun:_ZNSsC1EPKcRKSaIcE
   fun:_ZN20G4BaryonPartialWidthC1Ev
   fun:_ZN32G4ConcreteMesonBaryonToResonance21theBaryonPartialWidthEv
   fun:_ZN32G4ConcreteMesonBaryonToResonanceC1EPK20G4ParticleDefinitionS2_S2_RK8G4String
   fun:_ZN33G4CollisionMesonBaryonToResonanceC1Ev
   fun:_ZN22G4CollisionMesonBaryonC1Ev
   fun:_ZN11G4ScattererC1Ev
   fun:_ZN15G4BinaryCascadeC1EP19G4VPreCompoundModel
   fun:_ZN24G4BinaryLightIonReactionC1EP19G4VPreCompoundModel
}

{
   basf2 suppression 416
   Memcheck:Leak
   fun:_Znwm
   fun:_ZNSs4_Rep9_S_createEmmRKSaIcE
   fun:_ZNSs12_S_constructIPKcEEPcT_S3_RKSaIcESt20forward_iterator_tag.part.29
   fun:_ZNSsC1EPKcRKSaIcE
   fun:_ZN20G4BaryonPartialWidthC1Ev
   fun:_ZN32G4ConcreteMesonBaryonToResonance21theBaryonPartialWidthEv
   fun:_ZN32G4ConcreteMesonBaryonToResonanceC1EPK20G4ParticleDefinitionS2_S2_RK8G4String
   fun:_ZN33G4CollisionMesonBaryonToResonanceC1Ev
   fun:_ZN22G4CollisionMesonBaryonC1Ev
   fun:_ZN11G4ScattererC1Ev
   fun:_ZN15G4BinaryCascadeC1EP19G4VPreCompoundModel
   fun:_ZN24G4BinaryLightIonReactionC1EP19G4VPreCompoundModel
}

{
   basf2 suppression 417
   Memcheck:Leak
   fun:_Znwm
   fun:_ZNSs4_Rep9_S_createEmmRKSaIcE
   fun:_ZNSs12_S_constructIPKcEEPcT_S3_RKSaIcESt20forward_iterator_tag.part.29
   fun:_ZNSsC1EPKcRKSaIcE
   fun:_ZN20G4BaryonPartialWidthC1Ev
   fun:_ZN32G4ConcreteMesonBaryonToResonance21theBaryonPartialWidthEv
   fun:_ZN32G4ConcreteMesonBaryonToResonanceC1EPK20G4ParticleDefinitionS2_S2_RK8G4String
   fun:_ZN33G4CollisionMesonBaryonToResonanceC1Ev
   fun:_ZN22G4CollisionMesonBaryonC1Ev
   fun:_ZN11G4ScattererC1Ev
   fun:_ZN15G4BinaryCascadeC1EP19G4VPreCompoundModel
   fun:_ZN24G4BinaryLightIonReactionC1EP19G4VPreCompoundModel
}

{
   basf2 suppression 418
   Memcheck:Leak
   fun:_Znwm
   fun:_ZNSs4_Rep9_S_createEmmRKSaIcE
   fun:_ZNSs12_S_constructIPKcEEPcT_S3_RKSaIcESt20forward_iterator_tag.part.29
   fun:_ZNSsC1EPKcRKSaIcE
   fun:_ZN20G4BaryonPartialWidthC1Ev
   fun:_ZN32G4ConcreteMesonBaryonToResonance21theBaryonPartialWidthEv
   fun:_ZN32G4ConcreteMesonBaryonToResonanceC1EPK20G4ParticleDefinitionS2_S2_RK8G4String
   fun:_ZN33G4CollisionMesonBaryonToResonanceC1Ev
   fun:_ZN22G4CollisionMesonBaryonC1Ev
   fun:_ZN11G4ScattererC1Ev
   fun:_ZN15G4BinaryCascadeC1EP19G4VPreCompoundModel
   fun:_ZN24G4BinaryLightIonReactionC1EP19G4VPreCompoundModel
}

{
   basf2 suppression 419
   Memcheck:Leak
   fun:_Znwm
   fun:_ZNSs4_Rep9_S_createEmmRKSaIcE
   fun:_ZNSs12_S_constructIPKcEEPcT_S3_RKSaIcESt20forward_iterator_tag.part.29
   fun:_ZNSsC1EPKcRKSaIcE
   fun:_ZN20G4BaryonPartialWidthC1Ev
   fun:_ZN32G4ConcreteMesonBaryonToResonance21theBaryonPartialWidthEv
   fun:_ZN32G4ConcreteMesonBaryonToResonanceC1EPK20G4ParticleDefinitionS2_S2_RK8G4String
   fun:_ZN33G4CollisionMesonBaryonToResonanceC1Ev
   fun:_ZN22G4CollisionMesonBaryonC1Ev
   fun:_ZN11G4ScattererC1Ev
   fun:_ZN15G4BinaryCascadeC1EP19G4VPreCompoundModel
   fun:_ZN24G4BinaryLightIonReactionC1EP19G4VPreCompoundModel
}

{
   basf2 suppression 420
   Memcheck:Leak
   fun:_Znwm
   fun:_ZNSs4_Rep9_S_createEmmRKSaIcE
   fun:_ZNSs12_S_constructIPKcEEPcT_S3_RKSaIcESt20forward_iterator_tag.part.29
   fun:_ZNSsC1EPKcRKSaIcE
   fun:_ZN20G4BaryonPartialWidthC1Ev
   fun:_ZN32G4ConcreteMesonBaryonToResonance21theBaryonPartialWidthEv
   fun:_ZN32G4ConcreteMesonBaryonToResonanceC1EPK20G4ParticleDefinitionS2_S2_RK8G4String
   fun:_ZN33G4CollisionMesonBaryonToResonanceC1Ev
   fun:_ZN22G4CollisionMesonBaryonC1Ev
   fun:_ZN11G4ScattererC1Ev
   fun:_ZN15G4BinaryCascadeC1EP19G4VPreCompoundModel
   fun:_ZN24G4BinaryLightIonReactionC1EP19G4VPreCompoundModel
}

{
   basf2 suppression 421
   Memcheck:Leak
   fun:_Znwm
   fun:_ZNSs4_Rep9_S_createEmmRKSaIcE
   fun:_ZNSs12_S_constructIPKcEEPcT_S3_RKSaIcESt20forward_iterator_tag.part.29
   fun:_ZNSsC1EPKcRKSaIcE
   fun:_ZN20G4BaryonPartialWidthC1Ev
   fun:_ZN32G4ConcreteMesonBaryonToResonance21theBaryonPartialWidthEv
   fun:_ZN32G4ConcreteMesonBaryonToResonanceC1EPK20G4ParticleDefinitionS2_S2_RK8G4String
   fun:_ZN33G4CollisionMesonBaryonToResonanceC1Ev
   fun:_ZN22G4CollisionMesonBaryonC1Ev
   fun:_ZN11G4ScattererC1Ev
   fun:_ZN15G4BinaryCascadeC1EP19G4VPreCompoundModel
   fun:_ZN24G4BinaryLightIonReactionC1EP19G4VPreCompoundModel
}

{
   basf2 suppression 422
   Memcheck:Leak
   fun:_Znwm
   fun:_ZNSs4_Rep9_S_createEmmRKSaIcE
   fun:_ZNSs12_S_constructIPKcEEPcT_S3_RKSaIcESt20forward_iterator_tag.part.29
   fun:_ZNSsC1EPKcRKSaIcE
   fun:_ZN20G4BaryonPartialWidthC1Ev
   fun:_ZN32G4ConcreteMesonBaryonToResonance21theBaryonPartialWidthEv
   fun:_ZN32G4ConcreteMesonBaryonToResonanceC1EPK20G4ParticleDefinitionS2_S2_RK8G4String
   fun:_ZN33G4CollisionMesonBaryonToResonanceC1Ev
   fun:_ZN22G4CollisionMesonBaryonC1Ev
   fun:_ZN11G4ScattererC1Ev
   fun:_ZN15G4BinaryCascadeC1EP19G4VPreCompoundModel
   fun:_ZN24G4BinaryLightIonReactionC1EP19G4VPreCompoundModel
}

{
   basf2 suppression 423
   Memcheck:Leak
   fun:_Znwm
   fun:_ZNSs4_Rep9_S_createEmmRKSaIcE
   fun:_ZNSs12_S_constructIPKcEEPcT_S3_RKSaIcESt20forward_iterator_tag.part.29
   fun:_ZNSsC1EPKcRKSaIcE
   fun:_ZN20G4BaryonPartialWidthC1Ev
   fun:_ZN32G4ConcreteMesonBaryonToResonance21theBaryonPartialWidthEv
   fun:_ZN32G4ConcreteMesonBaryonToResonanceC1EPK20G4ParticleDefinitionS2_S2_RK8G4String
   fun:_ZN33G4CollisionMesonBaryonToResonanceC1Ev
   fun:_ZN22G4CollisionMesonBaryonC1Ev
   fun:_ZN11G4ScattererC1Ev
   fun:_ZN15G4BinaryCascadeC1EP19G4VPreCompoundModel
   fun:_ZN24G4BinaryLightIonReactionC1EP19G4VPreCompoundModel
}

{
   basf2 suppression 424
   Memcheck:Leak
   fun:_Znwm
   fun:_ZNSs4_Rep9_S_createEmmRKSaIcE
   fun:_ZNSs12_S_constructIPKcEEPcT_S3_RKSaIcESt20forward_iterator_tag.part.29
   fun:_ZNSsC1EPKcRKSaIcE
   fun:_ZN20G4BaryonPartialWidthC1Ev
   fun:_ZN32G4ConcreteMesonBaryonToResonance21theBaryonPartialWidthEv
   fun:_ZN32G4ConcreteMesonBaryonToResonanceC1EPK20G4ParticleDefinitionS2_S2_RK8G4String
   fun:_ZN33G4CollisionMesonBaryonToResonanceC1Ev
   fun:_ZN22G4CollisionMesonBaryonC1Ev
   fun:_ZN11G4ScattererC1Ev
   fun:_ZN15G4BinaryCascadeC1EP19G4VPreCompoundModel
   fun:_ZN24G4BinaryLightIonReactionC1EP19G4VPreCompoundModel
}

{
   basf2 suppression 425
   Memcheck:Leak
   fun:_Znwm
   fun:_ZNSs4_Rep9_S_createEmmRKSaIcE
   fun:_ZNSs12_S_constructIPKcEEPcT_S3_RKSaIcESt20forward_iterator_tag.part.29
   fun:_ZNSsC1EPKcRKSaIcE
   fun:_ZN20G4BaryonPartialWidthC1Ev
   fun:_ZN32G4ConcreteMesonBaryonToResonance21theBaryonPartialWidthEv
   fun:_ZN32G4ConcreteMesonBaryonToResonanceC1EPK20G4ParticleDefinitionS2_S2_RK8G4String
   fun:_ZN33G4CollisionMesonBaryonToResonanceC1Ev
   fun:_ZN22G4CollisionMesonBaryonC1Ev
   fun:_ZN11G4ScattererC1Ev
   fun:_ZN15G4BinaryCascadeC1EP19G4VPreCompoundModel
   fun:_ZN24G4BinaryLightIonReactionC1EP19G4VPreCompoundModel
}

{
   basf2 suppression 426
   Memcheck:Leak
   fun:_Znwm
   fun:_ZNSs4_Rep9_S_createEmmRKSaIcE
   fun:_ZNSs12_S_constructIPKcEEPcT_S3_RKSaIcESt20forward_iterator_tag.part.29
   fun:_ZNSsC1EPKcRKSaIcE
   fun:_ZN20G4BaryonPartialWidthC1Ev
   fun:_ZN32G4ConcreteMesonBaryonToResonance21theBaryonPartialWidthEv
   fun:_ZN32G4ConcreteMesonBaryonToResonanceC1EPK20G4ParticleDefinitionS2_S2_RK8G4String
   fun:_ZN33G4CollisionMesonBaryonToResonanceC1Ev
   fun:_ZN22G4CollisionMesonBaryonC1Ev
   fun:_ZN11G4ScattererC1Ev
   fun:_ZN15G4BinaryCascadeC1EP19G4VPreCompoundModel
   fun:_ZN24G4BinaryLightIonReactionC1EP19G4VPreCompoundModel
}

{
   basf2 suppression 427
   Memcheck:Leak
   fun:_Znwm
   fun:_ZNSs4_Rep9_S_createEmmRKSaIcE
   fun:_ZNSs12_S_constructIPKcEEPcT_S3_RKSaIcESt20forward_iterator_tag.part.29
   fun:_ZNSsC1EPKcRKSaIcE
   fun:_ZN20G4BaryonPartialWidthC1Ev
   fun:_ZN32G4ConcreteMesonBaryonToResonance21theBaryonPartialWidthEv
   fun:_ZN32G4ConcreteMesonBaryonToResonanceC1EPK20G4ParticleDefinitionS2_S2_RK8G4String
   fun:_ZN33G4CollisionMesonBaryonToResonanceC1Ev
   fun:_ZN22G4CollisionMesonBaryonC1Ev
   fun:_ZN11G4ScattererC1Ev
   fun:_ZN15G4BinaryCascadeC1EP19G4VPreCompoundModel
   fun:_ZN24G4BinaryLightIonReactionC1EP19G4VPreCompoundModel
}

{
   basf2 suppression 428
   Memcheck:Leak
   fun:_Znwm
   fun:_ZNSs4_Rep9_S_createEmmRKSaIcE
   fun:_ZNSs12_S_constructIPKcEEPcT_S3_RKSaIcESt20forward_iterator_tag.part.29
   fun:_ZNSsC1EPKcRKSaIcE
   fun:_ZN20G4BaryonPartialWidthC1Ev
   fun:_ZN32G4ConcreteMesonBaryonToResonance21theBaryonPartialWidthEv
   fun:_ZN32G4ConcreteMesonBaryonToResonanceC1EPK20G4ParticleDefinitionS2_S2_RK8G4String
   fun:_ZN33G4CollisionMesonBaryonToResonanceC1Ev
   fun:_ZN22G4CollisionMesonBaryonC1Ev
   fun:_ZN11G4ScattererC1Ev
   fun:_ZN15G4BinaryCascadeC1EP19G4VPreCompoundModel
   fun:_ZN24G4BinaryLightIonReactionC1EP19G4VPreCompoundModel
}

{
   basf2 suppression 429
   Memcheck:Leak
   fun:_Znwm
   fun:_ZNSs4_Rep9_S_createEmmRKSaIcE
   fun:_ZNSs12_S_constructIPKcEEPcT_S3_RKSaIcESt20forward_iterator_tag.part.29
   fun:_ZNSsC1EPKcRKSaIcE
   fun:_ZN20G4BaryonPartialWidthC1Ev
   fun:_ZN32G4ConcreteMesonBaryonToResonance21theBaryonPartialWidthEv
   fun:_ZN32G4ConcreteMesonBaryonToResonanceC1EPK20G4ParticleDefinitionS2_S2_RK8G4String
   fun:_ZN33G4CollisionMesonBaryonToResonanceC1Ev
   fun:_ZN22G4CollisionMesonBaryonC1Ev
   fun:_ZN11G4ScattererC1Ev
   fun:_ZN15G4BinaryCascadeC1EP19G4VPreCompoundModel
   fun:_ZN24G4BinaryLightIonReactionC1EP19G4VPreCompoundModel
}

{
   basf2 suppression 430
   Memcheck:Leak
   fun:_Znwm
   fun:_ZNSs4_Rep9_S_createEmmRKSaIcE
   fun:_ZNSs12_S_constructIPKcEEPcT_S3_RKSaIcESt20forward_iterator_tag.part.29
   fun:_ZNSsC1EPKcRKSaIcE
   fun:_ZN20G4BaryonPartialWidthC1Ev
   fun:_ZN32G4ConcreteMesonBaryonToResonance21theBaryonPartialWidthEv
   fun:_ZN32G4ConcreteMesonBaryonToResonanceC1EPK20G4ParticleDefinitionS2_S2_RK8G4String
   fun:_ZN33G4CollisionMesonBaryonToResonanceC1Ev
   fun:_ZN22G4CollisionMesonBaryonC1Ev
   fun:_ZN11G4ScattererC1Ev
   fun:_ZN15G4BinaryCascadeC1EP19G4VPreCompoundModel
   fun:_ZN24G4BinaryLightIonReactionC1EP19G4VPreCompoundModel
}

{
   basf2 suppression 431
   Memcheck:Leak
   fun:_Znwm
   fun:_ZNSs4_Rep9_S_createEmmRKSaIcE
   fun:_ZNSs12_S_constructIPKcEEPcT_S3_RKSaIcESt20forward_iterator_tag.part.29
   fun:_ZNSsC1EPKcRKSaIcE
   fun:_ZN20G4BaryonPartialWidthC1Ev
   fun:_ZN32G4ConcreteMesonBaryonToResonance21theBaryonPartialWidthEv
   fun:_ZN32G4ConcreteMesonBaryonToResonanceC1EPK20G4ParticleDefinitionS2_S2_RK8G4String
   fun:_ZN33G4CollisionMesonBaryonToResonanceC1Ev
   fun:_ZN22G4CollisionMesonBaryonC1Ev
   fun:_ZN11G4ScattererC1Ev
   fun:_ZN15G4BinaryCascadeC1EP19G4VPreCompoundModel
   fun:_ZN24G4BinaryLightIonReactionC1EP19G4VPreCompoundModel
}

{
   basf2 suppression 432
   Memcheck:Leak
   fun:_Znwm
   fun:_ZNSs4_Rep9_S_createEmmRKSaIcE
   fun:_ZNSs12_S_constructIPKcEEPcT_S3_RKSaIcESt20forward_iterator_tag.part.29
   fun:_ZNSsC1EPKcRKSaIcE
   fun:_ZN20G4BaryonPartialWidthC1Ev
   fun:_ZN32G4ConcreteMesonBaryonToResonance21theBaryonPartialWidthEv
   fun:_ZN32G4ConcreteMesonBaryonToResonanceC1EPK20G4ParticleDefinitionS2_S2_RK8G4String
   fun:_ZN33G4CollisionMesonBaryonToResonanceC1Ev
   fun:_ZN22G4CollisionMesonBaryonC1Ev
   fun:_ZN11G4ScattererC1Ev
   fun:_ZN15G4BinaryCascadeC1EP19G4VPreCompoundModel
   fun:_ZN24G4BinaryLightIonReactionC1EP19G4VPreCompoundModel
}

{
   basf2 suppression 433
   Memcheck:Leak
   fun:_Znwm
   fun:_ZNSs4_Rep9_S_createEmmRKSaIcE
   fun:_ZNSs12_S_constructIPKcEEPcT_S3_RKSaIcESt20forward_iterator_tag.part.29
   fun:_ZNSsC1EPKcRKSaIcE
   fun:_ZN20G4BaryonPartialWidthC1Ev
   fun:_ZN32G4ConcreteMesonBaryonToResonance21theBaryonPartialWidthEv
   fun:_ZN32G4ConcreteMesonBaryonToResonanceC1EPK20G4ParticleDefinitionS2_S2_RK8G4String
   fun:_ZN33G4CollisionMesonBaryonToResonanceC1Ev
   fun:_ZN22G4CollisionMesonBaryonC1Ev
   fun:_ZN11G4ScattererC1Ev
   fun:_ZN15G4BinaryCascadeC1EP19G4VPreCompoundModel
   fun:_ZN24G4BinaryLightIonReactionC1EP19G4VPreCompoundModel
}

{
   basf2 suppression 434
   Memcheck:Leak
   fun:_Znwm
   fun:_ZNSs4_Rep9_S_createEmmRKSaIcE
   fun:_ZNSs12_S_constructIPKcEEPcT_S3_RKSaIcESt20forward_iterator_tag.part.29
   fun:_ZNSsC1EPKcRKSaIcE
   fun:_ZN20G4BaryonPartialWidthC1Ev
   fun:_ZN32G4ConcreteMesonBaryonToResonance21theBaryonPartialWidthEv
   fun:_ZN32G4ConcreteMesonBaryonToResonanceC1EPK20G4ParticleDefinitionS2_S2_RK8G4String
   fun:_ZN33G4CollisionMesonBaryonToResonanceC1Ev
   fun:_ZN22G4CollisionMesonBaryonC1Ev
   fun:_ZN11G4ScattererC1Ev
   fun:_ZN15G4BinaryCascadeC1EP19G4VPreCompoundModel
   fun:_ZN24G4BinaryLightIonReactionC1EP19G4VPreCompoundModel
}

{
   basf2 suppression 435
   Memcheck:Leak
   fun:_Znwm
   fun:_ZNSs4_Rep9_S_createEmmRKSaIcE
   fun:_ZNSs12_S_constructIPKcEEPcT_S3_RKSaIcESt20forward_iterator_tag.part.29
   fun:_ZNSsC1EPKcRKSaIcE
   fun:_ZN20G4BaryonPartialWidthC1Ev
   fun:_ZN32G4ConcreteMesonBaryonToResonance21theBaryonPartialWidthEv
   fun:_ZN32G4ConcreteMesonBaryonToResonanceC1EPK20G4ParticleDefinitionS2_S2_RK8G4String
   fun:_ZN33G4CollisionMesonBaryonToResonanceC1Ev
   fun:_ZN22G4CollisionMesonBaryonC1Ev
   fun:_ZN11G4ScattererC1Ev
   fun:_ZN15G4BinaryCascadeC1EP19G4VPreCompoundModel
   fun:_ZN24G4BinaryLightIonReactionC1EP19G4VPreCompoundModel
}

{
   basf2 suppression 436
   Memcheck:Leak
   fun:_Znwm
   fun:_ZNSs4_Rep9_S_createEmmRKSaIcE
   fun:_ZNSs12_S_constructIPKcEEPcT_S3_RKSaIcESt20forward_iterator_tag.part.29
   fun:_ZNSsC1EPKcRKSaIcE
   fun:_ZN20G4BaryonPartialWidthC1Ev
   fun:_ZN32G4ConcreteMesonBaryonToResonance21theBaryonPartialWidthEv
   fun:_ZN32G4ConcreteMesonBaryonToResonanceC1EPK20G4ParticleDefinitionS2_S2_RK8G4String
   fun:_ZN33G4CollisionMesonBaryonToResonanceC1Ev
   fun:_ZN22G4CollisionMesonBaryonC1Ev
   fun:_ZN11G4ScattererC1Ev
   fun:_ZN15G4BinaryCascadeC1EP19G4VPreCompoundModel
   fun:_ZN24G4BinaryLightIonReactionC1EP19G4VPreCompoundModel
}

{
   basf2 suppression 437
   Memcheck:Leak
   fun:_Znwm
   fun:_ZNSs4_Rep9_S_createEmmRKSaIcE
   fun:_ZNSs12_S_constructIPKcEEPcT_S3_RKSaIcESt20forward_iterator_tag.part.29
   fun:_ZNSsC1EPKcRKSaIcE
   fun:_ZN20G4BaryonPartialWidthC1Ev
   fun:_ZN32G4ConcreteMesonBaryonToResonance21theBaryonPartialWidthEv
   fun:_ZN32G4ConcreteMesonBaryonToResonanceC1EPK20G4ParticleDefinitionS2_S2_RK8G4String
   fun:_ZN33G4CollisionMesonBaryonToResonanceC1Ev
   fun:_ZN22G4CollisionMesonBaryonC1Ev
   fun:_ZN11G4ScattererC1Ev
   fun:_ZN15G4BinaryCascadeC1EP19G4VPreCompoundModel
   fun:_ZN24G4BinaryLightIonReactionC1EP19G4VPreCompoundModel
}

{
   basf2 suppression 438
   Memcheck:Leak
   fun:_Znwm
   fun:_ZNSs4_Rep9_S_createEmmRKSaIcE
   fun:_ZNSs12_S_constructIPKcEEPcT_S3_RKSaIcESt20forward_iterator_tag.part.29
   fun:_ZNSsC1EPKcRKSaIcE
   fun:_ZN20G4BaryonPartialWidthC1Ev
   fun:_ZN32G4ConcreteMesonBaryonToResonance21theBaryonPartialWidthEv
   fun:_ZN32G4ConcreteMesonBaryonToResonanceC1EPK20G4ParticleDefinitionS2_S2_RK8G4String
   fun:_ZN33G4CollisionMesonBaryonToResonanceC1Ev
   fun:_ZN22G4CollisionMesonBaryonC1Ev
   fun:_ZN11G4ScattererC1Ev
   fun:_ZN15G4BinaryCascadeC1EP19G4VPreCompoundModel
   fun:_ZN24G4BinaryLightIonReactionC1EP19G4VPreCompoundModel
}

{
   basf2 suppression 439
   Memcheck:Leak
   fun:_Znwm
   fun:_ZNSs4_Rep9_S_createEmmRKSaIcE
   fun:_ZNSs12_S_constructIPKcEEPcT_S3_RKSaIcESt20forward_iterator_tag.part.29
   fun:_ZNSsC1EPKcRKSaIcE
   fun:_ZN20G4BaryonPartialWidthC1Ev
   fun:_ZN32G4ConcreteMesonBaryonToResonance21theBaryonPartialWidthEv
   fun:_ZN32G4ConcreteMesonBaryonToResonanceC1EPK20G4ParticleDefinitionS2_S2_RK8G4String
   fun:_ZN33G4CollisionMesonBaryonToResonanceC1Ev
   fun:_ZN22G4CollisionMesonBaryonC1Ev
   fun:_ZN11G4ScattererC1Ev
   fun:_ZN15G4BinaryCascadeC1EP19G4VPreCompoundModel
   fun:_ZN24G4BinaryLightIonReactionC1EP19G4VPreCompoundModel
}

{
   basf2 suppression 440
   Memcheck:Leak
   fun:_Znwm
   fun:_ZNSs4_Rep9_S_createEmmRKSaIcE
   fun:_ZNSs12_S_constructIPKcEEPcT_S3_RKSaIcESt20forward_iterator_tag.part.29
   fun:_ZNSsC1EPKcRKSaIcE
   fun:_ZN20G4BaryonPartialWidthC1Ev
   fun:_ZN32G4ConcreteMesonBaryonToResonance21theBaryonPartialWidthEv
   fun:_ZN32G4ConcreteMesonBaryonToResonanceC1EPK20G4ParticleDefinitionS2_S2_RK8G4String
   fun:_ZN33G4CollisionMesonBaryonToResonanceC1Ev
   fun:_ZN22G4CollisionMesonBaryonC1Ev
   fun:_ZN11G4ScattererC1Ev
   fun:_ZN15G4BinaryCascadeC1EP19G4VPreCompoundModel
   fun:_ZN24G4BinaryLightIonReactionC1EP19G4VPreCompoundModel
}

{
   basf2 suppression 441
   Memcheck:Leak
   fun:_Znwm
   fun:_ZNSs4_Rep9_S_createEmmRKSaIcE
   fun:_ZNSs12_S_constructIPKcEEPcT_S3_RKSaIcESt20forward_iterator_tag.part.29
   fun:_ZNSsC1EPKcRKSaIcE
   fun:_ZN20G4BaryonPartialWidthC1Ev
   fun:_ZN32G4ConcreteMesonBaryonToResonance21theBaryonPartialWidthEv
   fun:_ZN32G4ConcreteMesonBaryonToResonanceC1EPK20G4ParticleDefinitionS2_S2_RK8G4String
   fun:_ZN33G4CollisionMesonBaryonToResonanceC1Ev
   fun:_ZN22G4CollisionMesonBaryonC1Ev
   fun:_ZN11G4ScattererC1Ev
   fun:_ZN15G4BinaryCascadeC1EP19G4VPreCompoundModel
   fun:_ZN24G4BinaryLightIonReactionC1EP19G4VPreCompoundModel
}

{
   basf2 suppression 442
   Memcheck:Leak
   fun:_Znwm
   fun:_ZNSs4_Rep9_S_createEmmRKSaIcE
   fun:_ZNSs12_S_constructIPKcEEPcT_S3_RKSaIcESt20forward_iterator_tag.part.29
   fun:_ZNSsC1EPKcRKSaIcE
   fun:_ZNK18KalmanVertexFitter17defaultParametersEv
   fun:_ZN18KalmanVertexFitterC1Eb
   fun:_ZN24ConfigurableKalmanFitterC1Ev
   fun:_ZN17ConfFitterBuilderI24ConfigurableKalmanFitterEC1ERKSsS3_
   fun:_GLOBAL__sub_I_ConfigurableKalmanFitter.cc
   fun:_dl_init
   fun:dl_open_worker
   fun:_dl_catch_error
}

{
   basf2 suppression 443
   Memcheck:Leak
   fun:_Znwm
   fun:_ZNSs4_Rep9_S_createEmmRKSaIcE
   fun:_ZNSs12_S_constructIPKcEEPcT_S3_RKSaIcESt20forward_iterator_tag.part.29
   fun:_ZNSsC1EPKcRKSaIcE
   fun:_ZNK18KalmanVertexFitter17defaultParametersEv
   fun:_ZN18KalmanVertexFitterC1Eb
   fun:_ZN25KalmanTrimmedVertexFinderC1Ev
   fun:_ZN31ConfigurableTrimmedKalmanFinder9configureERKN3edm12ParameterSetE
   fun:_ZN31ConfigurableTrimmedKalmanFinderC1Ev
   fun:_GLOBAL__sub_I_ConfigurableTrimmedKalmanFinder.cc
   fun:_dl_init
   fun:dl_open_worker
}

{
   basf2 suppression 444
   Memcheck:Leak
   fun:_Znwm
   fun:_ZNSs4_Rep9_S_createEmmRKSaIcE
   fun:_ZNSs12_S_constructIPKcEEPcT_S3_RKSaIcESt20forward_iterator_tag.part.29
   fun:_ZNSsC1EPKcRKSaIcE
   fun:_ZNK18KalmanVertexFitter17defaultParametersEv
   fun:_ZN18KalmanVertexFitterC1Eb
   fun:_ZN24ConfigurableKalmanFitterC1Ev
   fun:_ZN17ConfFitterBuilderI24ConfigurableKalmanFitterEC1ERKSsS3_
   fun:_GLOBAL__sub_I_ConfigurableKalmanFitter.cc
   fun:_dl_init
   fun:dl_open_worker
   fun:_dl_catch_error
}

{
   basf2 suppression 445
   Memcheck:Leak
   fun:_Znwm
   fun:_ZNSs4_Rep9_S_createEmmRKSaIcE
   fun:_ZNSs12_S_constructIPKcEEPcT_S3_RKSaIcESt20forward_iterator_tag.part.29
   fun:_ZNSsC1EPKcRKSaIcE
   fun:_ZN22SequentialVertexFitterILj5EE20setDefaultParametersEv
   fun:_ZN22SequentialVertexFitterILj5EEC1ERK24LinearizationPointFinderRK13VertexUpdatorILj5EERK14VertexSmootherILj5EERK18AbstractLTSFactoryILj5EE
   fun:_ZN15GsfVertexFitterC1ERKN3edm12ParameterSetERK24LinearizationPointFinder
   fun:_ZN29ConfigurableGaussianSumFilterC1Ev
   fun:_GLOBAL__sub_I_ConfigurableGaussianSumFilter.cc
   fun:_dl_init
   fun:dl_open_worker
   fun:_dl_catch_error
}

{
   basf2 suppression 446
   Memcheck:Leak
   fun:_Znwm
   fun:_ZNSs4_Rep9_S_createEmmRKSaIcE
   fun:_ZNSs12_S_constructIPKcEEPcT_S3_RKSaIcESt20forward_iterator_tag.part.29
   fun:_ZNSsC1EPKcRKSaIcE
   fun:_GLOBAL__sub_I_G4RegisterPhysLists.cc
   fun:_dl_init
   fun:dl_open_worker
   fun:_dl_catch_error
   fun:_dl_open
   fun:dlopen_doit
   fun:_dl_catch_error
   fun:_dlerror_run
}

{
   basf2 suppression 447
   Memcheck:Leak
   fun:_Znwm
   fun:_ZNSs4_Rep9_S_createEmmRKSaIcE
   fun:_ZNSs12_S_constructIPKcEEPcT_S3_RKSaIcESt20forward_iterator_tag.part.29
   fun:_ZNSsC1EPKcRKSaIcE
   fun:_GLOBAL__sub_I_G4IonPhysics.cc
   fun:_dl_init
   fun:dl_open_worker
   fun:_dl_catch_error
   fun:_dl_open
   fun:dlopen_doit
   fun:_dl_catch_error
   fun:_dlerror_run
}

{
   basf2 suppression 448
   Memcheck:Leak
   fun:_Znwm
   fun:_ZNSs4_Rep9_S_createEmmRKSaIcE
   fun:_ZNSs12_S_constructIPKcEEPcT_S3_RKSaIcESt20forward_iterator_tag.part.29
   fun:_ZNSsC1EPKcRKSaIcE
   fun:_GLOBAL__sub_I_G4RegisterPhysLists.cc
   fun:_dl_init
   fun:dl_open_worker
   fun:_dl_catch_error
   fun:_dl_open
   fun:dlopen_doit
   fun:_dl_catch_error
   fun:_dlerror_run
}

{
   basf2 suppression 449
   Memcheck:Leak
   fun:_Znwm
   fun:_ZNSs4_Rep9_S_createEmmRKSaIcE
   fun:_ZNSs12_S_constructIPKcEEPcT_S3_RKSaIcESt20forward_iterator_tag.part.29
   fun:_ZNSsC1EPKcRKSaIcE
   fun:_ZN13G4BaryonWidthC1Ev
   fun:_ZN32G4ConcreteMesonBaryonToResonance14theBaryonWidthEv
   fun:_ZN32G4ConcreteMesonBaryonToResonanceC1EPK20G4ParticleDefinitionS2_S2_RK8G4String
   fun:_ZN33G4CollisionMesonBaryonToResonanceC1Ev
   fun:_ZN22G4CollisionMesonBaryonC1Ev
   fun:_ZN11G4ScattererC1Ev
   fun:_ZN15G4BinaryCascadeC1EP19G4VPreCompoundModel
   fun:_ZN24G4BinaryLightIonReactionC1EP19G4VPreCompoundModel
}

{
   basf2 suppression 450
   Memcheck:Leak
   fun:_Znwm
   fun:_ZNSs4_Rep9_S_createEmmRKSaIcE
   fun:_ZNSs12_S_constructIPKcEEPcT_S3_RKSaIcESt20forward_iterator_tag.part.29
   fun:_ZNSsC1EPKcRKSaIcE
   fun:_ZN13G4BaryonWidthC1Ev
   fun:_ZN32G4ConcreteMesonBaryonToResonance14theBaryonWidthEv
   fun:_ZN32G4ConcreteMesonBaryonToResonanceC1EPK20G4ParticleDefinitionS2_S2_RK8G4String
   fun:_ZN33G4CollisionMesonBaryonToResonanceC1Ev
   fun:_ZN22G4CollisionMesonBaryonC1Ev
   fun:_ZN11G4ScattererC1Ev
   fun:_ZN15G4BinaryCascadeC1EP19G4VPreCompoundModel
   fun:_ZN24G4BinaryLightIonReactionC1EP19G4VPreCompoundModel
}

{
   basf2 suppression 451
   Memcheck:Leak
   fun:_Znwm
   fun:_ZNSs4_Rep9_S_createEmmRKSaIcE
   fun:_ZNSs12_S_constructIPKcEEPcT_S3_RKSaIcESt20forward_iterator_tag.part.29
   fun:_ZNSsC1EPKcRKSaIcE
   fun:_ZN13G4BaryonWidthC1Ev
   fun:_ZN32G4ConcreteMesonBaryonToResonance14theBaryonWidthEv
   fun:_ZN32G4ConcreteMesonBaryonToResonanceC1EPK20G4ParticleDefinitionS2_S2_RK8G4String
   fun:_ZN33G4CollisionMesonBaryonToResonanceC1Ev
   fun:_ZN22G4CollisionMesonBaryonC1Ev
   fun:_ZN11G4ScattererC1Ev
   fun:_ZN15G4BinaryCascadeC1EP19G4VPreCompoundModel
   fun:_ZN24G4BinaryLightIonReactionC1EP19G4VPreCompoundModel
}

{
   basf2 suppression 452
   Memcheck:Leak
   fun:_Znwm
   fun:_ZNSs4_Rep9_S_createEmmRKSaIcE
   fun:_ZNSs12_S_constructIPKcEEPcT_S3_RKSaIcESt20forward_iterator_tag.part.29
   fun:_ZNSsC1EPKcRKSaIcE
   fun:_ZN13G4BaryonWidthC1Ev
   fun:_ZN32G4ConcreteMesonBaryonToResonance14theBaryonWidthEv
   fun:_ZN32G4ConcreteMesonBaryonToResonanceC1EPK20G4ParticleDefinitionS2_S2_RK8G4String
   fun:_ZN33G4CollisionMesonBaryonToResonanceC1Ev
   fun:_ZN22G4CollisionMesonBaryonC1Ev
   fun:_ZN11G4ScattererC1Ev
   fun:_ZN15G4BinaryCascadeC1EP19G4VPreCompoundModel
   fun:_ZN24G4BinaryLightIonReactionC1EP19G4VPreCompoundModel
}

{
   basf2 suppression 453
   Memcheck:Leak
   fun:_Znwm
   fun:_ZNSs4_Rep9_S_createEmmRKSaIcE
   fun:_ZNSs12_S_constructIPKcEEPcT_S3_RKSaIcESt20forward_iterator_tag.part.29
   fun:_ZNSsC1EPKcRKSaIcE
   fun:_ZN13G4BaryonWidthC1Ev
   fun:_ZN32G4ConcreteMesonBaryonToResonance14theBaryonWidthEv
   fun:_ZN32G4ConcreteMesonBaryonToResonanceC1EPK20G4ParticleDefinitionS2_S2_RK8G4String
   fun:_ZN33G4CollisionMesonBaryonToResonanceC1Ev
   fun:_ZN22G4CollisionMesonBaryonC1Ev
   fun:_ZN11G4ScattererC1Ev
   fun:_ZN15G4BinaryCascadeC1EP19G4VPreCompoundModel
   fun:_ZN24G4BinaryLightIonReactionC1EP19G4VPreCompoundModel
}

{
   basf2 suppression 454
   Memcheck:Leak
   fun:_Znwm
   fun:_ZNSs4_Rep9_S_createEmmRKSaIcE
   fun:_ZNSs12_S_constructIPKcEEPcT_S3_RKSaIcESt20forward_iterator_tag.part.29
   fun:_ZNSsC1EPKcRKSaIcE
   fun:_ZN13G4BaryonWidthC1Ev
   fun:_ZN32G4ConcreteMesonBaryonToResonance14theBaryonWidthEv
   fun:_ZN32G4ConcreteMesonBaryonToResonanceC1EPK20G4ParticleDefinitionS2_S2_RK8G4String
   fun:_ZN33G4CollisionMesonBaryonToResonanceC1Ev
   fun:_ZN22G4CollisionMesonBaryonC1Ev
   fun:_ZN11G4ScattererC1Ev
   fun:_ZN15G4BinaryCascadeC1EP19G4VPreCompoundModel
   fun:_ZN24G4BinaryLightIonReactionC1EP19G4VPreCompoundModel
}

{
   basf2 suppression 455
   Memcheck:Leak
   fun:_Znwm
   fun:_ZNSs4_Rep9_S_createEmmRKSaIcE
   fun:_ZNSs12_S_constructIPKcEEPcT_S3_RKSaIcESt20forward_iterator_tag.part.29
   fun:_ZNSsC1EPKcRKSaIcE
   fun:_ZN13G4BaryonWidthC1Ev
   fun:_ZN32G4ConcreteMesonBaryonToResonance14theBaryonWidthEv
   fun:_ZN32G4ConcreteMesonBaryonToResonanceC1EPK20G4ParticleDefinitionS2_S2_RK8G4String
   fun:_ZN33G4CollisionMesonBaryonToResonanceC1Ev
   fun:_ZN22G4CollisionMesonBaryonC1Ev
   fun:_ZN11G4ScattererC1Ev
   fun:_ZN15G4BinaryCascadeC1EP19G4VPreCompoundModel
   fun:_ZN24G4BinaryLightIonReactionC1EP19G4VPreCompoundModel
}

{
   basf2 suppression 456
   Memcheck:Leak
   fun:_Znwm
   fun:_ZNSs4_Rep9_S_createEmmRKSaIcE
   fun:_ZNSs12_S_constructIPKcEEPcT_S3_RKSaIcESt20forward_iterator_tag.part.29
   fun:_ZNSsC1EPKcRKSaIcE
   fun:_ZN13G4BaryonWidthC1Ev
   fun:_ZN32G4ConcreteMesonBaryonToResonance14theBaryonWidthEv
   fun:_ZN32G4ConcreteMesonBaryonToResonanceC1EPK20G4ParticleDefinitionS2_S2_RK8G4String
   fun:_ZN33G4CollisionMesonBaryonToResonanceC1Ev
   fun:_ZN22G4CollisionMesonBaryonC1Ev
   fun:_ZN11G4ScattererC1Ev
   fun:_ZN15G4BinaryCascadeC1EP19G4VPreCompoundModel
   fun:_ZN24G4BinaryLightIonReactionC1EP19G4VPreCompoundModel
}

{
   basf2 suppression 457
   Memcheck:Leak
   fun:_Znwm
   fun:_ZNSs4_Rep9_S_createEmmRKSaIcE
   fun:_ZNSs12_S_constructIPKcEEPcT_S3_RKSaIcESt20forward_iterator_tag.part.29
   fun:_ZNSsC1EPKcRKSaIcE
   fun:_ZN13G4BaryonWidthC1Ev
   fun:_ZN32G4ConcreteMesonBaryonToResonance14theBaryonWidthEv
   fun:_ZN32G4ConcreteMesonBaryonToResonanceC1EPK20G4ParticleDefinitionS2_S2_RK8G4String
   fun:_ZN33G4CollisionMesonBaryonToResonanceC1Ev
   fun:_ZN22G4CollisionMesonBaryonC1Ev
   fun:_ZN11G4ScattererC1Ev
   fun:_ZN15G4BinaryCascadeC1EP19G4VPreCompoundModel
   fun:_ZN24G4BinaryLightIonReactionC1EP19G4VPreCompoundModel
}

{
   basf2 suppression 458
   Memcheck:Leak
   fun:_Znwm
   fun:_ZNSs4_Rep9_S_createEmmRKSaIcE
   fun:_ZNSs12_S_constructIPKcEEPcT_S3_RKSaIcESt20forward_iterator_tag.part.29
   fun:_ZNSsC1EPKcRKSaIcE
   fun:_ZN13G4BaryonWidthC1Ev
   fun:_ZN32G4ConcreteMesonBaryonToResonance14theBaryonWidthEv
   fun:_ZN32G4ConcreteMesonBaryonToResonanceC1EPK20G4ParticleDefinitionS2_S2_RK8G4String
   fun:_ZN33G4CollisionMesonBaryonToResonanceC1Ev
   fun:_ZN22G4CollisionMesonBaryonC1Ev
   fun:_ZN11G4ScattererC1Ev
   fun:_ZN15G4BinaryCascadeC1EP19G4VPreCompoundModel
   fun:_ZN24G4BinaryLightIonReactionC1EP19G4VPreCompoundModel
}

{
   basf2 suppression 459
   Memcheck:Leak
   fun:_Znwm
   fun:_ZNSs4_Rep9_S_createEmmRKSaIcE
   fun:_ZNSs12_S_constructIPKcEEPcT_S3_RKSaIcESt20forward_iterator_tag.part.29
   fun:_ZNSsC1EPKcRKSaIcE
   fun:_ZN13G4BaryonWidthC1Ev
   fun:_ZN32G4ConcreteMesonBaryonToResonance14theBaryonWidthEv
   fun:_ZN32G4ConcreteMesonBaryonToResonanceC1EPK20G4ParticleDefinitionS2_S2_RK8G4String
   fun:_ZN33G4CollisionMesonBaryonToResonanceC1Ev
   fun:_ZN22G4CollisionMesonBaryonC1Ev
   fun:_ZN11G4ScattererC1Ev
   fun:_ZN15G4BinaryCascadeC1EP19G4VPreCompoundModel
   fun:_ZN24G4BinaryLightIonReactionC1EP19G4VPreCompoundModel
}

{
   basf2 suppression 460
   Memcheck:Leak
   fun:_Znwm
   fun:_ZNSs4_Rep9_S_createEmmRKSaIcE
   fun:_ZNSs12_S_constructIPKcEEPcT_S3_RKSaIcESt20forward_iterator_tag.part.29
   fun:_ZNSsC1EPKcRKSaIcE
   fun:_ZN13G4BaryonWidthC1Ev
   fun:_ZN32G4ConcreteMesonBaryonToResonance14theBaryonWidthEv
   fun:_ZN32G4ConcreteMesonBaryonToResonanceC1EPK20G4ParticleDefinitionS2_S2_RK8G4String
   fun:_ZN33G4CollisionMesonBaryonToResonanceC1Ev
   fun:_ZN22G4CollisionMesonBaryonC1Ev
   fun:_ZN11G4ScattererC1Ev
   fun:_ZN15G4BinaryCascadeC1EP19G4VPreCompoundModel
   fun:_ZN24G4BinaryLightIonReactionC1EP19G4VPreCompoundModel
}

{
   basf2 suppression 461
   Memcheck:Leak
   fun:_Znwm
   fun:_ZNSs4_Rep9_S_createEmmRKSaIcE
   fun:_ZNSs12_S_constructIPKcEEPcT_S3_RKSaIcESt20forward_iterator_tag.part.29
   fun:_ZNSsC1EPKcRKSaIcE
   fun:_ZN20G4BaryonPartialWidthC1Ev
   fun:_ZN32G4ConcreteMesonBaryonToResonance21theBaryonPartialWidthEv
   fun:_ZN32G4ConcreteMesonBaryonToResonanceC1EPK20G4ParticleDefinitionS2_S2_RK8G4String
   fun:_ZN33G4CollisionMesonBaryonToResonanceC1Ev
   fun:_ZN22G4CollisionMesonBaryonC1Ev
   fun:_ZN11G4ScattererC1Ev
   fun:_ZN15G4BinaryCascadeC1EP19G4VPreCompoundModel
   fun:_ZN24G4BinaryLightIonReactionC1EP19G4VPreCompoundModel
}

{
   basf2 suppression 462
   Memcheck:Leak
   fun:_Znwm
   fun:_ZNSs4_Rep9_S_createEmmRKSaIcE
   fun:_ZNSs12_S_constructIPKcEEPcT_S3_RKSaIcESt20forward_iterator_tag.part.29
   fun:_ZNSsC1EPKcRKSaIcE
   fun:_ZN20G4BaryonPartialWidthC1Ev
   fun:_ZN32G4ConcreteMesonBaryonToResonance21theBaryonPartialWidthEv
   fun:_ZN32G4ConcreteMesonBaryonToResonanceC1EPK20G4ParticleDefinitionS2_S2_RK8G4String
   fun:_ZN33G4CollisionMesonBaryonToResonanceC1Ev
   fun:_ZN22G4CollisionMesonBaryonC1Ev
   fun:_ZN11G4ScattererC1Ev
   fun:_ZN15G4BinaryCascadeC1EP19G4VPreCompoundModel
   fun:_ZN24G4BinaryLightIonReactionC1EP19G4VPreCompoundModel
}

{
   basf2 suppression 463
   Memcheck:Leak
   fun:_Znwm
   fun:_ZNSs4_Rep9_S_createEmmRKSaIcE
   fun:_ZNSs12_S_constructIPKcEEPcT_S3_RKSaIcESt20forward_iterator_tag.part.29
   fun:_ZNSsC1EPKcRKSaIcE
   fun:_ZN20G4BaryonPartialWidthC1Ev
   fun:_ZN32G4ConcreteMesonBaryonToResonance21theBaryonPartialWidthEv
   fun:_ZN32G4ConcreteMesonBaryonToResonanceC1EPK20G4ParticleDefinitionS2_S2_RK8G4String
   fun:_ZN33G4CollisionMesonBaryonToResonanceC1Ev
   fun:_ZN22G4CollisionMesonBaryonC1Ev
   fun:_ZN11G4ScattererC1Ev
   fun:_ZN15G4BinaryCascadeC1EP19G4VPreCompoundModel
   fun:_ZN24G4BinaryLightIonReactionC1EP19G4VPreCompoundModel
}

{
   basf2 suppression 464
   Memcheck:Leak
   fun:_Znwm
   fun:_ZNSs4_Rep9_S_createEmmRKSaIcE
   fun:_ZNSs12_S_constructIPKcEEPcT_S3_RKSaIcESt20forward_iterator_tag.part.29
   fun:_ZNSsC1EPKcRKSaIcE
   fun:_ZN20G4BaryonPartialWidthC1Ev
   fun:_ZN32G4ConcreteMesonBaryonToResonance21theBaryonPartialWidthEv
   fun:_ZN32G4ConcreteMesonBaryonToResonanceC1EPK20G4ParticleDefinitionS2_S2_RK8G4String
   fun:_ZN33G4CollisionMesonBaryonToResonanceC1Ev
   fun:_ZN22G4CollisionMesonBaryonC1Ev
   fun:_ZN11G4ScattererC1Ev
   fun:_ZN15G4BinaryCascadeC1EP19G4VPreCompoundModel
   fun:_ZN24G4BinaryLightIonReactionC1EP19G4VPreCompoundModel
}

{
   basf2 suppression 465
   Memcheck:Leak
   fun:_Znwm
   fun:_ZNSs4_Rep9_S_createEmmRKSaIcE
   fun:_ZNSs12_S_constructIPKcEEPcT_S3_RKSaIcESt20forward_iterator_tag.part.29
   fun:_ZNSsC1EPKcRKSaIcE
   fun:_ZN20G4BaryonPartialWidthC1Ev
   fun:_ZN32G4ConcreteMesonBaryonToResonance21theBaryonPartialWidthEv
   fun:_ZN32G4ConcreteMesonBaryonToResonanceC1EPK20G4ParticleDefinitionS2_S2_RK8G4String
   fun:_ZN33G4CollisionMesonBaryonToResonanceC1Ev
   fun:_ZN22G4CollisionMesonBaryonC1Ev
   fun:_ZN11G4ScattererC1Ev
   fun:_ZN15G4BinaryCascadeC1EP19G4VPreCompoundModel
   fun:_ZN24G4BinaryLightIonReactionC1EP19G4VPreCompoundModel
}

{
   basf2 suppression 466
   Memcheck:Leak
   fun:_Znwm
   fun:_ZNSs4_Rep9_S_createEmmRKSaIcE
   fun:_ZNSs12_S_constructIPKcEEPcT_S3_RKSaIcESt20forward_iterator_tag.part.29
   fun:_ZNSsC1EPKcRKSaIcE
   fun:_ZN20G4BaryonPartialWidthC1Ev
   fun:_ZN32G4ConcreteMesonBaryonToResonance21theBaryonPartialWidthEv
   fun:_ZN32G4ConcreteMesonBaryonToResonanceC1EPK20G4ParticleDefinitionS2_S2_RK8G4String
   fun:_ZN33G4CollisionMesonBaryonToResonanceC1Ev
   fun:_ZN22G4CollisionMesonBaryonC1Ev
   fun:_ZN11G4ScattererC1Ev
   fun:_ZN15G4BinaryCascadeC1EP19G4VPreCompoundModel
   fun:_ZN24G4BinaryLightIonReactionC1EP19G4VPreCompoundModel
}

{
   basf2 suppression 467
   Memcheck:Leak
   fun:_Znwm
   fun:_ZNSs4_Rep9_S_createEmmRKSaIcE
   fun:_ZNSs12_S_constructIPKcEEPcT_S3_RKSaIcESt20forward_iterator_tag.part.29
   fun:_ZNSsC1EPKcRKSaIcE
   fun:_ZN20G4BaryonPartialWidthC1Ev
   fun:_ZN32G4ConcreteMesonBaryonToResonance21theBaryonPartialWidthEv
   fun:_ZN32G4ConcreteMesonBaryonToResonanceC1EPK20G4ParticleDefinitionS2_S2_RK8G4String
   fun:_ZN33G4CollisionMesonBaryonToResonanceC1Ev
   fun:_ZN22G4CollisionMesonBaryonC1Ev
   fun:_ZN11G4ScattererC1Ev
   fun:_ZN15G4BinaryCascadeC1EP19G4VPreCompoundModel
   fun:_ZN24G4BinaryLightIonReactionC1EP19G4VPreCompoundModel
}

{
   basf2 suppression 468
   Memcheck:Leak
   fun:_Znwm
   fun:_ZNSs4_Rep9_S_createEmmRKSaIcE
   fun:_ZNSs12_S_constructIPKcEEPcT_S3_RKSaIcESt20forward_iterator_tag.part.29
   fun:_ZNSsC1EPKcRKSaIcE
   fun:_ZN20G4BaryonPartialWidthC1Ev
   fun:_ZN32G4ConcreteMesonBaryonToResonance21theBaryonPartialWidthEv
   fun:_ZN32G4ConcreteMesonBaryonToResonanceC1EPK20G4ParticleDefinitionS2_S2_RK8G4String
   fun:_ZN33G4CollisionMesonBaryonToResonanceC1Ev
   fun:_ZN22G4CollisionMesonBaryonC1Ev
   fun:_ZN11G4ScattererC1Ev
   fun:_ZN15G4BinaryCascadeC1EP19G4VPreCompoundModel
   fun:_ZN24G4BinaryLightIonReactionC1EP19G4VPreCompoundModel
}

{
   basf2 suppression 469
   Memcheck:Leak
   fun:_Znwm
   fun:_ZNSs4_Rep9_S_createEmmRKSaIcE
   fun:_ZNSs12_S_constructIPKcEEPcT_S3_RKSaIcESt20forward_iterator_tag.part.29
   fun:_ZNSsC1EPKcRKSaIcE
   fun:_ZN20G4BaryonPartialWidthC1Ev
   fun:_ZN32G4ConcreteMesonBaryonToResonance21theBaryonPartialWidthEv
   fun:_ZN32G4ConcreteMesonBaryonToResonanceC1EPK20G4ParticleDefinitionS2_S2_RK8G4String
   fun:_ZN33G4CollisionMesonBaryonToResonanceC1Ev
   fun:_ZN22G4CollisionMesonBaryonC1Ev
   fun:_ZN11G4ScattererC1Ev
   fun:_ZN15G4BinaryCascadeC1EP19G4VPreCompoundModel
   fun:_ZN24G4BinaryLightIonReactionC1EP19G4VPreCompoundModel
}

{
   basf2 suppression 470
   Memcheck:Leak
   fun:_Znwm
   fun:_ZNSs4_Rep9_S_createEmmRKSaIcE
   fun:_ZNSs12_S_constructIPKcEEPcT_S3_RKSaIcESt20forward_iterator_tag.part.29
   fun:_ZNSsC1EPKcRKSaIcE
   fun:_ZN20G4BaryonPartialWidthC1Ev
   fun:_ZN32G4ConcreteMesonBaryonToResonance21theBaryonPartialWidthEv
   fun:_ZN32G4ConcreteMesonBaryonToResonanceC1EPK20G4ParticleDefinitionS2_S2_RK8G4String
   fun:_ZN33G4CollisionMesonBaryonToResonanceC1Ev
   fun:_ZN22G4CollisionMesonBaryonC1Ev
   fun:_ZN11G4ScattererC1Ev
   fun:_ZN15G4BinaryCascadeC1EP19G4VPreCompoundModel
   fun:_ZN24G4BinaryLightIonReactionC1EP19G4VPreCompoundModel
}

{
   basf2 suppression 471
   Memcheck:Leak
   fun:_Znwm
   fun:_ZNSs4_Rep9_S_createEmmRKSaIcE
   fun:_ZNSs12_S_constructIPKcEEPcT_S3_RKSaIcESt20forward_iterator_tag.part.29
   fun:_ZNSsC1EPKcRKSaIcE
   fun:_ZN20G4BaryonPartialWidthC1Ev
   fun:_ZN32G4ConcreteMesonBaryonToResonance21theBaryonPartialWidthEv
   fun:_ZN32G4ConcreteMesonBaryonToResonanceC1EPK20G4ParticleDefinitionS2_S2_RK8G4String
   fun:_ZN33G4CollisionMesonBaryonToResonanceC1Ev
   fun:_ZN22G4CollisionMesonBaryonC1Ev
   fun:_ZN11G4ScattererC1Ev
   fun:_ZN15G4BinaryCascadeC1EP19G4VPreCompoundModel
   fun:_ZN24G4BinaryLightIonReactionC1EP19G4VPreCompoundModel
}

{
   basf2 suppression 472
   Memcheck:Leak
   fun:_Znwm
   fun:_ZNSs4_Rep9_S_createEmmRKSaIcE
   fun:_ZNSs12_S_constructIPKcEEPcT_S3_RKSaIcESt20forward_iterator_tag.part.29
   fun:_ZNSsC1EPKcRKSaIcE
   fun:_ZN20G4BaryonPartialWidthC1Ev
   fun:_ZN32G4ConcreteMesonBaryonToResonance21theBaryonPartialWidthEv
   fun:_ZN32G4ConcreteMesonBaryonToResonanceC1EPK20G4ParticleDefinitionS2_S2_RK8G4String
   fun:_ZN33G4CollisionMesonBaryonToResonanceC1Ev
   fun:_ZN22G4CollisionMesonBaryonC1Ev
   fun:_ZN11G4ScattererC1Ev
   fun:_ZN15G4BinaryCascadeC1EP19G4VPreCompoundModel
   fun:_ZN24G4BinaryLightIonReactionC1EP19G4VPreCompoundModel
}

{
   basf2 suppression 473
   Memcheck:Leak
   fun:_Znwm
   fun:_ZNSs4_Rep9_S_createEmmRKSaIcE
   fun:_ZNSs12_S_constructIPKcEEPcT_S3_RKSaIcESt20forward_iterator_tag.part.29
   fun:_ZNSsC1EPKcRKSaIcE
   fun:_ZN20G4BaryonPartialWidthC1Ev
   fun:_ZN32G4ConcreteMesonBaryonToResonance21theBaryonPartialWidthEv
   fun:_ZN32G4ConcreteMesonBaryonToResonanceC1EPK20G4ParticleDefinitionS2_S2_RK8G4String
   fun:_ZN33G4CollisionMesonBaryonToResonanceC1Ev
   fun:_ZN22G4CollisionMesonBaryonC1Ev
   fun:_ZN11G4ScattererC1Ev
   fun:_ZN15G4BinaryCascadeC1EP19G4VPreCompoundModel
   fun:_ZN24G4BinaryLightIonReactionC1EP19G4VPreCompoundModel
}

{
   basf2 suppression 474
   Memcheck:Leak
   fun:_Znwm
   fun:_ZNSs4_Rep9_S_createEmmRKSaIcE
   fun:_ZNSs12_S_constructIPKcEEPcT_S3_RKSaIcESt20forward_iterator_tag.part.29
   fun:_ZNSsC1EPKcRKSaIcE
   fun:_ZN20G4BaryonPartialWidthC1Ev
   fun:_ZN32G4ConcreteMesonBaryonToResonance21theBaryonPartialWidthEv
   fun:_ZN32G4ConcreteMesonBaryonToResonanceC1EPK20G4ParticleDefinitionS2_S2_RK8G4String
   fun:_ZN33G4CollisionMesonBaryonToResonanceC1Ev
   fun:_ZN22G4CollisionMesonBaryonC1Ev
   fun:_ZN11G4ScattererC1Ev
   fun:_ZN15G4BinaryCascadeC1EP19G4VPreCompoundModel
   fun:_ZN24G4BinaryLightIonReactionC1EP19G4VPreCompoundModel
}

{
   basf2 suppression 475
   Memcheck:Leak
   fun:_Znwm
   fun:_ZNSs4_Rep9_S_createEmmRKSaIcE
   fun:_ZNSs12_S_constructIPKcEEPcT_S3_RKSaIcESt20forward_iterator_tag.part.29
   fun:_ZNSsC1EPKcmRKSaIcE
   fun:_ZN4llvm12GlobalObject10setSectionENS_9StringRefE
   fun:_ZN5clang7CodeGen13CodeGenModule20EmitAnnotationStringEN4llvm9StringRefE
   fun:_ZN5clang7CodeGen15CodeGenFunction18EmitAnnotationCallEPN4llvm5ValueES4_NS2_9StringRefENS_14SourceLocationE
   fun:_ZN5clang7CodeGen15CodeGenFunction20EmitFieldAnnotationsEPKNS_9FieldDeclEPN4llvm5ValueE
   fun:_ZN5clang7CodeGen15CodeGenFunction18EmitLValueForFieldENS0_6LValueEPKNS_9FieldDeclE
   fun:_ZN5clang7CodeGen15CodeGenFunction32EmitLValueForFieldInitializationENS0_6LValueEPKNS_9FieldDeclE
   fun:_ZL21EmitMemberInitializerRN5clang7CodeGen15CodeGenFunctionEPKNS_13CXXRecordDeclEPNS_18CXXCtorInitializerEPKNS_18CXXConstructorDeclERNS0_15FunctionArgListE.constprop.419
   fun:_ZN5clang7CodeGen15CodeGenFunction16EmitCtorPrologueEPKNS_18CXXConstructorDeclENS_11CXXCtorTypeERNS0_15FunctionArgListE.part.397.constprop.405
}

{
   basf2 suppression 476
   Memcheck:Leak
   fun:_Znwm
   fun:_ZNSs4_Rep9_S_createEmmRKSaIcE
   fun:_ZNSs12_S_constructIPKcEEPcT_S3_RKSaIcESt20forward_iterator_tag.part.29
   fun:_ZNSsC1EPKcmRKSaIcE
   fun:_ZN4llvm12GlobalObject10setSectionENS_9StringRefE
   fun:_ZN5clang7CodeGen13CodeGenModule20EmitAnnotationStringEN4llvm9StringRefE
   fun:_ZN5clang7CodeGen13CodeGenModule18EmitAnnotationUnitENS_14SourceLocationE
   fun:_ZN5clang7CodeGen15CodeGenFunction18EmitAnnotationCallEPN4llvm5ValueES4_NS2_9StringRefENS_14SourceLocationE
   fun:_ZN5clang7CodeGen15CodeGenFunction20EmitFieldAnnotationsEPKNS_9FieldDeclEPN4llvm5ValueE
   fun:_ZN5clang7CodeGen15CodeGenFunction18EmitLValueForFieldENS0_6LValueEPKNS_9FieldDeclE
   fun:_ZN5clang7CodeGen15CodeGenFunction32EmitLValueForFieldInitializationENS0_6LValueEPKNS_9FieldDeclE
   fun:_ZL21EmitMemberInitializerRN5clang7CodeGen15CodeGenFunctionEPKNS_13CXXRecordDeclEPNS_18CXXCtorInitializerEPKNS_18CXXConstructorDeclERNS0_15FunctionArgListE.constprop.419
}

{
   basf2 suppression 477
   Memcheck:Leak
   fun:_Znwm
   fun:_ZNSs4_Rep9_S_createEmmRKSaIcE
   fun:_ZNSs12_S_constructIPKcEEPcT_S3_RKSaIcESt20forward_iterator_tag.part.29
   fun:_ZNSsC1EPKcmRKSaIcE
   fun:_ZN4llvm12GlobalObject10setSectionENS_9StringRefE
   fun:_ZN5clang7CodeGen13CodeGenModule20EmitAnnotationStringEN4llvm9StringRefE
   fun:_ZN5clang7CodeGen15CodeGenFunction18EmitAnnotationCallEPN4llvm5ValueES4_NS2_9StringRefENS_14SourceLocationE
   fun:_ZN5clang7CodeGen15CodeGenFunction20EmitFieldAnnotationsEPKNS_9FieldDeclEPN4llvm5ValueE
   fun:_ZN5clang7CodeGen15CodeGenFunction18EmitLValueForFieldENS0_6LValueEPKNS_9FieldDeclE
   fun:_ZN12_GLOBAL__N_112DestroyField4EmitERN5clang7CodeGen15CodeGenFunctionENS2_12EHScopeStack7Cleanup5FlagsE
   fun:_ZL11EmitCleanupRN5clang7CodeGen15CodeGenFunctionEPNS0_12EHScopeStack7CleanupENS4_5FlagsEPN4llvm5ValueE.constprop.121
   fun:_ZN5clang7CodeGen15CodeGenFunction15PopCleanupBlockEb
}

{
   basf2 suppression 478
   Memcheck:Leak
   fun:_Znwm
   fun:_ZNSs4_Rep9_S_createEmmRKSaIcE
   fun:_ZNSs12_S_constructIPKcEEPcT_S3_RKSaIcESt20forward_iterator_tag.part.29
   fun:_ZNSsC1EPKcmRKSaIcE
   fun:_ZN4llvm12GlobalObject10setSectionENS_9StringRefE
   fun:_ZN5clang7CodeGen13CodeGenModule20EmitAnnotationStringEN4llvm9StringRefE
   fun:_ZN5clang7CodeGen13CodeGenModule18EmitAnnotationUnitENS_14SourceLocationE
   fun:_ZN5clang7CodeGen15CodeGenFunction18EmitAnnotationCallEPN4llvm5ValueES4_NS2_9StringRefENS_14SourceLocationE
   fun:_ZN5clang7CodeGen15CodeGenFunction20EmitFieldAnnotationsEPKNS_9FieldDeclEPN4llvm5ValueE
   fun:_ZN5clang7CodeGen15CodeGenFunction18EmitLValueForFieldENS0_6LValueEPKNS_9FieldDeclE
   fun:_ZN12_GLOBAL__N_112DestroyField4EmitERN5clang7CodeGen15CodeGenFunctionENS2_12EHScopeStack7Cleanup5FlagsE
   fun:_ZL11EmitCleanupRN5clang7CodeGen15CodeGenFunctionEPNS0_12EHScopeStack7CleanupENS4_5FlagsEPN4llvm5ValueE.constprop.121
}

{
   basf2 suppression 479
   Memcheck:Leak
   fun:_Znwm
   fun:_ZNSs4_Rep9_S_createEmmRKSaIcE
   fun:_ZNSs12_S_constructIPKcEEPcT_S3_RKSaIcESt20forward_iterator_tag.part.29
   fun:_ZNSsC1EPKcmRKSaIcE
   fun:_ZN4llvm12GlobalObject10setSectionENS_9StringRefE
   fun:_ZN5clang7CodeGen13CodeGenModule20EmitAnnotationStringEN4llvm9StringRefE
   fun:_ZN5clang7CodeGen13CodeGenModule16EmitAnnotateAttrEPN4llvm11GlobalValueEPKNS_12AnnotateAttrENS_14SourceLocationE
   fun:_ZN5clang7CodeGen13CodeGenModule20AddGlobalAnnotationsEPKNS_9ValueDeclEPN4llvm11GlobalValueE
   fun:_ZN5clang7CodeGen13CodeGenModule28EmitGlobalFunctionDefinitionENS_10GlobalDeclEPN4llvm11GlobalValueE
   fun:_ZN5clang7CodeGen13CodeGenModule20EmitGlobalDefinitionENS_10GlobalDeclEPN4llvm11GlobalValueE
   fun:_ZN5clang7CodeGen13CodeGenModule12EmitDeferredEv
   fun:_ZN5clang7CodeGen13CodeGenModule7ReleaseEv
}

{
   basf2 suppression 480
   Memcheck:Leak
   fun:_Znwm
   fun:_ZNSs4_Rep9_S_createEmmRKSaIcE
   fun:_ZNSs12_S_constructIPKcEEPcT_S3_RKSaIcESt20forward_iterator_tag.part.29
   fun:_ZNSsC1EPKcmRKSaIcE
   fun:_ZN4llvm12GlobalObject10setSectionENS_9StringRefE
   fun:_ZN5clang7CodeGen13CodeGenModule21EmitGlobalAnnotationsEv
   fun:_ZN5clang7CodeGen13CodeGenModule7ReleaseEv
   fun:_ZN5cling17IncrementalParser18codeGenTransactionEPNS_11TransactionE
   fun:_ZN5cling17IncrementalParser17commitTransactionEN4llvm14PointerIntPairIPNS_11TransactionELj2ENS0_12EParseResultENS1_21PointerLikeTypeTraitsIS4_EEEE
   fun:_ZN5cling11InterpreterC1EiPKPKcS2_b
   fun:_ZN6TClingC1EPKcS1_
   fun:CreateInterpreter
}

{
   basf2 suppression 481
   Memcheck:Leak
   fun:_Znwm
   fun:_ZNSs4_Rep9_S_createEmmRKSaIcE
   fun:_ZNSs12_S_constructIPKcEEPcT_S3_RKSaIcESt20forward_iterator_tag.part.29
   fun:_ZNSsC1EPKcmRKSaIcE
   fun:_ZN4llvm12GlobalObject10setSectionENS_9StringRefE
   fun:_ZL8emitUsedRN5clang7CodeGen13CodeGenModuleEN4llvm9StringRefERSt6vectorINS3_6WeakVHESaIS6_EE.constprop.2966
   fun:_ZN5clang7CodeGen13CodeGenModule12emitLLVMUsedEv
   fun:_ZN5clang7CodeGen13CodeGenModule7ReleaseEv
   fun:_ZN5cling17IncrementalParser18codeGenTransactionEPNS_11TransactionE
   fun:_ZN5cling17IncrementalParser17commitTransactionEN4llvm14PointerIntPairIPNS_11TransactionELj2ENS0_12EParseResultENS1_21PointerLikeTypeTraitsIS4_EEEE
   fun:_ZN5cling11InterpreterC1EiPKPKcS2_b
   fun:_ZN6TClingC1EPKcS1_
}

{
   basf2 suppression 482
   Memcheck:Leak
   fun:_Znwm
   fun:_ZNSs4_Rep9_S_createEmmRKSaIcE
   fun:_ZNSs12_S_constructIPKcEEPcT_S3_RKSaIcESt20forward_iterator_tag.part.29
   fun:_ZNSsC1EPKcmRKSaIcE
   fun:_ZN5clang12Preprocessor22RegisterBuiltinPragmasEv
   fun:_ZN5clang12PreprocessorC1EN4llvm18IntrusiveRefCntPtrINS_19PreprocessorOptionsEEERNS_17DiagnosticsEngineERNS_11LangOptionsERNS_13SourceManagerERNS_12HeaderSearchERNS_12ModuleLoaderEPNS_20IdentifierInfoLookupEbNS_19TranslationUnitKindE
   fun:_ZN5clang16CompilerInstance18createPreprocessorENS_19TranslationUnitKindE
   fun:_ZN12_GLOBAL__N_1L12createCIImplESt10unique_ptrIN4llvm12MemoryBufferESt14default_deleteIS2_EEiPKPKcS7_b
   fun:_ZN5cling9CIFactory8createCIEN4llvm9StringRefEiPKPKcS4_
   fun:_ZN5cling17IncrementalParserC1EPNS_11InterpreterEiPKPKcS4_
   fun:_ZN5cling11InterpreterC1EiPKPKcS2_b
   fun:_ZN6TClingC1EPKcS1_
}

{
   basf2 suppression 483
   Memcheck:Leak
   fun:_Znwm
   fun:_ZNSs4_Rep9_S_createEmmRKSaIcE
   fun:_ZNSs12_S_constructIPKcEEPcT_S3_RKSaIcESt20forward_iterator_tag.part.29
   fun:_ZNSsC1EPKcmRKSaIcE
   fun:_ZN5clang12Preprocessor22RegisterBuiltinPragmasEv
   fun:_ZN5clang12PreprocessorC1EN4llvm18IntrusiveRefCntPtrINS_19PreprocessorOptionsEEERNS_17DiagnosticsEngineERNS_11LangOptionsERNS_13SourceManagerERNS_12HeaderSearchERNS_12ModuleLoaderEPNS_20IdentifierInfoLookupEbNS_19TranslationUnitKindE
   fun:_ZN5clang16CompilerInstance18createPreprocessorENS_19TranslationUnitKindE
   fun:_ZN12_GLOBAL__N_1L12createCIImplESt10unique_ptrIN4llvm12MemoryBufferESt14default_deleteIS2_EEiPKPKcS7_b
   fun:_ZN5cling9CIFactory8createCIEN4llvm9StringRefEiPKPKcS4_
   fun:_ZN5cling17IncrementalParserC1EPNS_11InterpreterEiPKPKcS4_
   fun:_ZN5cling11InterpreterC1EiPKPKcS2_b
   fun:_ZN6TClingC1EPKcS1_
}

{
   basf2 suppression 484
   Memcheck:Leak
   fun:_Znwm
   fun:_ZNSs4_Rep9_S_createEmmRKSaIcE
   fun:_ZNSs12_S_constructIPKcEEPcT_S3_RKSaIcESt20forward_iterator_tag.part.29
   fun:_ZNSsC1EPKcRKSaIcE
   fun:_GLOBAL__sub_I_G4RegisterPhysLists.cc
   fun:_dl_init
   fun:dl_open_worker
   fun:_dl_catch_error
   fun:_dl_open
   fun:dlopen_doit
   fun:_dl_catch_error
   fun:_dlerror_run
}

{
   basf2 suppression 485
   Memcheck:Leak
   fun:_Znwm
   fun:_ZNSs4_Rep9_S_createEmmRKSaIcE
   fun:_ZNSs12_S_constructIPKcEEPcT_S3_RKSaIcESt20forward_iterator_tag.part.29
   fun:_ZNSsC1EPKcRKSaIcE
   fun:_ZN20G4BaryonPartialWidthC1Ev
   fun:_ZN32G4ConcreteMesonBaryonToResonance21theBaryonPartialWidthEv
   fun:_ZN32G4ConcreteMesonBaryonToResonanceC1EPK20G4ParticleDefinitionS2_S2_RK8G4String
   fun:_ZN33G4CollisionMesonBaryonToResonanceC1Ev
   fun:_ZN22G4CollisionMesonBaryonC1Ev
   fun:_ZN11G4ScattererC1Ev
   fun:_ZN15G4BinaryCascadeC1EP19G4VPreCompoundModel
   fun:_ZN24G4BinaryLightIonReactionC1EP19G4VPreCompoundModel
}

{
   basf2 suppression 486
   Memcheck:Leak
   fun:_Znwm
   fun:_ZNSs4_Rep9_S_createEmmRKSaIcE
   fun:_ZNSs12_S_constructIPKcEEPcT_S3_RKSaIcESt20forward_iterator_tag.part.29
   fun:_ZNSsC1EPKcRKSaIcE
   fun:_ZN20G4BaryonPartialWidthC1Ev
   fun:_ZN32G4ConcreteMesonBaryonToResonance21theBaryonPartialWidthEv
   fun:_ZN32G4ConcreteMesonBaryonToResonanceC1EPK20G4ParticleDefinitionS2_S2_RK8G4String
   fun:_ZN33G4CollisionMesonBaryonToResonanceC1Ev
   fun:_ZN22G4CollisionMesonBaryonC1Ev
   fun:_ZN11G4ScattererC1Ev
   fun:_ZN15G4BinaryCascadeC1EP19G4VPreCompoundModel
   fun:_ZN24G4BinaryLightIonReactionC1EP19G4VPreCompoundModel
}

{
   basf2 suppression 487
   Memcheck:Leak
   fun:_Znwm
   fun:_ZNSs4_Rep9_S_createEmmRKSaIcE
   fun:_ZNSs12_S_constructIPKcEEPcT_S3_RKSaIcESt20forward_iterator_tag.part.29
   fun:_ZNSsC1EPKcRKSaIcE
   fun:_ZN20G4BaryonPartialWidthC1Ev
   fun:_ZN32G4ConcreteMesonBaryonToResonance21theBaryonPartialWidthEv
   fun:_ZN32G4ConcreteMesonBaryonToResonanceC1EPK20G4ParticleDefinitionS2_S2_RK8G4String
   fun:_ZN33G4CollisionMesonBaryonToResonanceC1Ev
   fun:_ZN22G4CollisionMesonBaryonC1Ev
   fun:_ZN11G4ScattererC1Ev
   fun:_ZN15G4BinaryCascadeC1EP19G4VPreCompoundModel
   fun:_ZN24G4BinaryLightIonReactionC1EP19G4VPreCompoundModel
}

{
   basf2 suppression 488
   Memcheck:Leak
   fun:_Znwm
   fun:_ZNSs4_Rep9_S_createEmmRKSaIcE
   fun:_ZNSs12_S_constructIPKcEEPcT_S3_RKSaIcESt20forward_iterator_tag.part.29
   fun:_ZNSsC1EPKcRKSaIcE
   fun:_ZN20G4BaryonPartialWidthC1Ev
   fun:_ZN32G4ConcreteMesonBaryonToResonance21theBaryonPartialWidthEv
   fun:_ZN32G4ConcreteMesonBaryonToResonanceC1EPK20G4ParticleDefinitionS2_S2_RK8G4String
   fun:_ZN33G4CollisionMesonBaryonToResonanceC1Ev
   fun:_ZN22G4CollisionMesonBaryonC1Ev
   fun:_ZN11G4ScattererC1Ev
   fun:_ZN15G4BinaryCascadeC1EP19G4VPreCompoundModel
   fun:_ZN24G4BinaryLightIonReactionC1EP19G4VPreCompoundModel
}

{
   basf2 suppression 489
   Memcheck:Leak
   fun:_Znwm
   fun:_ZNSs4_Rep9_S_createEmmRKSaIcE
   fun:_ZNSs12_S_constructIPKcEEPcT_S3_RKSaIcESt20forward_iterator_tag.part.29
   fun:_ZNSsC1EPKcRKSaIcE
   fun:_ZN20G4BaryonPartialWidthC1Ev
   fun:_ZN32G4ConcreteMesonBaryonToResonance21theBaryonPartialWidthEv
   fun:_ZN32G4ConcreteMesonBaryonToResonanceC1EPK20G4ParticleDefinitionS2_S2_RK8G4String
   fun:_ZN33G4CollisionMesonBaryonToResonanceC1Ev
   fun:_ZN22G4CollisionMesonBaryonC1Ev
   fun:_ZN11G4ScattererC1Ev
   fun:_ZN15G4BinaryCascadeC1EP19G4VPreCompoundModel
   fun:_ZN24G4BinaryLightIonReactionC1EP19G4VPreCompoundModel
}

{
   basf2 suppression 490
   Memcheck:Leak
   fun:_Znwm
   fun:_ZNSs4_Rep9_S_createEmmRKSaIcE
   fun:_ZNSs12_S_constructIPKcEEPcT_S3_RKSaIcESt20forward_iterator_tag.part.29
   fun:_ZNSsC1EPKcRKSaIcE
   fun:_ZN20G4BaryonPartialWidthC1Ev
   fun:_ZN32G4ConcreteMesonBaryonToResonance21theBaryonPartialWidthEv
   fun:_ZN32G4ConcreteMesonBaryonToResonanceC1EPK20G4ParticleDefinitionS2_S2_RK8G4String
   fun:_ZN33G4CollisionMesonBaryonToResonanceC1Ev
   fun:_ZN22G4CollisionMesonBaryonC1Ev
   fun:_ZN11G4ScattererC1Ev
   fun:_ZN15G4BinaryCascadeC1EP19G4VPreCompoundModel
   fun:_ZN24G4BinaryLightIonReactionC1EP19G4VPreCompoundModel
}

{
   basf2 suppression 491
   Memcheck:Leak
   fun:_Znwm
   fun:_ZNSs4_Rep9_S_createEmmRKSaIcE
   fun:_ZNSs12_S_constructIPKcEEPcT_S3_RKSaIcESt20forward_iterator_tag.part.29
   fun:_ZNSsC1EPKcRKSaIcE
   fun:_ZN20G4BaryonPartialWidthC1Ev
   fun:_ZN32G4ConcreteMesonBaryonToResonance21theBaryonPartialWidthEv
   fun:_ZN32G4ConcreteMesonBaryonToResonanceC1EPK20G4ParticleDefinitionS2_S2_RK8G4String
   fun:_ZN33G4CollisionMesonBaryonToResonanceC1Ev
   fun:_ZN22G4CollisionMesonBaryonC1Ev
   fun:_ZN11G4ScattererC1Ev
   fun:_ZN15G4BinaryCascadeC1EP19G4VPreCompoundModel
   fun:_ZN24G4BinaryLightIonReactionC1EP19G4VPreCompoundModel
}

{
   basf2 suppression 492
   Memcheck:Leak
   fun:_Znwm
   fun:_ZNSs4_Rep9_S_createEmmRKSaIcE
   fun:_ZNSs12_S_constructIPKcEEPcT_S3_RKSaIcESt20forward_iterator_tag.part.29
   fun:_ZNSsC1EPKcRKSaIcE
   fun:_ZN20G4BaryonPartialWidthC1Ev
   fun:_ZN32G4ConcreteMesonBaryonToResonance21theBaryonPartialWidthEv
   fun:_ZN32G4ConcreteMesonBaryonToResonanceC1EPK20G4ParticleDefinitionS2_S2_RK8G4String
   fun:_ZN33G4CollisionMesonBaryonToResonanceC1Ev
   fun:_ZN22G4CollisionMesonBaryonC1Ev
   fun:_ZN11G4ScattererC1Ev
   fun:_ZN15G4BinaryCascadeC1EP19G4VPreCompoundModel
   fun:_ZN24G4BinaryLightIonReactionC1EP19G4VPreCompoundModel
}

{
   basf2 suppression 493
   Memcheck:Leak
   fun:_Znwm
   fun:_ZNSs4_Rep9_S_createEmmRKSaIcE
   fun:_ZNSs12_S_constructIPKcEEPcT_S3_RKSaIcESt20forward_iterator_tag.part.29
   fun:_ZNSsC1EPKcRKSaIcE
   fun:_ZN20G4BaryonPartialWidthC1Ev
   fun:_ZN32G4ConcreteMesonBaryonToResonance21theBaryonPartialWidthEv
   fun:_ZN32G4ConcreteMesonBaryonToResonanceC1EPK20G4ParticleDefinitionS2_S2_RK8G4String
   fun:_ZN33G4CollisionMesonBaryonToResonanceC1Ev
   fun:_ZN22G4CollisionMesonBaryonC1Ev
   fun:_ZN11G4ScattererC1Ev
   fun:_ZN15G4BinaryCascadeC1EP19G4VPreCompoundModel
   fun:_ZN24G4BinaryLightIonReactionC1EP19G4VPreCompoundModel
}

{
   basf2 suppression 494
   Memcheck:Leak
   fun:_Znwm
   fun:_ZNSs4_Rep9_S_createEmmRKSaIcE
   fun:_ZNSs12_S_constructIPKcEEPcT_S3_RKSaIcESt20forward_iterator_tag.part.29
   fun:_ZNSsC1EPKcRKSaIcE
   fun:_ZN20G4BaryonPartialWidthC1Ev
   fun:_ZN32G4ConcreteMesonBaryonToResonance21theBaryonPartialWidthEv
   fun:_ZN32G4ConcreteMesonBaryonToResonanceC1EPK20G4ParticleDefinitionS2_S2_RK8G4String
   fun:_ZN33G4CollisionMesonBaryonToResonanceC1Ev
   fun:_ZN22G4CollisionMesonBaryonC1Ev
   fun:_ZN11G4ScattererC1Ev
   fun:_ZN15G4BinaryCascadeC1EP19G4VPreCompoundModel
   fun:_ZN24G4BinaryLightIonReactionC1EP19G4VPreCompoundModel
}

{
   basf2 suppression 495
   Memcheck:Leak
   fun:_Znwm
   fun:_ZNSs4_Rep9_S_createEmmRKSaIcE
   fun:_ZNSs12_S_constructIPKcEEPcT_S3_RKSaIcESt20forward_iterator_tag.part.29
   fun:_ZNSsC1EPKcRKSaIcE
   fun:_ZN20G4BaryonPartialWidthC1Ev
   fun:_ZN32G4ConcreteMesonBaryonToResonance21theBaryonPartialWidthEv
   fun:_ZN32G4ConcreteMesonBaryonToResonanceC1EPK20G4ParticleDefinitionS2_S2_RK8G4String
   fun:_ZN33G4CollisionMesonBaryonToResonanceC1Ev
   fun:_ZN22G4CollisionMesonBaryonC1Ev
   fun:_ZN11G4ScattererC1Ev
   fun:_ZN15G4BinaryCascadeC1EP19G4VPreCompoundModel
   fun:_ZN24G4BinaryLightIonReactionC1EP19G4VPreCompoundModel
}

{
   basf2 suppression 496
   Memcheck:Leak
   fun:_Znwm
   fun:_ZNSs4_Rep9_S_createEmmRKSaIcE
   fun:_ZNSs12_S_constructIPKcEEPcT_S3_RKSaIcESt20forward_iterator_tag.part.29
   fun:_ZNSsC1EPKcRKSaIcE
   fun:_ZN20G4BaryonPartialWidthC1Ev
   fun:_ZN32G4ConcreteMesonBaryonToResonance21theBaryonPartialWidthEv
   fun:_ZN32G4ConcreteMesonBaryonToResonanceC1EPK20G4ParticleDefinitionS2_S2_RK8G4String
   fun:_ZN33G4CollisionMesonBaryonToResonanceC1Ev
   fun:_ZN22G4CollisionMesonBaryonC1Ev
   fun:_ZN11G4ScattererC1Ev
   fun:_ZN15G4BinaryCascadeC1EP19G4VPreCompoundModel
   fun:_ZN24G4BinaryLightIonReactionC1EP19G4VPreCompoundModel
}

{
   basf2 suppression 497
   Memcheck:Leak
   fun:_Znwm
   fun:_ZNSs4_Rep9_S_createEmmRKSaIcE
   fun:_ZNSs12_S_constructIPKcEEPcT_S3_RKSaIcESt20forward_iterator_tag.part.29
   fun:_ZNSsC1EPKcRKSaIcE
   fun:_ZN20G4BaryonPartialWidthC1Ev
   fun:_ZN32G4ConcreteMesonBaryonToResonance21theBaryonPartialWidthEv
   fun:_ZN32G4ConcreteMesonBaryonToResonanceC1EPK20G4ParticleDefinitionS2_S2_RK8G4String
   fun:_ZN33G4CollisionMesonBaryonToResonanceC1Ev
   fun:_ZN22G4CollisionMesonBaryonC1Ev
   fun:_ZN11G4ScattererC1Ev
   fun:_ZN15G4BinaryCascadeC1EP19G4VPreCompoundModel
   fun:_ZN24G4BinaryLightIonReactionC1EP19G4VPreCompoundModel
}

{
   basf2 suppression 498
   Memcheck:Leak
   fun:_Znwm
   fun:_ZNSs4_Rep9_S_createEmmRKSaIcE
   fun:_ZNSs12_S_constructIPKcEEPcT_S3_RKSaIcESt20forward_iterator_tag.part.29
   fun:_ZNSsC1EPKcRKSaIcE
   fun:_ZN20G4BaryonPartialWidthC1Ev
   fun:_ZN32G4ConcreteMesonBaryonToResonance21theBaryonPartialWidthEv
   fun:_ZN32G4ConcreteMesonBaryonToResonanceC1EPK20G4ParticleDefinitionS2_S2_RK8G4String
   fun:_ZN33G4CollisionMesonBaryonToResonanceC1Ev
   fun:_ZN22G4CollisionMesonBaryonC1Ev
   fun:_ZN11G4ScattererC1Ev
   fun:_ZN15G4BinaryCascadeC1EP19G4VPreCompoundModel
   fun:_ZN24G4BinaryLightIonReactionC1EP19G4VPreCompoundModel
}

{
   basf2 suppression 499
   Memcheck:Leak
   fun:_Znwm
   fun:_ZNSs4_Rep9_S_createEmmRKSaIcE
   fun:_ZNSs12_S_constructIPKcEEPcT_S3_RKSaIcESt20forward_iterator_tag.part.29
   fun:_ZNSsC1EPKcRKSaIcE
   fun:_ZN20G4BaryonPartialWidthC1Ev
   fun:_ZN32G4ConcreteMesonBaryonToResonance21theBaryonPartialWidthEv
   fun:_ZN32G4ConcreteMesonBaryonToResonanceC1EPK20G4ParticleDefinitionS2_S2_RK8G4String
   fun:_ZN33G4CollisionMesonBaryonToResonanceC1Ev
   fun:_ZN22G4CollisionMesonBaryonC1Ev
   fun:_ZN11G4ScattererC1Ev
   fun:_ZN15G4BinaryCascadeC1EP19G4VPreCompoundModel
   fun:_ZN24G4BinaryLightIonReactionC1EP19G4VPreCompoundModel
}

{
   basf2 suppression 500
   Memcheck:Leak
   fun:_Znwm
   fun:_ZNSs4_Rep9_S_createEmmRKSaIcE
   fun:_ZNSs12_S_constructIPKcEEPcT_S3_RKSaIcESt20forward_iterator_tag.part.29
   fun:_ZNSsC1EPKcRKSaIcE
   fun:_ZN20G4BaryonPartialWidthC1Ev
   fun:_ZN32G4ConcreteMesonBaryonToResonance21theBaryonPartialWidthEv
   fun:_ZN32G4ConcreteMesonBaryonToResonanceC1EPK20G4ParticleDefinitionS2_S2_RK8G4String
   fun:_ZN33G4CollisionMesonBaryonToResonanceC1Ev
   fun:_ZN22G4CollisionMesonBaryonC1Ev
   fun:_ZN11G4ScattererC1Ev
   fun:_ZN15G4BinaryCascadeC1EP19G4VPreCompoundModel
   fun:_ZN24G4BinaryLightIonReactionC1EP19G4VPreCompoundModel
}

{
   basf2 suppression 501
   Memcheck:Leak
   fun:_Znwm
   fun:_ZNSs4_Rep9_S_createEmmRKSaIcE
   fun:_ZNSs12_S_constructIPKcEEPcT_S3_RKSaIcESt20forward_iterator_tag.part.29
   fun:_ZNSsC1EPKcRKSaIcE
   fun:_ZN20G4BaryonPartialWidthC1Ev
   fun:_ZN32G4ConcreteMesonBaryonToResonance21theBaryonPartialWidthEv
   fun:_ZN32G4ConcreteMesonBaryonToResonanceC1EPK20G4ParticleDefinitionS2_S2_RK8G4String
   fun:_ZN33G4CollisionMesonBaryonToResonanceC1Ev
   fun:_ZN22G4CollisionMesonBaryonC1Ev
   fun:_ZN11G4ScattererC1Ev
   fun:_ZN15G4BinaryCascadeC1EP19G4VPreCompoundModel
   fun:_ZN24G4BinaryLightIonReactionC1EP19G4VPreCompoundModel
}

{
   basf2 suppression 502
   Memcheck:Leak
   fun:_Znwm
   fun:_ZNSs4_Rep9_S_createEmmRKSaIcE
   fun:_ZNSs12_S_constructIPKcEEPcT_S3_RKSaIcESt20forward_iterator_tag.part.29
   fun:_ZNSsC1EPKcRKSaIcE
   fun:_ZN20G4BaryonPartialWidthC1Ev
   fun:_ZN32G4ConcreteMesonBaryonToResonance21theBaryonPartialWidthEv
   fun:_ZN32G4ConcreteMesonBaryonToResonanceC1EPK20G4ParticleDefinitionS2_S2_RK8G4String
   fun:_ZN33G4CollisionMesonBaryonToResonanceC1Ev
   fun:_ZN22G4CollisionMesonBaryonC1Ev
   fun:_ZN11G4ScattererC1Ev
   fun:_ZN15G4BinaryCascadeC1EP19G4VPreCompoundModel
   fun:_ZN24G4BinaryLightIonReactionC1EP19G4VPreCompoundModel
}

{
   basf2 suppression 503
   Memcheck:Leak
   fun:_Znwm
   fun:_ZNSs4_Rep9_S_createEmmRKSaIcE
   fun:_ZNSs12_S_constructIPKcEEPcT_S3_RKSaIcESt20forward_iterator_tag.part.29
   fun:_ZNSsC1EPKcRKSaIcE
   fun:_ZN20G4BaryonPartialWidthC1Ev
   fun:_ZN32G4ConcreteMesonBaryonToResonance21theBaryonPartialWidthEv
   fun:_ZN32G4ConcreteMesonBaryonToResonanceC1EPK20G4ParticleDefinitionS2_S2_RK8G4String
   fun:_ZN33G4CollisionMesonBaryonToResonanceC1Ev
   fun:_ZN22G4CollisionMesonBaryonC1Ev
   fun:_ZN11G4ScattererC1Ev
   fun:_ZN15G4BinaryCascadeC1EP19G4VPreCompoundModel
   fun:_ZN24G4BinaryLightIonReactionC1EP19G4VPreCompoundModel
}

{
   basf2 suppression 504
   Memcheck:Leak
   fun:_Znwm
   fun:_ZNSs4_Rep9_S_createEmmRKSaIcE
   fun:_ZNSs12_S_constructIPKcEEPcT_S3_RKSaIcESt20forward_iterator_tag.part.29
   fun:_ZNSsC1EPKcRKSaIcE
   fun:_ZN20G4BaryonPartialWidthC1Ev
   fun:_ZN32G4ConcreteMesonBaryonToResonance21theBaryonPartialWidthEv
   fun:_ZN32G4ConcreteMesonBaryonToResonanceC1EPK20G4ParticleDefinitionS2_S2_RK8G4String
   fun:_ZN33G4CollisionMesonBaryonToResonanceC1Ev
   fun:_ZN22G4CollisionMesonBaryonC1Ev
   fun:_ZN11G4ScattererC1Ev
   fun:_ZN15G4BinaryCascadeC1EP19G4VPreCompoundModel
   fun:_ZN24G4BinaryLightIonReactionC1EP19G4VPreCompoundModel
}

{
   basf2 suppression 505
   Memcheck:Leak
   fun:_Znwm
   fun:_ZNSs4_Rep9_S_createEmmRKSaIcE
   fun:_ZNSs12_S_constructIPKcEEPcT_S3_RKSaIcESt20forward_iterator_tag.part.29
   fun:_ZNSsC1EPKcRKSaIcE
   fun:_ZN20G4BaryonPartialWidthC1Ev
   fun:_ZN32G4ConcreteMesonBaryonToResonance21theBaryonPartialWidthEv
   fun:_ZN32G4ConcreteMesonBaryonToResonanceC1EPK20G4ParticleDefinitionS2_S2_RK8G4String
   fun:_ZN33G4CollisionMesonBaryonToResonanceC1Ev
   fun:_ZN22G4CollisionMesonBaryonC1Ev
   fun:_ZN11G4ScattererC1Ev
   fun:_ZN15G4BinaryCascadeC1EP19G4VPreCompoundModel
   fun:_ZN24G4BinaryLightIonReactionC1EP19G4VPreCompoundModel
}

{
   basf2 suppression 506
   Memcheck:Leak
   fun:_Znwm
   fun:_ZNSs4_Rep9_S_createEmmRKSaIcE
   fun:_ZNSs12_S_constructIPKcEEPcT_S3_RKSaIcESt20forward_iterator_tag.part.29
   fun:_ZNSsC1EPKcRKSaIcE
   fun:_ZN20G4BaryonPartialWidthC1Ev
   fun:_ZN32G4ConcreteMesonBaryonToResonance21theBaryonPartialWidthEv
   fun:_ZN32G4ConcreteMesonBaryonToResonanceC1EPK20G4ParticleDefinitionS2_S2_RK8G4String
   fun:_ZN33G4CollisionMesonBaryonToResonanceC1Ev
   fun:_ZN22G4CollisionMesonBaryonC1Ev
   fun:_ZN11G4ScattererC1Ev
   fun:_ZN15G4BinaryCascadeC1EP19G4VPreCompoundModel
   fun:_ZN24G4BinaryLightIonReactionC1EP19G4VPreCompoundModel
}

{
   basf2 suppression 507
   Memcheck:Leak
   fun:_Znwm
   fun:_ZNSs4_Rep9_S_createEmmRKSaIcE
   fun:_ZNSs12_S_constructIPKcEEPcT_S3_RKSaIcESt20forward_iterator_tag.part.29
   fun:_ZNSsC1EPKcRKSaIcE
   fun:_ZN20G4BaryonPartialWidthC1Ev
   fun:_ZN32G4ConcreteMesonBaryonToResonance21theBaryonPartialWidthEv
   fun:_ZN32G4ConcreteMesonBaryonToResonanceC1EPK20G4ParticleDefinitionS2_S2_RK8G4String
   fun:_ZN33G4CollisionMesonBaryonToResonanceC1Ev
   fun:_ZN22G4CollisionMesonBaryonC1Ev
   fun:_ZN11G4ScattererC1Ev
   fun:_ZN15G4BinaryCascadeC1EP19G4VPreCompoundModel
   fun:_ZN24G4BinaryLightIonReactionC1EP19G4VPreCompoundModel
}

{
   basf2 suppression 508
   Memcheck:Leak
   fun:_Znwm
   fun:_ZNSs4_Rep9_S_createEmmRKSaIcE
   fun:_ZNSs12_S_constructIPKcEEPcT_S3_RKSaIcESt20forward_iterator_tag.part.29
   fun:_ZNSsC1EPKcRKSaIcE
   fun:_ZN20G4BaryonPartialWidthC1Ev
   fun:_ZN32G4ConcreteMesonBaryonToResonance21theBaryonPartialWidthEv
   fun:_ZN32G4ConcreteMesonBaryonToResonanceC1EPK20G4ParticleDefinitionS2_S2_RK8G4String
   fun:_ZN33G4CollisionMesonBaryonToResonanceC1Ev
   fun:_ZN22G4CollisionMesonBaryonC1Ev
   fun:_ZN11G4ScattererC1Ev
   fun:_ZN15G4BinaryCascadeC1EP19G4VPreCompoundModel
   fun:_ZN24G4BinaryLightIonReactionC1EP19G4VPreCompoundModel
}

{
   basf2 suppression 509
   Memcheck:Leak
   fun:_Znwm
   fun:_ZNSs4_Rep9_S_createEmmRKSaIcE
   fun:_ZNSs12_S_constructIPKcEEPcT_S3_RKSaIcESt20forward_iterator_tag.part.29
   fun:_ZNSsC1EPKcRKSaIcE
   fun:_ZN20G4BaryonPartialWidthC1Ev
   fun:_ZN32G4ConcreteMesonBaryonToResonance21theBaryonPartialWidthEv
   fun:_ZN32G4ConcreteMesonBaryonToResonanceC1EPK20G4ParticleDefinitionS2_S2_RK8G4String
   fun:_ZN33G4CollisionMesonBaryonToResonanceC1Ev
   fun:_ZN22G4CollisionMesonBaryonC1Ev
   fun:_ZN11G4ScattererC1Ev
   fun:_ZN15G4BinaryCascadeC1EP19G4VPreCompoundModel
   fun:_ZN24G4BinaryLightIonReactionC1EP19G4VPreCompoundModel
}

{
   basf2 suppression 510
   Memcheck:Leak
   fun:_Znwm
   fun:_ZNSs4_Rep9_S_createEmmRKSaIcE
   fun:_ZNSs12_S_constructIPKcEEPcT_S3_RKSaIcESt20forward_iterator_tag.part.29
   fun:_ZNSsC1EPKcRKSaIcE
   fun:_ZN20G4BaryonPartialWidthC1Ev
   fun:_ZN32G4ConcreteMesonBaryonToResonance21theBaryonPartialWidthEv
   fun:_ZN32G4ConcreteMesonBaryonToResonanceC1EPK20G4ParticleDefinitionS2_S2_RK8G4String
   fun:_ZN33G4CollisionMesonBaryonToResonanceC1Ev
   fun:_ZN22G4CollisionMesonBaryonC1Ev
   fun:_ZN11G4ScattererC1Ev
   fun:_ZN15G4BinaryCascadeC1EP19G4VPreCompoundModel
   fun:_ZN24G4BinaryLightIonReactionC1EP19G4VPreCompoundModel
}

{
   basf2 suppression 511
   Memcheck:Leak
   fun:_Znwm
   fun:_ZNSs4_Rep9_S_createEmmRKSaIcE
   fun:_ZNSs12_S_constructIPKcEEPcT_S3_RKSaIcESt20forward_iterator_tag.part.29
   fun:_ZNSsC1EPKcRKSaIcE
   fun:_ZN20G4BaryonPartialWidthC1Ev
   fun:_ZN32G4ConcreteMesonBaryonToResonance21theBaryonPartialWidthEv
   fun:_ZN32G4ConcreteMesonBaryonToResonanceC1EPK20G4ParticleDefinitionS2_S2_RK8G4String
   fun:_ZN33G4CollisionMesonBaryonToResonanceC1Ev
   fun:_ZN22G4CollisionMesonBaryonC1Ev
   fun:_ZN11G4ScattererC1Ev
   fun:_ZN15G4BinaryCascadeC1EP19G4VPreCompoundModel
   fun:_ZN24G4BinaryLightIonReactionC1EP19G4VPreCompoundModel
}

{
   basf2 suppression 512
   Memcheck:Leak
   fun:_Znwm
   fun:_ZNSs4_Rep9_S_createEmmRKSaIcE
   fun:_ZNSs12_S_constructIPKcEEPcT_S3_RKSaIcESt20forward_iterator_tag.part.29
   fun:_ZNSsC1EPKcRKSaIcE
   fun:_ZN20G4BaryonPartialWidthC1Ev
   fun:_ZN32G4ConcreteMesonBaryonToResonance21theBaryonPartialWidthEv
   fun:_ZN32G4ConcreteMesonBaryonToResonanceC1EPK20G4ParticleDefinitionS2_S2_RK8G4String
   fun:_ZN33G4CollisionMesonBaryonToResonanceC1Ev
   fun:_ZN22G4CollisionMesonBaryonC1Ev
   fun:_ZN11G4ScattererC1Ev
   fun:_ZN15G4BinaryCascadeC1EP19G4VPreCompoundModel
   fun:_ZN24G4BinaryLightIonReactionC1EP19G4VPreCompoundModel
}

{
   basf2 suppression 513
   Memcheck:Leak
   fun:_Znwm
   fun:_ZNSs4_Rep9_S_createEmmRKSaIcE
   fun:_ZNSs12_S_constructIPKcEEPcT_S3_RKSaIcESt20forward_iterator_tag.part.29
   fun:_ZNSsC1EPKcRKSaIcE
   fun:_ZN20G4BaryonPartialWidthC1Ev
   fun:_ZN32G4ConcreteMesonBaryonToResonance21theBaryonPartialWidthEv
   fun:_ZN32G4ConcreteMesonBaryonToResonanceC1EPK20G4ParticleDefinitionS2_S2_RK8G4String
   fun:_ZN33G4CollisionMesonBaryonToResonanceC1Ev
   fun:_ZN22G4CollisionMesonBaryonC1Ev
   fun:_ZN11G4ScattererC1Ev
   fun:_ZN15G4BinaryCascadeC1EP19G4VPreCompoundModel
   fun:_ZN24G4BinaryLightIonReactionC1EP19G4VPreCompoundModel
}

{
   basf2 suppression 514
   Memcheck:Leak
   fun:_Znwm
   fun:_ZNSs4_Rep9_S_createEmmRKSaIcE
   fun:_ZNSs12_S_constructIPKcEEPcT_S3_RKSaIcESt20forward_iterator_tag.part.29
   fun:_ZNSsC1EPKcRKSaIcE
   fun:_ZN20G4BaryonPartialWidthC1Ev
   fun:_ZN32G4ConcreteMesonBaryonToResonance21theBaryonPartialWidthEv
   fun:_ZN32G4ConcreteMesonBaryonToResonanceC1EPK20G4ParticleDefinitionS2_S2_RK8G4String
   fun:_ZN33G4CollisionMesonBaryonToResonanceC1Ev
   fun:_ZN22G4CollisionMesonBaryonC1Ev
   fun:_ZN11G4ScattererC1Ev
   fun:_ZN15G4BinaryCascadeC1EP19G4VPreCompoundModel
   fun:_ZN24G4BinaryLightIonReactionC1EP19G4VPreCompoundModel
}

{
   basf2 suppression 515
   Memcheck:Leak
   fun:_Znwm
   fun:_ZNSs4_Rep9_S_createEmmRKSaIcE
   fun:_ZNSs12_S_constructIPKcEEPcT_S3_RKSaIcESt20forward_iterator_tag.part.29
   fun:_ZNSsC1EPKcmRKSaIcE
   fun:_ZN4llvm12GlobalObject10setSectionENS_9StringRefE
   fun:_ZN5clang7CodeGen13CodeGenModule20EmitAnnotationStringEN4llvm9StringRefE
   fun:_ZN5clang7CodeGen15CodeGenFunction18EmitAnnotationCallEPN4llvm5ValueES4_NS2_9StringRefENS_14SourceLocationE
   fun:_ZN5clang7CodeGen15CodeGenFunction20EmitFieldAnnotationsEPKNS_9FieldDeclEPN4llvm5ValueE
   fun:_ZN5clang7CodeGen15CodeGenFunction18EmitLValueForFieldENS0_6LValueEPKNS_9FieldDeclE
   fun:_ZN5clang7CodeGen15CodeGenFunction14EmitMemberExprEPKNS_10MemberExprE
   fun:_ZN5clang7CodeGen15CodeGenFunction10EmitLValueEPKNS_4ExprE
   fun:_ZN5clang7CodeGen15CodeGenFunction37EmitCXXMemberOrOperatorMemberCallExprEPKNS_8CallExprEPKNS_13CXXMethodDeclENS0_15ReturnValueSlotEbPNS_19NestedNameSpecifierEbPKNS_4ExprE
}

{
   basf2 suppression 516
   Memcheck:Leak
   fun:_Znwm
   fun:_ZNSs4_Rep9_S_createEmmRKSaIcE
   fun:_ZNSs12_S_constructIPKcEEPcT_S3_RKSaIcESt20forward_iterator_tag.part.29
   fun:_ZNSsC1EPKcmRKSaIcE
   fun:_ZN6PyROOT17TCStringConverter6SetArgEP7_objectRNS_10TParameterEPNS_12TCallContextE
   fun:_ZN6PyROOT13TMethodHolder17ConvertAndSetArgsEP7_objectPNS_12TCallContextE
   fun:_ZN6PyROOT13TMethodHolder4CallEPNS_11ObjectProxyEP7_objectS4_PNS_12TCallContextE
   fun:_ZN6PyROOT12_GLOBAL__N_17mp_callEPNS_11MethodProxyEP7_objectS4_
   fun:PyObject_Call
   fun:PyEval_EvalFrameEx
   fun:_PyEval_EvalCodeWithName
   fun:PyEval_EvalCodeEx
}

{
   basf2 suppression 517
   Memcheck:Leak
   fun:_Znwm
   fun:_ZNSs4_Rep9_S_createEmmRKSaIcE
   fun:_ZNSs12_S_constructIPKcEEPcT_S3_RKSaIcESt20forward_iterator_tag.part.29
   fun:_ZNSsC1EPKcmRKSaIcE
   fun:_ZN4llvm6ModuleC1ENS_9StringRefERNS_11LLVMContextE
   fun:_ZN5clang17CodeGeneratorImpl11StartModuleERKSsRN4llvm11LLVMContextERKNS_14CodeGenOptionsE
   fun:_ZN5cling17IncrementalParser18codeGenTransactionEPNS_11TransactionE
   fun:_ZN5cling17IncrementalParser17commitTransactionEN4llvm14PointerIntPairIPNS_11TransactionELj2ENS0_12EParseResultENS1_21PointerLikeTypeTraitsIS4_EEEE
   fun:_ZN5cling11InterpreterC1EiPKPKcS2_b
   fun:_ZN6TClingC1EPKcS1_
   fun:CreateInterpreter
   fun:_ZN5TROOT15InitInterpreterEv
}

{
   basf2 suppression 518
   Memcheck:Leak
   fun:_Znwm
   fun:_ZNSs4_Rep9_S_createEmmRKSaIcE
   fun:_ZNSs12_S_constructIPKcEEPcT_S3_RKSaIcESt20forward_iterator_tag.part.29
   fun:_ZNSsC1EPKcmRKSaIcE
   fun:_ZN12_GLOBAL__N_1L12createCIImplESt10unique_ptrIN4llvm12MemoryBufferESt14default_deleteIS2_EEiPKPKcS7_b
   fun:_ZN5cling9CIFactory8createCIEN4llvm9StringRefEiPKPKcS4_
   fun:_ZN5cling17IncrementalParserC1EPNS_11InterpreterEiPKPKcS4_
   fun:_ZN5cling11InterpreterC1EiPKPKcS2_b
   fun:_ZN6TClingC1EPKcS1_
   fun:CreateInterpreter
   fun:_ZN5TROOT15InitInterpreterEv
   fun:_ZN4ROOT8GetROOT2Ev
}

{
   basf2 suppression 519
   Memcheck:Leak
   fun:_Znwm
   fun:_ZNSs4_Rep9_S_createEmmRKSaIcE
   fun:_ZNSs12_S_constructIPKcEEPcT_S3_RKSaIcESt20forward_iterator_tag.part.29
   fun:_ZNSsC1EPKcmRKSaIcE
   fun:_ZN4llvm6ModuleC1ENS_9StringRefERNS_11LLVMContextE
   fun:_ZN5clang17CreateLLVMCodeGenERNS_17DiagnosticsEngineERKSsRKNS_14CodeGenOptionsERN4llvm11LLVMContextEPNS_18CoverageSourceInfoE
   fun:_ZN5cling17IncrementalParserC1EPNS_11InterpreterEiPKPKcS4_
   fun:_ZN5cling11InterpreterC1EiPKPKcS2_b
   fun:_ZN6TClingC1EPKcS1_
   fun:CreateInterpreter
   fun:_ZN5TROOT15InitInterpreterEv
   fun:_ZN4ROOT8GetROOT2Ev
}

{
   basf2 suppression 520
   Memcheck:Leak
   fun:_Znwm
   fun:_ZNSs4_Rep9_S_createEmmRKSaIcE
   fun:_ZNSs12_S_constructIPKcEEPcT_S3_RKSaIcESt20forward_iterator_tag.part.29
   fun:_ZNSsC1EPKcmRKSaIcE
   fun:_ZN4llvm6ModuleC1ENS_9StringRefERNS_11LLVMContextE
   fun:_ZN5clang17CodeGeneratorImpl11StartModuleERKSsRN4llvm11LLVMContextERKNS_14CodeGenOptionsE
   fun:_ZN5cling17IncrementalParser18codeGenTransactionEPNS_11TransactionE
   fun:_ZN5cling17IncrementalParser17commitTransactionEN4llvm14PointerIntPairIPNS_11TransactionELj2ENS0_12EParseResultENS1_21PointerLikeTypeTraitsIS4_EEEE
   fun:_ZN5cling17IncrementalParser7CompileEN4llvm9StringRefERKNS_18CompilationOptionsE
   fun:_ZNK5cling11Interpreter15DeclareInternalERKSsRKNS_18CompilationOptionsEPPNS_11TransactionE
   fun:_ZN5cling11Interpreter7declareERKSsPPNS_11TransactionE
   fun:_ZN6TClingC1EPKcS1_
}

{
   basf2 suppression 521
   Memcheck:Leak
   fun:_Znwm
   fun:_ZNSs4_Rep9_S_createEmmRKSaIcE
   fun:_ZNSs12_S_constructIPKcEEPcT_S3_RKSaIcESt20forward_iterator_tag.part.29
   fun:_ZNSsC1EPKcmRKSaIcE
   fun:_ZN4llvm6ModuleC1ENS_9StringRefERNS_11LLVMContextE
   fun:_ZN5clang17CodeGeneratorImpl11StartModuleERKSsRN4llvm11LLVMContextERKNS_14CodeGenOptionsE
   fun:_ZN5cling17IncrementalParser18codeGenTransactionEPNS_11TransactionE
   fun:_ZN5cling17IncrementalParser17commitTransactionEN4llvm14PointerIntPairIPNS_11TransactionELj2ENS0_12EParseResultENS1_21PointerLikeTypeTraitsIS4_EEEE
   fun:_ZN5cling17IncrementalParser7CompileEN4llvm9StringRefERKNS_18CompilationOptionsE
   fun:_ZNK5cling11Interpreter15DeclareInternalERKSsRKNS_18CompilationOptionsEPPNS_11TransactionE
   fun:_ZN5cling11Interpreter7declareERKSsPPNS_11TransactionE
   fun:_ZN15TClingCallbacksC1EPN5cling11InterpreterE
}

{
   basf2 suppression 522
   Memcheck:Leak
   fun:_Znwm
   fun:_ZNSs4_Rep9_S_createEmmRKSaIcE
   fun:_ZNSs12_S_constructIPKcEEPcT_S3_RKSaIcESt20forward_iterator_tag.part.29
   fun:_ZNSsC1EPKcmRKSaIcE
   fun:_ZN4llvm6ModuleC1ENS_9StringRefERNS_11LLVMContextE
   fun:_ZN5clang17CodeGeneratorImpl11StartModuleERKSsRN4llvm11LLVMContextERKNS_14CodeGenOptionsE
   fun:_ZN5cling17IncrementalParser18codeGenTransactionEPNS_11TransactionE
   fun:_ZN5cling17IncrementalParser17commitTransactionEN4llvm14PointerIntPairIPNS_11TransactionELj2ENS0_12EParseResultENS1_21PointerLikeTypeTraitsIS4_EEEE
   fun:_ZNK5cling11Interpreter19PushTransactionRAII3popEv
   fun:_ZN15TClingClassInfoC1EPN5cling11InterpreterEb
   fun:_ZNK6TCling13GetDataMemberEP11ClassInfo_tPKc
   fun:_ZNK18TListOfDataMembers10FindObjectEPKc
}

{
   basf2 suppression 523
   Memcheck:Leak
   fun:_Znwm
   fun:_ZNSs4_Rep9_S_createEmmRKSaIcE
   fun:_ZNSs12_S_constructIPKcEEPcT_S3_RKSaIcESt20forward_iterator_tag.part.29
   fun:_ZNSsC1EPKcRKSaIcE
   fun:_GLOBAL__sub_I_G4RegisterPhysLists.cc
   fun:_dl_init
   fun:dl_open_worker
   fun:_dl_catch_error
   fun:_dl_open
   fun:dlopen_doit
   fun:_dl_catch_error
   fun:_dlerror_run
}

{
   basf2 suppression 524
   Memcheck:Leak
   fun:_Znwm
   fun:_ZNSs4_Rep9_S_createEmmRKSaIcE
   fun:_ZNSs12_S_constructIPKcEEPcT_S3_RKSaIcESt20forward_iterator_tag.part.29
   fun:_ZNSsC1EPKcRKSaIcE
   fun:_GLOBAL__sub_I_G4GlauberGribovCrossSection.cc
   fun:_dl_init
   fun:dl_open_worker
   fun:_dl_catch_error
   fun:_dl_open
   fun:dlopen_doit
   fun:_dl_catch_error
   fun:_dlerror_run
}

{
   basf2 suppression 525
   Memcheck:Leak
   fun:_Znwm
   fun:_ZNSs4_Rep9_S_createEmmRKSaIcE
   fun:_ZNSs12_S_constructIPKcEEPcT_S3_RKSaIcESt20forward_iterator_tag.part.29
   fun:_ZNSsC1EPKcRKSaIcE
   fun:_GLOBAL__sub_I_G4PhotoNuclearCrossSection.cc
   fun:_dl_init
   fun:dl_open_worker
   fun:_dl_catch_error
   fun:_dl_open
   fun:dlopen_doit
   fun:_dl_catch_error
   fun:_dlerror_run
}

{
   basf2 suppression 526
   Memcheck:Leak
   fun:_Znwm
   fun:_ZNSs4_Rep9_S_createEmmRKSaIcE
   fun:_ZNSs12_S_constructIPKcEEPcT_S3_RKSaIcESt20forward_iterator_tag.part.29
   fun:_ZNSsC1EPKcRKSaIcE
   fun:_GLOBAL__sub_I_G4DecayPhysics.cc
   fun:_dl_init
   fun:dl_open_worker
   fun:_dl_catch_error
   fun:_dl_open
   fun:dlopen_doit
   fun:_dl_catch_error
   fun:_dlerror_run
}

{
   basf2 suppression 527
   Memcheck:Leak
   fun:_Znwm
   fun:_ZNSs4_Rep9_S_createEmmRKSaIcE
   fun:_ZNSs12_S_constructIPKcEEPcT_S3_RKSaIcESt20forward_iterator_tag.part.29
   fun:_ZNSsC1EPKcRKSaIcE
   fun:_GLOBAL__sub_I_G4EmDNAPhysics.cc
   fun:_dl_init
   fun:dl_open_worker
   fun:_dl_catch_error
   fun:_dl_open
   fun:dlopen_doit
   fun:_dl_catch_error
   fun:_dlerror_run
}

{
   basf2 suppression 528
   Memcheck:Leak
   fun:_Znwm
   fun:_ZNSs4_Rep9_S_createEmmRKSaIcE
   fun:_ZNSs12_S_constructIPKcEEPcT_S3_RKSaIcESt20forward_iterator_tag.part.29
   fun:_ZNSsC1EPKcRKSaIcE
   fun:_GLOBAL__sub_I_G4RegisterPhysLists.cc
   fun:_dl_init
   fun:dl_open_worker
   fun:_dl_catch_error
   fun:_dl_open
   fun:dlopen_doit
   fun:_dl_catch_error
   fun:_dlerror_run
}

{
   basf2 suppression 529
   Memcheck:Leak
   fun:_Znwm
   fun:_ZNSs4_Rep9_S_createEmmRKSaIcE
   fun:_ZNSs12_S_constructIPKcEEPcT_S3_RKSaIcESt20forward_iterator_tag.part.29
   fun:_ZNSsC1EPKcRKSaIcE
   fun:_GLOBAL__sub_I_G4RegisterPhysLists.cc
   fun:_dl_init
   fun:dl_open_worker
   fun:_dl_catch_error
   fun:_dl_open
   fun:dlopen_doit
   fun:_dl_catch_error
   fun:_dlerror_run
}

{
   basf2 suppression 530
   Memcheck:Leak
   fun:_Znwm
   fun:_ZNSs4_Rep9_S_createEmmRKSaIcE
   fun:_ZNSs12_S_constructIPKcEEPcT_S3_RKSaIcESt20forward_iterator_tag.part.29
   fun:_ZNSsC1EPKcmRKSaIcE
   fun:_ZN6PyROOT17TCStringConverter6SetArgEP7_objectRNS_10TParameterEPNS_12TCallContextE
   fun:_ZN6PyROOT13TMethodHolder17ConvertAndSetArgsEP7_objectPNS_12TCallContextE
   fun:_ZN6PyROOT13TMethodHolder4CallEPNS_11ObjectProxyEP7_objectS4_PNS_12TCallContextE
   fun:_ZN6PyROOT12_GLOBAL__N_17mp_callEPNS_11MethodProxyEP7_objectS4_
   fun:PyObject_Call
   fun:PyEval_EvalFrameEx
   fun:_PyEval_EvalCodeWithName
   fun:PyEval_EvalCodeEx
}

{
   basf2 suppression 531
   Memcheck:Leak
   fun:_Znwm
   fun:_ZNSs4_Rep9_S_createEmmRKSaIcE
   fun:_ZNSs4_Rep8_M_cloneERKSaIcEm
   fun:_ZNSs7reserveEm
   fun:_ZNSs6appendEPKcm
   fun:_ZN7Pythia819ResonanceLeptoquark13initConstantsEv
   fun:_ZN7Pythia815ResonanceWidths4initEPNS_4InfoEPNS_8SettingsEPNS_12ParticleDataEPNS_9CouplingsE
   fun:_ZN7Pythia812ParticleData10initWidthsESt6vectorIPNS_15ResonanceWidthsESaIS3_EE
   fun:_ZN7Pythia86Pythia4initEv
   fun:_ZN15EvtPythiaEngine10initialiseEv
   fun:_ZN15EvtPythiaEngine7doDecayEP11EvtParticle
   fun:_ZN9EvtPythia5decayEP11EvtParticle
}

{
   basf2 suppression 532
   Memcheck:Leak
   fun:_Znwm
   fun:_ZNSs4_Rep9_S_createEmmRKSaIcE
   fun:_ZNSs4_Rep8_M_cloneERKSaIcEm
   fun:_ZNSs7reserveEm
   fun:_ZNSs6appendEPKcm
   fun:_ZN7Pythia819ResonanceLeptoquark13initConstantsEv
   fun:_ZN7Pythia815ResonanceWidths4initEPNS_4InfoEPNS_8SettingsEPNS_12ParticleDataEPNS_9CouplingsE
   fun:_ZN7Pythia812ParticleData10initWidthsESt6vectorIPNS_15ResonanceWidthsESaIS3_EE
   fun:_ZN7Pythia86Pythia4initEv
   fun:_ZN15EvtPythiaEngine10initialiseEv
   fun:_ZN15EvtPythiaEngine7doDecayEP11EvtParticle
   fun:_ZN9EvtPythia5decayEP11EvtParticle
}

{
   basf2 suppression 533
   Memcheck:Leak
   fun:malloc
   obj:/lib64/libnspr4.so
   obj:/lib64/libnspr4.so
   fun:PR_OpenFile
   obj:/lib64/libfreebl3.so
   obj:/lib64/libfreebl3.so
   obj:/lib64/libfreebl3.so
   obj:/lib64/libfreebl3.so
   obj:/lib64/libfreebl3.so
   obj:*
   obj:*
   obj:*
}

{
   basf2 suppression 534
   Memcheck:Leak
   fun:_Znwm
   fun:_ZNSs4_Rep9_S_createEmmRKSaIcE
   fun:_ZNSs4_Rep8_M_cloneERKSaIcEm
   fun:_ZNSs7reserveEm
   fun:_ZNSs6appendEmc
   fun:_ZN11TBufferFile13ReadStdStringERSs
   fun:_ZN11TBufferFile13ReadFastArrayEPvPK6TClassiP15TMemberStreamerS3_
   fun:_ZN20TStreamerInfoActions7ReadSTLIXadL_ZNS_26ReadSTLMemberWiseSameClassER7TBufferPvPKNS_14TConfigurationEsEEXadL_ZNS_26ReadSTLObjectWiseFastArrayES2_S3_S6_sjEEEEiS2_S3_S6_
   fun:_ZN11TBufferFile13ApplySequenceERKN20TStreamerInfoActions15TActionSequenceEPv
   fun:_ZN11TBufferFile15ReadClassBufferEPK6TClassPvS2_
   fun:_ZN11TBufferFile13ReadObjectAnyEPK6TClass
   fun:_ZN9TObjArray8StreamerER7TBuffer
}

{
   basf2 suppression 535
   Memcheck:Leak
   fun:_Znwm
   fun:_ZNSs4_Rep9_S_createEmmRKSaIcE
   fun:_ZNSs12_S_constructIPKcEEPcT_S3_RKSaIcESt20forward_iterator_tag.part.29
   fun:_ZNSsC1EPKcmRKSaIcE
   fun:_ZN4llvm6ModuleC1ENS_9StringRefERNS_11LLVMContextE
   fun:_ZN5clang17CodeGeneratorImpl11StartModuleERKSsRN4llvm11LLVMContextERKNS_14CodeGenOptionsE
   fun:_ZN5cling17IncrementalParser18codeGenTransactionEPNS_11TransactionE
   fun:_ZN5cling17IncrementalParser17commitTransactionEN4llvm14PointerIntPairIPNS_11TransactionELj2ENS0_12EParseResultENS1_21PointerLikeTypeTraitsIS4_EEEE
   fun:_ZN5cling17IncrementalParser7CompileEN4llvm9StringRefERKNS_18CompilationOptionsE
   fun:_ZNK5cling11Interpreter15DeclareInternalERKSsRKNS_18CompilationOptionsEPPNS_11TransactionE
   fun:_ZN5cling11Interpreter7declareERKSsPPNS_11TransactionE
   fun:_ZN6TCling14LoadLibraryMapEPKc
}

{
   basf2 suppression 536
   Memcheck:Leak
   fun:_Znwm
   fun:_ZNSs4_Rep9_S_createEmmRKSaIcE
   fun:_ZNSs12_S_constructIPKcEEPcT_S3_RKSaIcESt20forward_iterator_tag.part.29
   fun:_ZNSsC1EPKcRKSaIcE
   fun:_ZN19G4GeometryMessengerC1EP23G4TransportationManager
   fun:_ZN23G4TransportationManagerC1Ev
   fun:_ZN23G4TransportationManager24GetTransportationManagerEv
   fun:_ZN17G4SteppingManagerC1Ev
   fun:_ZN17G4TrackingManagerC1Ev
   fun:_ZN14G4EventManagerC1Ev
   fun:_ZN18G4RunManagerKernelC1Ev
   fun:_ZN12G4RunManagerC1Ev
}

{
   basf2 suppression 537
   Memcheck:Leak
   fun:malloc
   fun:_PyObject_New
   fun:PySlice_New
   fun:PyInit_mtrand
   fun:_PyImport_LoadDynamicModuleWithSpec
   fun:_imp_create_dynamic
   fun:PyCFunction_Call
   fun:PyEval_EvalFrameEx
   fun:_PyEval_EvalCodeWithName
   fun:PyEval_EvalFrameEx
   fun:PyEval_EvalFrameEx
   fun:PyEval_EvalFrameEx
}

{
   basf2 suppression 538
   Memcheck:Leak
   fun:_Znwm
   fun:_ZNSs4_Rep9_S_createEmmRKSaIcE
   fun:_ZNSs12_S_constructIPKcEEPcT_S3_RKSaIcESt20forward_iterator_tag.part.29
   fun:_ZNSsC1EPKcRKSaIcE
   fun:_ZN5Cppyy17GetDatamemberNameEll
   fun:_ZN6PyROOT13PropertyProxy3SetEll
   fun:_ZN12_GLOBAL__N_118AddPropertyToClassEP7_objectll
   fun:_ZN6PyROOT16CreateScopeProxyERKSsP7_object
   fun:_ZN6PyROOT16CreateScopeProxyERKSsP7_object
   fun:_ZN6PyROOT16CreateScopeProxyEP7_objectS1_
   fun:PyCFunction_Call
   fun:PyEval_EvalFrameEx
}

{
   basf2 suppression 539
   Memcheck:Leak
   fun:_Znwm
   fun:_ZNSs4_Rep9_S_createEmmRKSaIcE
   fun:_ZNSs12_S_constructIPKcEEPcT_S3_RKSaIcESt20forward_iterator_tag.part.29
   fun:_ZNSsC1EPKcRKSaIcE
   fun:_GLOBAL__sub_I_G4IonQMDPhysics.cc
   fun:_dl_init
   fun:dl_open_worker
   fun:_dl_catch_error
   fun:_dl_open
   fun:dlopen_doit
   fun:_dl_catch_error
   fun:_dlerror_run
}

{
   basf2 suppression 540
   Memcheck:Leak
   fun:_Znwm
   fun:_ZNSs4_Rep9_S_createEmmRKSaIcE
   fun:_ZNSs12_S_constructIPKcEEPcT_S3_RKSaIcESt20forward_iterator_tag.part.29
   fun:_ZNSsC1EPKcRKSaIcE
   fun:_GLOBAL__sub_I_MethodBayesClassifier.cxx
   fun:_dl_init
   fun:dl_open_worker
   fun:_dl_catch_error
   fun:_dl_open
   fun:dlopen_doit
   fun:_dl_catch_error
   fun:_dlerror_run
}

{
   basf2 suppression 541
   Memcheck:Leak
   fun:_Znwm
   fun:_ZNSs4_Rep9_S_createEmmRKSaIcE
   fun:_ZNSs12_S_constructIPKcEEPcT_S3_RKSaIcESt20forward_iterator_tag.part.29
   fun:_ZNSsC1EPKcRKSaIcE
   fun:_ZN20G4BaryonPartialWidthC1Ev
   fun:_ZN32G4ConcreteMesonBaryonToResonance21theBaryonPartialWidthEv
   fun:_ZN32G4ConcreteMesonBaryonToResonanceC1EPK20G4ParticleDefinitionS2_S2_RK8G4String
   fun:_ZN33G4CollisionMesonBaryonToResonanceC1Ev
   fun:_ZN22G4CollisionMesonBaryonC1Ev
   fun:_ZN11G4ScattererC1Ev
   fun:_ZN15G4BinaryCascadeC1EP19G4VPreCompoundModel
   fun:_ZN24G4BinaryLightIonReactionC1EP19G4VPreCompoundModel
}

{
   basf2 suppression 542
   Memcheck:Leak
   fun:_Znwm
   fun:_ZNSs4_Rep9_S_createEmmRKSaIcE
   fun:_ZNSs12_S_constructIPKcEEPcT_S3_RKSaIcESt20forward_iterator_tag.part.29
   fun:_ZNSsC1EPKcRKSaIcE
   fun:_ZN20G4BaryonPartialWidthC1Ev
   fun:_ZN32G4ConcreteMesonBaryonToResonance21theBaryonPartialWidthEv
   fun:_ZN32G4ConcreteMesonBaryonToResonanceC1EPK20G4ParticleDefinitionS2_S2_RK8G4String
   fun:_ZN33G4CollisionMesonBaryonToResonanceC1Ev
   fun:_ZN22G4CollisionMesonBaryonC1Ev
   fun:_ZN11G4ScattererC1Ev
   fun:_ZN15G4BinaryCascadeC1EP19G4VPreCompoundModel
   fun:_ZN24G4BinaryLightIonReactionC1EP19G4VPreCompoundModel
}

{
   basf2 suppression 543
   Memcheck:Leak
   fun:_Znwm
   fun:_ZNSs4_Rep9_S_createEmmRKSaIcE
   fun:_ZNSs12_S_constructIPKcEEPcT_S3_RKSaIcESt20forward_iterator_tag.part.29
   fun:_ZNSsC1EPKcRKSaIcE
   fun:_ZN20G4BaryonPartialWidthC1Ev
   fun:_ZN32G4ConcreteMesonBaryonToResonance21theBaryonPartialWidthEv
   fun:_ZN32G4ConcreteMesonBaryonToResonanceC1EPK20G4ParticleDefinitionS2_S2_RK8G4String
   fun:_ZN33G4CollisionMesonBaryonToResonanceC1Ev
   fun:_ZN22G4CollisionMesonBaryonC1Ev
   fun:_ZN11G4ScattererC1Ev
   fun:_ZN15G4BinaryCascadeC1EP19G4VPreCompoundModel
   fun:_ZN24G4BinaryLightIonReactionC1EP19G4VPreCompoundModel
}

{
   basf2 suppression 544
   Memcheck:Leak
   fun:_Znwm
   fun:_ZNSs4_Rep9_S_createEmmRKSaIcE
   fun:_ZNSs12_S_constructIPKcEEPcT_S3_RKSaIcESt20forward_iterator_tag.part.29
   fun:_ZNSsC1EPKcRKSaIcE
   fun:_ZN20G4BaryonPartialWidthC1Ev
   fun:_ZN32G4ConcreteMesonBaryonToResonance21theBaryonPartialWidthEv
   fun:_ZN32G4ConcreteMesonBaryonToResonanceC1EPK20G4ParticleDefinitionS2_S2_RK8G4String
   fun:_ZN33G4CollisionMesonBaryonToResonanceC1Ev
   fun:_ZN22G4CollisionMesonBaryonC1Ev
   fun:_ZN11G4ScattererC1Ev
   fun:_ZN15G4BinaryCascadeC1EP19G4VPreCompoundModel
   fun:_ZN24G4BinaryLightIonReactionC1EP19G4VPreCompoundModel
}

{
   basf2 suppression 545
   Memcheck:Leak
   fun:_Znwm
   fun:_ZNSs4_Rep9_S_createEmmRKSaIcE
   fun:_ZNSs12_S_constructIPKcEEPcT_S3_RKSaIcESt20forward_iterator_tag.part.29
   fun:_ZNSsC1EPKcRKSaIcE
   fun:_ZN20G4BaryonPartialWidthC1Ev
   fun:_ZN32G4ConcreteMesonBaryonToResonance21theBaryonPartialWidthEv
   fun:_ZN32G4ConcreteMesonBaryonToResonanceC1EPK20G4ParticleDefinitionS2_S2_RK8G4String
   fun:_ZN33G4CollisionMesonBaryonToResonanceC1Ev
   fun:_ZN22G4CollisionMesonBaryonC1Ev
   fun:_ZN11G4ScattererC1Ev
   fun:_ZN15G4BinaryCascadeC1EP19G4VPreCompoundModel
   fun:_ZN24G4BinaryLightIonReactionC1EP19G4VPreCompoundModel
}

{
   basf2 suppression 546
   Memcheck:Leak
   fun:_Znwm
   fun:_ZNSs4_Rep9_S_createEmmRKSaIcE
   fun:_ZNSs12_S_constructIPKcEEPcT_S3_RKSaIcESt20forward_iterator_tag.part.29
   fun:_ZNSsC1EPKcRKSaIcE
   fun:_ZN20G4BaryonPartialWidthC1Ev
   fun:_ZN32G4ConcreteMesonBaryonToResonance21theBaryonPartialWidthEv
   fun:_ZN32G4ConcreteMesonBaryonToResonanceC1EPK20G4ParticleDefinitionS2_S2_RK8G4String
   fun:_ZN33G4CollisionMesonBaryonToResonanceC1Ev
   fun:_ZN22G4CollisionMesonBaryonC1Ev
   fun:_ZN11G4ScattererC1Ev
   fun:_ZN15G4BinaryCascadeC1EP19G4VPreCompoundModel
   fun:_ZN24G4BinaryLightIonReactionC1EP19G4VPreCompoundModel
}

{
   basf2 suppression 547
   Memcheck:Leak
   fun:_Znwm
   fun:_ZNSs4_Rep9_S_createEmmRKSaIcE
   fun:_ZNSs12_S_constructIPKcEEPcT_S3_RKSaIcESt20forward_iterator_tag.part.29
   fun:_ZNSsC1EPKcRKSaIcE
   fun:_ZN20G4BaryonPartialWidthC1Ev
   fun:_ZN32G4ConcreteMesonBaryonToResonance21theBaryonPartialWidthEv
   fun:_ZN32G4ConcreteMesonBaryonToResonanceC1EPK20G4ParticleDefinitionS2_S2_RK8G4String
   fun:_ZN33G4CollisionMesonBaryonToResonanceC1Ev
   fun:_ZN22G4CollisionMesonBaryonC1Ev
   fun:_ZN11G4ScattererC1Ev
   fun:_ZN15G4BinaryCascadeC1EP19G4VPreCompoundModel
   fun:_ZN24G4BinaryLightIonReactionC1EP19G4VPreCompoundModel
}

{
   basf2 suppression 548
   Memcheck:Leak
   fun:_Znwm
   fun:_ZN8TStorage11ObjectAllocEm
   fun:_ZN10TTreeCache9AddBranchEP7TBranchb
   fun:_ZN10TTreeCache9AddBranchEPKcb
   fun:_ZN10TTreeCache12LearnPrefillEv
   fun:_ZN10TTreeCache9AddBranchEP7TBranchb
   fun:_ZN7TBranch9GetBasketEi
   fun:_ZN7TBranch8GetEntryExi
   fun:_ZN14TBranchElement8GetEntryExi
   fun:_ZN12TTreeFormula12EvalInstanceIeEET_iPPKc
   fun:_ZN10TTreeIndexC1EPK5TTreePKcS4_
   fun:_ZN11TTreePlayer10BuildIndexEPK5TTreePKcS4_
}

{
   basf2 suppression 549
   Memcheck:Leak
   fun:_Znwm
   fun:_ZN17MultiVertexFitterC1ERK17AnnealingScheduleRK24LinearizationPointFinderRK14VertexSmootherILj5EEf
   fun:_ZN24MultiVertexReconstructorC1ERK19VertexReconstructorRK17AnnealingScheduleRK14VertexSmootherILj5EEf
   fun:_ZN29ConfigurableMultiVertexFitterC1Ev
   fun:_GLOBAL__sub_I_ConfigurableMultiVertexFitter.cc
   fun:_dl_init
   fun:dl_open_worker
   fun:_dl_catch_error
   fun:_dl_open
   fun:dlopen_doit
   fun:_dl_catch_error
   fun:_dlerror_run
}

{
   basf2 suppression 550
   Memcheck:Leak
   fun:_Znwm
   fun:_ZN20AdaptiveVertexFitterC1ERKS_
   fun:_ZNK20AdaptiveVertexFitter5cloneEv
   fun:_ZN23AdaptiveGsfVertexFitterC1ERKS_
   fun:_ZNK23AdaptiveGsfVertexFitter5cloneEv
   fun:_ZN18AbstractConfFitterC1ERK12VertexFitterILj5EE
   fun:_ZN37ConfigurableAdaptiveGaussianSumFilterC1Ev
   fun:_GLOBAL__sub_I_ConfigurableAdaptiveGaussianSumFilter.cc
   fun:_dl_init
   fun:dl_open_worker
   fun:_dl_catch_error
   fun:_dl_open
}

{
   basf2 suppression 551
   Memcheck:Leak
   fun:_Znwm
   fun:_ZN20AdaptiveVertexFitterC1ERKS_
   fun:_ZNK20AdaptiveVertexFitter5cloneEv
   fun:_ZN23AdaptiveGsfVertexFitterC1ERKS_
   fun:_ZNK23AdaptiveGsfVertexFitter5cloneEv
   fun:_ZN18AbstractConfFitterC1ERKS_
   fun:_ZN37ConfigurableAdaptiveGaussianSumFilterC1ERKS_
   fun:_ZNK37ConfigurableAdaptiveGaussianSumFilter5cloneEv
   fun:_ZN23ReconstructorFromFitterC1ERK18AbstractConfFitter
   fun:_ZN19VertexFitterManager14registerFitterERKSsP18AbstractConfFitterS1_
   fun:_GLOBAL__sub_I_ConfigurableAdaptiveGaussianSumFilter.cc
   fun:_dl_init
}

{
   basf2 suppression 552
   Memcheck:Leak
   fun:_Znwm
   fun:_ZNSt8_Rb_treeImmSt9_IdentityImESt4lessImESaImEE16_M_insert_uniqueIRKmEESt4pairISt17_Rb_tree_iteratorImEbEOT_
   fun:_ZN6TCling9AutoParseEPKc
   fun:_ZN15TClingCallbacks20tryAutoParseInternalEN4llvm9StringRefERN5clang12LookupResultEPNS2_5ScopeEPKNS2_9FileEntryE
   fun:_ZN15TClingCallbacks12LookupObjectERN5clang12LookupResultEPNS0_5ScopeE
   fun:_ZN5cling29MultiplexInterpreterCallbacks12LookupObjectERN5clang12LookupResultEPNS1_5ScopeE
   fun:_ZN5clang27MultiplexExternalSemaSource17LookupUnqualifiedERNS_12LookupResultEPNS_5ScopeE
   fun:_ZN5clang4Sema10LookupNameERNS_12LookupResultEPNS_5ScopeEb
   fun:_ZN5clang4Sema16HandleDeclaratorEPNS_5ScopeERNS_10DeclaratorEN4llvm15MutableArrayRefIPNS_21TemplateParameterListEEE
   fun:_ZN5clang4Sema23ActOnStartOfFunctionDefEPNS_5ScopeERNS_10DeclaratorE
   fun:_ZN5clang6Parser23ParseFunctionDefinitionERNS_17ParsingDeclaratorERKNS0_18ParsedTemplateInfoEPNS0_18LateParsedAttrListE
   fun:_ZN5clang6Parser14ParseDeclGroupERNS_15ParsingDeclSpecEjPNS_14SourceLocationEPNS0_12ForRangeInitE
}

{
   basf2 suppression 553
   Memcheck:Leak
   fun:_Znwm
   fun:_ZN20AdaptiveVertexFitterC1ERKS_
   fun:_ZNK20AdaptiveVertexFitter5cloneEv
   fun:_ZN18AbstractConfFitterC1ERK12VertexFitterILj5EE
   fun:_ZN26ConfigurableAdaptiveFitterC1Ev
   fun:_GLOBAL__sub_I_ConfigurableAdaptiveFitter.cc
   fun:_dl_init
   fun:dl_open_worker
   fun:_dl_catch_error
   fun:_dl_open
   fun:dlopen_doit
   fun:_dl_catch_error
}

{
   basf2 suppression 554
   Memcheck:Leak
   fun:_Znwm
   fun:_ZN20AdaptiveVertexFitterC1ERKS_
   fun:_ZNK20AdaptiveVertexFitter5cloneEv
   fun:_ZN18AbstractConfFitterC1ERKS_
   fun:_ZN26ConfigurableAdaptiveFitterC1ERKS_
   fun:_ZNK26ConfigurableAdaptiveFitter5cloneEv
   fun:_ZN23ReconstructorFromFitterC1ERK18AbstractConfFitter
   fun:_ZN19VertexFitterManager14registerFitterERKSsP18AbstractConfFitterS1_
   fun:_GLOBAL__sub_I_ConfigurableAdaptiveFitter.cc
   fun:_dl_init
   fun:dl_open_worker
   fun:_dl_catch_error
}

{
   basf2 suppression 555
   Memcheck:Leak
   fun:_Znwm
   fun:_ZN20AdaptiveVertexFitterC1ERK17AnnealingScheduleRK24LinearizationPointFinderRK13VertexUpdatorILj5EERK33VertexTrackCompatibilityEstimatorILj5EERK14VertexSmootherILj5EERK18AbstractLTSFactoryILj5EE
   fun:_ZN27AdaptiveVertexReconstructor12setupFittersEddddddb
   fun:_ZN27AdaptiveVertexReconstructorC1Edddbd
   fun:_ZN33ConfigurableAdaptiveReconstructorC1Ev
   fun:_GLOBAL__sub_I_ConfigurableAdaptiveReconstructor.cc
   fun:_dl_init
   fun:dl_open_worker
   fun:_dl_catch_error
   fun:_dl_open
   fun:dlopen_doit
   fun:_dl_catch_error
}

{
   basf2 suppression 556
   Memcheck:Leak
   fun:_Znwm
   fun:_ZN20AdaptiveVertexFitterC1ERK17AnnealingScheduleRK24LinearizationPointFinderRK13VertexUpdatorILj5EERK33VertexTrackCompatibilityEstimatorILj5EERK14VertexSmootherILj5EERK18AbstractLTSFactoryILj5EE
   fun:_ZN27AdaptiveVertexReconstructor12setupFittersEddddddb
   fun:_ZN27AdaptiveVertexReconstructorC1Edddbd
   fun:_ZN33ConfigurableAdaptiveReconstructorC1Ev
   fun:_GLOBAL__sub_I_ConfigurableAdaptiveReconstructor.cc
   fun:_dl_init
   fun:dl_open_worker
   fun:_dl_catch_error
   fun:_dl_open
   fun:dlopen_doit
   fun:_dl_catch_error
}

{
   basf2 suppression 557
   Memcheck:Leak
   fun:_Znwm
   fun:_ZNSt8_Rb_treeImmSt9_IdentityImESt4lessImESaImEE16_M_insert_uniqueIRKmEESt4pairISt17_Rb_tree_iteratorImEbEOT_
   fun:_ZN6TCling9AutoParseEPKc
   fun:_ZN15TClingCallbacks20tryAutoParseInternalEN4llvm9StringRefERN5clang12LookupResultEPNS2_5ScopeEPKNS2_9FileEntryE
   fun:_ZN15TClingCallbacks12LookupObjectERN5clang12LookupResultEPNS0_5ScopeE
   fun:_ZN5cling29MultiplexInterpreterCallbacks12LookupObjectERN5clang12LookupResultEPNS1_5ScopeE
   fun:_ZN5clang27MultiplexExternalSemaSource17LookupUnqualifiedERNS_12LookupResultEPNS_5ScopeE
   fun:_ZN5clang4Sema10LookupNameERNS_12LookupResultEPNS_5ScopeEb
   fun:_ZN5clang4Sema11getTypeNameERKNS_14IdentifierInfoENS_14SourceLocationEPNS_5ScopeEPNS_12CXXScopeSpecEbbNS_9OpaquePtrINS_8QualTypeEEEbbPPS1_
   fun:_ZN5clang6Parser26ParseDeclarationSpecifiersERNS_8DeclSpecERKNS0_18ParsedTemplateInfoENS_15AccessSpecifierENS0_15DeclSpecContextEPNS0_18LateParsedAttrListE
   fun:_ZN5clang6Parser27ParseSpecifierQualifierListERNS_8DeclSpecENS_15AccessSpecifierENS0_15DeclSpecContextE
   fun:_ZN5clang6Parser13ParseTypeNameEPNS_11SourceRangeENS_10Declarator10TheContextENS_15AccessSpecifierEPPNS_4DeclEPNS_16ParsedAttributesE
}

{
   basf2 suppression 558
   Memcheck:Leak
   fun:_Znwm
   fun:_ZNSt8_Rb_treeImmSt9_IdentityImESt4lessImESaImEE16_M_insert_uniqueIRKmEESt4pairISt17_Rb_tree_iteratorImEbEOT_
   fun:_ZN6TCling9AutoParseEPKc
   fun:_ZNK6TClass13LoadClassInfoEv
   fun:_ZNK6TCling23CreateListOfBaseClassesEP6TClass
   fun:_ZN6TClass14GetListOfBasesEv
   fun:_ZN6TClass12GetBaseClassEPKS_
   fun:_ZNK6TClass12InheritsFromEPKS_
   fun:_ZNK6TClass8PropertyEv
   fun:_ZNK6TClass9IsForeignEv
   fun:_ZN6TClass13PostLoadCheckEv
   fun:_ZN6TClass16LoadClassDefaultEPKcb
}

{
   basf2 suppression 559
   Memcheck:Leak
   fun:_Znwm
   fun:_ZNSt8_Rb_treeImmSt9_IdentityImESt4lessImESaImEE16_M_insert_uniqueIRKmEESt4pairISt17_Rb_tree_iteratorImEbEOT_
   fun:_ZN6TCling9AutoParseEPKc
   fun:_ZNK6TClass13LoadClassInfoEv
   fun:_ZNK6TCling23CreateListOfBaseClassesEP6TClass
   fun:_ZN6TClass14GetListOfBasesEv
   fun:_ZN6TClass12GetBaseClassEPKS_
   fun:_ZNK6TClass12InheritsFromEPKS_
   fun:_ZNK6TClass8PropertyEv
   fun:_ZNK6TClass9IsForeignEv
   fun:_ZN6TClass13PostLoadCheckEv
   fun:_ZN6TClass8GetClassEPKcbb
}

{
   basf2 suppression 560
   Memcheck:Leak
   fun:_Znwm
   fun:_ZNSs4_Rep9_S_createEmmRKSaIcE
   fun:_ZNSs12_S_constructIPKcEEPcT_S3_RKSaIcESt20forward_iterator_tag.part.29
   fun:_ZNSsC1EPKcRKSaIcE
   fun:_ZN12_GLOBAL__N_1L21GetSystemLibraryPathsERN4llvm15SmallVectorImplISsEE
   fun:_ZN5cling21DynamicLibraryManagerC1ERKNS_17InvocationOptionsE
   fun:_ZN5cling11InterpreterC1EiPKPKcS2_b
   fun:_ZN6TClingC1EPKcS1_
   fun:CreateInterpreter
   fun:_ZN5TROOT15InitInterpreterEv
   fun:_ZN4ROOT8GetROOT2Ev
   fun:_ZN12TDatabasePDGC1Ev
}

{
   basf2 suppression 561
   Memcheck:Leak
   fun:_Znwm
   fun:_ZNSs4_Rep9_S_createEmmRKSaIcE
   fun:_ZNSs12_S_constructIPKcEEPcT_S3_RKSaIcESt20forward_iterator_tag.part.29
   fun:_ZNSsC1EPKcmRKSaIcE
   fun:_ZN5clang12Preprocessor22RegisterBuiltinPragmasEv
   fun:_ZN5clang12PreprocessorC1EN4llvm18IntrusiveRefCntPtrINS_19PreprocessorOptionsEEERNS_17DiagnosticsEngineERNS_11LangOptionsERNS_13SourceManagerERNS_12HeaderSearchERNS_12ModuleLoaderEPNS_20IdentifierInfoLookupEbNS_19TranslationUnitKindE
   fun:_ZN5clang16CompilerInstance18createPreprocessorENS_19TranslationUnitKindE
   fun:_ZN12_GLOBAL__N_1L12createCIImplESt10unique_ptrIN4llvm12MemoryBufferESt14default_deleteIS2_EEiPKPKcS7_b
   fun:_ZN5cling9CIFactory8createCIEN4llvm9StringRefEiPKPKcS4_
   fun:_ZN5cling17IncrementalParserC1EPNS_11InterpreterEiPKPKcS4_
   fun:_ZN5cling11InterpreterC1EiPKPKcS2_b
   fun:_ZN6TClingC1EPKcS1_
}

{
   basf2 suppression 562
   Memcheck:Leak
   fun:_Znwm
   fun:_ZNSs4_Rep9_S_createEmmRKSaIcE
   fun:_ZNSs12_S_constructIPKcEEPcT_S3_RKSaIcESt20forward_iterator_tag.part.29
   fun:_ZNSsC1EPKcmRKSaIcE
   fun:_ZN5clang6Parser24initializePragmaHandlersEv
   fun:_ZN5clang6ParserC1ERNS_12PreprocessorERNS_4SemaEbb
   fun:_ZN5cling17IncrementalParser10InitializeERN4llvm15SmallVectorImplINS1_14PointerIntPairIPNS_11TransactionELj2ENS0_12EParseResultENS1_21PointerLikeTypeTraitsIS5_EEEEEE
   fun:_ZN5cling11InterpreterC1EiPKPKcS2_b
   fun:_ZN6TClingC1EPKcS1_
   fun:CreateInterpreter
   fun:_ZN5TROOT15InitInterpreterEv
   fun:_ZN4ROOT8GetROOT2Ev
}

{
   basf2 suppression 563
   Memcheck:Leak
   fun:_Znwm
   fun:_ZNSs4_Rep9_S_createEmmRKSaIcE
   fun:_ZNSs12_S_constructIPKcEEPcT_S3_RKSaIcESt20forward_iterator_tag.part.29
   fun:_ZNSsC1EPKcRKSaIcE
   fun:_GLOBAL__sub_I_G4EmDNAChemistry.cc
   fun:_dl_init
   fun:dl_open_worker
   fun:_dl_catch_error
   fun:_dl_open
   fun:dlopen_doit
   fun:_dl_catch_error
   fun:_dlerror_run
}

{
   basf2 suppression 564
   Memcheck:Leak
   fun:_Znwm
   fun:_ZNSs4_Rep9_S_createEmmRKSaIcE
   fun:_ZNSs12_S_constructIPKcEEPcT_S3_RKSaIcESt20forward_iterator_tag.part.29
   fun:_ZNSsC1EPKcRKSaIcE
   fun:_GLOBAL__sub_I_G4OpticalPhysics.cc
   fun:_dl_init
   fun:dl_open_worker
   fun:_dl_catch_error
   fun:_dl_open
   fun:dlopen_doit
   fun:_dl_catch_error
   fun:_dlerror_run
}

{
   basf2 suppression 565
   Memcheck:Leak
   fun:_Znwm
   fun:_ZNSs4_Rep9_S_createEmmRKSaIcE
   fun:_ZNSs4_Rep8_M_cloneERKSaIcEm
   fun:_ZNSs7reserveEm
   fun:_ZNSs6appendEPKcm
   fun:_ZN6PyROOT16CreateScopeProxyERKSsP7_object
   fun:_ZN6PyROOT16CreateScopeProxyERKSsP7_object
   fun:_ZN6PyROOT16CreateScopeProxyEl
   fun:_ZN6PyROOT19BindCppObjectNoCastEPvlbb
   fun:_ZN6PyROOT8InitRootEv
   fun:PyInit_libPyROOT
   fun:_PyImport_LoadDynamicModuleWithSpec
}

{
   basf2 suppression 566
   Memcheck:Leak
   fun:_Znwm
   fun:_ZNSs4_Rep9_S_createEmmRKSaIcE
   fun:_ZNSs12_S_constructIPKcEEPcT_S3_RKSaIcESt20forward_iterator_tag.part.29
   fun:_ZNSsC1EPKcRKSaIcE
   fun:_ZN6PyROOT9PythonizeEP7_objectRKSs
   fun:_ZN6PyROOT16CreateScopeProxyERKSsP7_object
   fun:_ZN6PyROOT16CreateScopeProxyEP7_objectS1_
   fun:PyCFunction_Call
   fun:PyEval_EvalFrameEx
   fun:_PyEval_EvalCodeWithName
   fun:PyEval_EvalCodeEx
   fun:PyEval_EvalCode
}

{
   basf2 suppression 567
   Memcheck:Leak
   fun:_Znwm
   fun:_ZNSs4_Rep9_S_createEmmRKSaIcE
   fun:_ZNSs12_S_constructIPKcEEPcT_S3_RKSaIcESt20forward_iterator_tag.part.29
   fun:_ZNSsC1EPKcRKSaIcE
   fun:_GLOBAL__sub_I_G4ElectroNuclearCrossSection.cc
   fun:_dl_init
   fun:dl_open_worker
   fun:_dl_catch_error
   fun:_dl_open
   fun:dlopen_doit
   fun:_dl_catch_error
   fun:_dlerror_run
}

{
   basf2 suppression 568
   Memcheck:Leak
   fun:_Znwm
   fun:_ZNSs4_Rep9_S_createEmmRKSaIcE
   fun:_ZNSs12_S_constructIPKcEEPcT_S3_RKSaIcESt20forward_iterator_tag.part.29
   fun:_ZNSsC1EPKcRKSaIcE
   fun:_GLOBAL__sub_I_G4EmLowEPPhysics.cc
   fun:_dl_init
   fun:dl_open_worker
   fun:_dl_catch_error
   fun:_dl_open
   fun:dlopen_doit
   fun:_dl_catch_error
   fun:_dlerror_run
}

{
   basf2 suppression 569
   Memcheck:Leak
   fun:_Znwm
   fun:_ZNSs4_Rep9_S_createEmmRKSaIcE
   fun:_ZNSs12_S_constructIPKcEEPcT_S3_RKSaIcESt20forward_iterator_tag.part.29
   fun:_ZNSsC1EPKcRKSaIcE
   fun:_GLOBAL__sub_I_G4EmExtraPhysics.cc
   fun:_dl_init
   fun:dl_open_worker
   fun:_dl_catch_error
   fun:_dl_open
   fun:dlopen_doit
   fun:_dl_catch_error
   fun:_dlerror_run
}

{
   basf2 suppression 570
   Memcheck:Leak
   fun:_Znwm
   fun:_ZNSs4_Rep9_S_createEmmRKSaIcE
   fun:_ZNSs12_S_constructIPKcEEPcT_S3_RKSaIcESt20forward_iterator_tag.part.29
   fun:_ZNSsC1EPKcmRKSaIcE
   fun:_ZN4llvm6ModuleC1ENS_9StringRefERNS_11LLVMContextE
   fun:_ZN5clang17CodeGeneratorImpl11StartModuleERKSsRN4llvm11LLVMContextERKNS_14CodeGenOptionsE
   fun:_ZN5cling17IncrementalParser18codeGenTransactionEPNS_11TransactionE
   fun:_ZN5cling17IncrementalParser17commitTransactionEN4llvm14PointerIntPairIPNS_11TransactionELj2ENS0_12EParseResultENS1_21PointerLikeTypeTraitsIS4_EEEE
   fun:_ZNK5cling11Interpreter19PushTransactionRAII3popEv
   fun:_ZN5cling16execFindFunctionINS_10ParseProtoEPKN5clang12FunctionDeclEEET0_RNS2_6ParserEPNS_11InterpreterEPKNS2_4DeclEN4llvm9StringRefERKNT_9ArgsInputEbPFS6_PNS2_11DeclContextEbRKNSE_15SmallVectorImplIPNS2_4ExprEEERNS2_12LookupResultERNS2_19DeclarationNameInfoEPKNS2_24TemplateArgumentListInfoERNS2_10ASTContextES8_RNS2_4SemaEENS_12LookupHelper11DiagSettingE
   fun:_ZNK5cling12LookupHelper17findFunctionProtoEPKN5clang4DeclEN4llvm9StringRefES6_NS0_11DiagSettingEb
   fun:_ZNK15TClingClassInfo9GetMethodEPKcS1_bPlN4ROOT18EFunctionMatchModeENS_16EInheritanceModeE
}

{
   basf2 suppression 571
   Memcheck:Leak
   fun:_Znwm
   fun:_ZNSs4_Rep9_S_createEmmRKSaIcE
   fun:_ZNSs12_S_constructIPKcEEPcT_S3_RKSaIcESt20forward_iterator_tag.part.29
   fun:_ZNSsC1EPKcmRKSaIcE
   fun:_ZN4llvm6ModuleC1ENS_9StringRefERNS_11LLVMContextE
   fun:_ZN5clang17CodeGeneratorImpl11StartModuleERKSsRN4llvm11LLVMContextERKNS_14CodeGenOptionsE
   fun:_ZN5cling17IncrementalParser18codeGenTransactionEPNS_11TransactionE
   fun:_ZN5cling17IncrementalParser17commitTransactionEN4llvm14PointerIntPairIPNS_11TransactionELj2ENS0_12EParseResultENS1_21PointerLikeTypeTraitsIS4_EEEE
   fun:_ZNK5cling11Interpreter19PushTransactionRAII3popEv
   fun:_ZNK6TCling9LoadEnumsER12TListOfEnums
   fun:_ZN12TListOfEnums4LoadEv
   fun:_ZN6TClass14GetListOfEnumsEb
}

{
   basf2 suppression 572
   Memcheck:Leak
   fun:_Znwm
   fun:_ZNSs4_Rep9_S_createEmmRKSaIcE
   fun:_ZNSs12_S_constructIPKcEEPcT_S3_RKSaIcESt20forward_iterator_tag.part.29
   fun:_ZNSsC1EPKcmRKSaIcE
   fun:_ZN4llvm6ModuleC1ENS_9StringRefERNS_11LLVMContextE
   fun:_ZN5clang17CodeGeneratorImpl11StartModuleERKSsRN4llvm11LLVMContextERKNS_14CodeGenOptionsE
   fun:_ZN5cling17IncrementalParser18codeGenTransactionEPNS_11TransactionE
   fun:_ZN5cling17IncrementalParser17commitTransactionEN4llvm14PointerIntPairIPNS_11TransactionELj2ENS0_12EParseResultENS1_21PointerLikeTypeTraitsIS4_EEEE
   fun:_ZNK5cling11Interpreter19PushTransactionRAII3popEv
   fun:_ZNK6TCling9LoadEnumsER12TListOfEnums
   fun:_ZN12TListOfEnums4LoadEv
   fun:_ZN6TClass14GetListOfEnumsEb
}

{
   basf2 suppression 573
   Memcheck:Leak
   fun:_Znwm
   fun:_ZNSs4_Rep9_S_createEmmRKSaIcE
   fun:_ZNSs12_S_constructIPKcEEPcT_S3_RKSaIcESt20forward_iterator_tag.part.29
   fun:_ZNSsC1EPKcmRKSaIcE
   fun:_ZN12_GLOBAL__N_1L12createCIImplESt10unique_ptrIN4llvm12MemoryBufferESt14default_deleteIS2_EEiPKPKcS7_b
   fun:_ZN5cling9CIFactory8createCIEN4llvm9StringRefEiPKPKcS4_
   fun:_ZN5cling17IncrementalParserC1EPNS_11InterpreterEiPKPKcS4_
   fun:_ZN5cling11InterpreterC1EiPKPKcS2_b
   fun:_ZN6TClingC1EPKcS1_
   fun:CreateInterpreter
   fun:_ZN5TROOT15InitInterpreterEv
   fun:_ZN4ROOT8GetROOT2Ev
}

{
   basf2 suppression 574
   Memcheck:Leak
   fun:_Znwm
   fun:_ZNSs4_Rep9_S_createEmmRKSaIcE
   fun:_ZNSs12_S_constructIPKcEEPcT_S3_RKSaIcESt20forward_iterator_tag.part.29
   fun:_ZNSsC1EPKcRKSaIcE
   fun:_GLOBAL__sub_I_G4StoppingPhysics.cc
   fun:_dl_init
   fun:dl_open_worker
   fun:_dl_catch_error
   fun:_dl_open
   fun:dlopen_doit
   fun:_dl_catch_error
   fun:_dlerror_run
}

{
   basf2 suppression 575
   Memcheck:Leak
   fun:_Znwm
   fun:_ZNSs4_Rep9_S_createEmmRKSaIcE
   fun:_ZNSs12_S_constructIPKcEEPcT_S3_RKSaIcESt20forward_iterator_tag.part.29
   fun:_ZNSsC1EPKcRKSaIcE
   fun:_ZN17G4VoxelNavigationC1Ev
   fun:_ZN11G4NavigatorC1Ev
   fun:_ZN23G4TransportationManagerC1Ev
   fun:_ZN23G4TransportationManager24GetTransportationManagerEv
   fun:_ZN17G4SteppingManagerC1Ev
   fun:_ZN17G4TrackingManagerC1Ev
   fun:_ZN14G4EventManagerC1Ev
   fun:_ZN18G4RunManagerKernelC1Ev
}

{
   basf2 suppression 576
   Memcheck:Leak
   fun:_Znwm
   fun:_ZNSs4_Rep9_S_createEmmRKSaIcE
   fun:_ZNSs12_S_constructIPKcEEPcT_S3_RKSaIcESt20forward_iterator_tag.part.29
   fun:_ZNSsC1EPKcRKSaIcE
   fun:_ZN17G4VoxelNavigationC1Ev
   fun:_ZN11G4NavigatorC1Ev
   fun:_ZN22G4VIntersectionLocatorC1EP11G4Navigator
   fun:_ZN19G4MultiLevelLocatorC1EP11G4Navigator
   fun:_ZN19G4PropagatorInFieldC1EP11G4NavigatorP14G4FieldManagerP22G4VIntersectionLocator
   fun:_ZN23G4TransportationManagerC1Ev
   fun:_ZN23G4TransportationManager24GetTransportationManagerEv
   fun:_ZN17G4SteppingManagerC1Ev
}

{
   basf2 suppression 577
   Memcheck:Leak
   fun:_Znwm
   fun:_ZNSs4_Rep9_S_createEmmRKSaIcE
   fun:_ZNSs12_S_constructIPKcEEPcT_S3_RKSaIcESt20forward_iterator_tag.part.29
   fun:_ZNSsC1EPKcRKSaIcE
   fun:_ZN5Cppyy17GetDatamemberNameEll
   fun:_ZN6PyROOT13PropertyProxy3SetEll
   fun:_ZN12_GLOBAL__N_118AddPropertyToClassEP7_objectll
   fun:_ZN6PyROOT16CreateScopeProxyERKSsP7_object
   fun:_ZN6PyROOT16CreateScopeProxyERKSsP7_object
   fun:_ZN6PyROOT16CreateScopeProxyEP7_objectS1_
   fun:PyCFunction_Call
   fun:PyEval_EvalFrameEx
}

{
   basf2 suppression 578
   Memcheck:Leak
   fun:_Znwm
   fun:_ZNSs4_Rep9_S_createEmmRKSaIcE
   fun:_ZNSs12_S_constructIPKcEEPcT_S3_RKSaIcESt20forward_iterator_tag.part.29
   fun:_ZNSsC1EPKcRKSaIcE
   fun:_ZN17G4VoxelNavigationC1Ev
   fun:_ZN25G4ParameterisedNavigationC1Ev
   fun:_ZN11G4NavigatorC1Ev
   fun:_ZN23G4TransportationManagerC1Ev
   fun:_ZN23G4TransportationManager24GetTransportationManagerEv
   fun:_ZN17G4SteppingManagerC1Ev
   fun:_ZN17G4TrackingManagerC1Ev
   fun:_ZN14G4EventManagerC1Ev
}

{
   basf2 suppression 579
   Memcheck:Leak
   fun:_Znwm
   fun:_ZNSs4_Rep9_S_createEmmRKSaIcE
   fun:_ZNSs12_S_constructIPKcEEPcT_S3_RKSaIcESt20forward_iterator_tag.part.29
   fun:_ZNSsC1EPKcRKSaIcE
   fun:_ZN17G4VoxelNavigationC1Ev
   fun:_ZN25G4ParameterisedNavigationC1Ev
   fun:_ZN11G4NavigatorC1Ev
   fun:_ZN22G4VIntersectionLocatorC1EP11G4Navigator
   fun:_ZN19G4MultiLevelLocatorC1EP11G4Navigator
   fun:_ZN19G4PropagatorInFieldC1EP11G4NavigatorP14G4FieldManagerP22G4VIntersectionLocator
   fun:_ZN23G4TransportationManagerC1Ev
   fun:_ZN23G4TransportationManager24GetTransportationManagerEv
}

{
   basf2 suppression 580
   Memcheck:Leak
   fun:_Znwm
   fun:_ZNSs4_Rep9_S_createEmmRKSaIcE
   fun:_ZNSs12_S_constructIPKcEEPcT_S3_RKSaIcESt20forward_iterator_tag.part.29
   fun:_ZNSsC1EPKcRKSaIcE
   fun:_ZN17G4VoxelNavigationC1Ev
   fun:_ZN11G4NavigatorC1Ev
   fun:_ZN16G4MultiNavigatorC1Ev
   fun:_ZN12G4PathFinderC1Ev
   fun:_ZN12G4PathFinder11GetInstanceEv
   fun:_ZN14G4SafetyHelper19InitialiseNavigatorEv
   fun:_ZN14G4SafetyHelper16InitialiseHelperEv
   fun:_ZN11G4VMscModel23GetParticleChangeForMSCEPK20G4ParticleDefinition
}

{
   basf2 suppression 581
   Memcheck:Leak
   fun:_Znwm
   fun:_ZNSs4_Rep9_S_createEmmRKSaIcE
   fun:_ZNSs12_S_constructIPKcEEPcT_S3_RKSaIcESt20forward_iterator_tag.part.29
   fun:_ZNSsC1EPKcRKSaIcE
   fun:_ZN17G4VoxelNavigationC1Ev
   fun:_ZN25G4ParameterisedNavigationC1Ev
   fun:_ZN11G4NavigatorC1Ev
   fun:_ZN16G4MultiNavigatorC1Ev
   fun:_ZN12G4PathFinderC1Ev
   fun:_ZN12G4PathFinder11GetInstanceEv
   fun:_ZN14G4SafetyHelper19InitialiseNavigatorEv
   fun:_ZN14G4SafetyHelper16InitialiseHelperEv
}

{
   basf2 suppression 582
   Memcheck:Leak
   fun:_Znwm
   fun:_ZNSs4_Rep9_S_createEmmRKSaIcE
   fun:_ZNSs12_S_constructIPKcEEPcT_S3_RKSaIcESt20forward_iterator_tag.part.29
   fun:_ZNSsC1EPKcRKSaIcE
   fun:_ZNSt17_Function_handlerIFN4llvm6object12OwningBinaryINS1_10ObjectFileEEERNS0_6ModuleEENS0_14SimpleCompilerEE9_M_invokeERKSt9_Any_dataS6_
   fun:_ZN4llvm14IRCompileLayerINS_18ObjectLinkingLayerIN5cling14IncrementalJIT19NotifyObjectLoadedTEEEE12addModuleSetISt6vectorIPNS_6ModuleESaISA_EEEESt14_List_iteratorINS_22ObjectLinkingLayerBase15LinkedObjectSetEET_St10unique_ptrINS_19RTDyldMemoryManagerESt14default_deleteISJ_EE
   fun:_ZN5cling14IncrementalJIT31getSymbolAddressWithoutManglingEN4llvm9StringRefE
   fun:_ZN5cling19IncrementalExecutor25runStaticInitializersOnceERKNS_11TransactionE
   fun:_ZN5cling11Interpreter18executeTransactionERNS_11TransactionE
   fun:_ZN5cling17IncrementalParser17commitTransactionEN4llvm14PointerIntPairIPNS_11TransactionELj2ENS0_12EParseResultENS1_21PointerLikeTypeTraitsIS4_EEEE
   fun:_ZN5cling11InterpreterC1EiPKPKcS2_b
   fun:_ZN6TClingC1EPKcS1_
}

{
   basf2 suppression 583
   Memcheck:Leak
   fun:_Znwm
   fun:_ZNSs4_Rep9_S_createEmmRKSaIcE
   fun:_ZNSs12_S_constructIPKcEEPcT_S3_RKSaIcESt20forward_iterator_tag.part.29
   fun:_ZNSsC1EPKcRKSaIcE
   fun:_ZN19G4GeometryMessengerC1EP23G4TransportationManager
   fun:_ZN23G4TransportationManagerC1Ev
   fun:_ZN23G4TransportationManager24GetTransportationManagerEv
   fun:_ZN17G4SteppingManagerC1Ev
   fun:_ZN17G4TrackingManagerC1Ev
   fun:_ZN14G4EventManagerC1Ev
   fun:_ZN18G4RunManagerKernelC1Ev
   fun:_ZN12G4RunManagerC1Ev
}

{
   basf2 suppression 584
   Memcheck:Leak
   fun:_Znwm
   fun:_ZNSs4_Rep9_S_createEmmRKSaIcE
   fun:_ZNSs12_S_constructIPKcEEPcT_S3_RKSaIcESt20forward_iterator_tag.part.29
   fun:_ZNSsC1EPKcRKSaIcE
   fun:_ZN18G4NormalNavigationC1Ev
   fun:_ZN11G4NavigatorC1Ev
   fun:_ZN22G4VIntersectionLocatorC1EP11G4Navigator
   fun:_ZN19G4MultiLevelLocatorC1EP11G4Navigator
   fun:_ZN19G4PropagatorInFieldC1EP11G4NavigatorP14G4FieldManagerP22G4VIntersectionLocator
   fun:_ZN23G4TransportationManagerC1Ev
   fun:_ZN23G4TransportationManager24GetTransportationManagerEv
   fun:_ZN17G4SteppingManagerC1Ev
}

{
   basf2 suppression 585
   Memcheck:Leak
   fun:_Znwm
   fun:_ZNSs4_Rep9_S_createEmmRKSaIcE
   fun:_ZNSs12_S_constructIPKcEEPcT_S3_RKSaIcESt20forward_iterator_tag.part.29
   fun:_ZNSsC1EPKcRKSaIcE
   fun:_GLOBAL__sub_I_G4NeutronCaptureXS.cc
   fun:_dl_init
   fun:dl_open_worker
   fun:_dl_catch_error
   fun:_dl_open
   fun:dlopen_doit
   fun:_dl_catch_error
   fun:_dlerror_run
}

{
   basf2 suppression 586
   Memcheck:Leak
   fun:_Znwm
   fun:_ZNSs4_Rep9_S_createEmmRKSaIcE
   fun:_ZNSs12_S_constructIPKcEEPcT_S3_RKSaIcESt20forward_iterator_tag.part.29
   fun:_ZNSsC1EPKcRKSaIcE
   fun:_GLOBAL__sub_I_G4NeutronElasticXS.cc
   fun:_dl_init
   fun:dl_open_worker
   fun:_dl_catch_error
   fun:_dl_open
   fun:dlopen_doit
   fun:_dl_catch_error
   fun:_dlerror_run
}

{
   basf2 suppression 587
   Memcheck:Leak
   fun:_Znwm
   fun:_ZNSs4_Rep9_S_createEmmRKSaIcE
   fun:_ZNSs12_S_constructIPKcEEPcT_S3_RKSaIcESt20forward_iterator_tag.part.29
   fun:_ZNSsC1EPKcRKSaIcE
   fun:_GLOBAL__sub_I_G4IonINCLXXPhysics.cc
   fun:_dl_init
   fun:dl_open_worker
   fun:_dl_catch_error
   fun:_dl_open
   fun:dlopen_doit
   fun:_dl_catch_error
   fun:_dlerror_run
}

{
   basf2 suppression 588
   Memcheck:Leak
   fun:_Znwm
   fun:_ZNSs4_Rep9_S_createEmmRKSaIcE
   fun:_ZNSs12_S_constructIPKcEEPcT_S3_RKSaIcESt20forward_iterator_tag.part.29
   fun:_ZNSsC1EPKcRKSaIcE
   fun:_ZN18G4NormalNavigationC1Ev
   fun:_ZN11G4NavigatorC1Ev
   fun:_ZN23G4TransportationManagerC1Ev
   fun:_ZN23G4TransportationManager24GetTransportationManagerEv
   fun:_ZN17G4SteppingManagerC1Ev
   fun:_ZN17G4TrackingManagerC1Ev
   fun:_ZN14G4EventManagerC1Ev
   fun:_ZN18G4RunManagerKernelC1Ev
}

{
   basf2 suppression 589
   Memcheck:Leak
   fun:_Znwm
   fun:_ZNSs4_Rep9_S_createEmmRKSaIcE
   fun:_ZNSs12_S_constructIPKcEEPcT_S3_RKSaIcESt20forward_iterator_tag.part.29
   fun:_ZNSsC1EPKcRKSaIcE
   fun:_ZN18G4NormalNavigationC1Ev
   fun:_ZN11G4NavigatorC1Ev
   fun:_ZN16G4MultiNavigatorC1Ev
   fun:_ZN12G4PathFinderC1Ev
   fun:_ZN12G4PathFinder11GetInstanceEv
   fun:_ZN14G4SafetyHelper19InitialiseNavigatorEv
   fun:_ZN14G4SafetyHelper16InitialiseHelperEv
   fun:_ZN11G4VMscModel23GetParticleChangeForMSCEPK20G4ParticleDefinition
}

{
   basf2 suppression 590
   Memcheck:Leak
   fun:_Znwm
   fun:_ZNSs4_Rep9_S_createEmmRKSaIcE
   fun:_ZNSs12_S_constructIPKcEEPcT_S3_RKSaIcESt20forward_iterator_tag.part.29
   fun:_ZNSsC1EPKcRKSaIcE
   fun:_ZN18G4ChipsComponentXSC1Ev
   fun:_ZN15G4FTFParametersC1EPK20G4ParticleDefinitioniid
   fun:_ZN10G4FTFModel4InitERK9G4NucleusRK17G4DynamicParticle
   fun:_ZN20G4VPartonStringModel7ScatterERK9G4NucleusRK17G4DynamicParticle
   fun:_ZN17G4TheoFSGenerator13ApplyYourselfERK15G4HadProjectileR9G4Nucleus
   fun:_ZN17G4HadronicProcess12PostStepDoItERK7G4TrackRK6G4Step
   fun:_ZN17G4SteppingManager11InvokePSDIPEm
   fun:_ZN17G4SteppingManager23InvokePostStepDoItProcsEv
}

{
   basf2 suppression 591
   Memcheck:Leak
   fun:_Znwm
   fun:_ZNSs4_Rep9_S_createEmmRKSaIcE
   fun:_ZNSs12_S_constructIPKcEEPcT_S3_RKSaIcESt20forward_iterator_tag.part.29
   fun:_ZNSsC1EPKcRKSaIcE
   fun:_ZNK18KalmanVertexFitter17defaultParametersEv
   fun:_ZN18KalmanVertexFitterC1Eb
   fun:_ZN24ConfigurableKalmanFitterC1Ev
   fun:_ZN17ConfFitterBuilderI24ConfigurableKalmanFitterEC1ERKSsS3_
   fun:_GLOBAL__sub_I_ConfigurableKalmanFitter.cc
   fun:_dl_init
   fun:dl_open_worker
   fun:_dl_catch_error
}

{
   basf2 suppression 592
   Memcheck:Leak
   fun:_Znwm
   fun:_ZNSs4_Rep9_S_createEmmRKSaIcE
   fun:_ZNSs12_S_constructIPKcEEPcT_S3_RKSaIcESt20forward_iterator_tag.part.29
   fun:_ZNSsC1EPKcRKSaIcE
   fun:_ZN22SequentialVertexFitterILj5EE20setDefaultParametersEv
   fun:_ZN22SequentialVertexFitterILj5EEC1ERK24LinearizationPointFinderRK13VertexUpdatorILj5EERK14VertexSmootherILj5EERK18AbstractLTSFactoryILj5EE
   fun:_ZN15GsfVertexFitterC1ERKN3edm12ParameterSetERK24LinearizationPointFinder
   fun:_ZN29ConfigurableGaussianSumFilterC1Ev
   fun:_GLOBAL__sub_I_ConfigurableGaussianSumFilter.cc
   fun:_dl_init
   fun:dl_open_worker
   fun:_dl_catch_error
}

{
   basf2 suppression 593
   Memcheck:Leak
   fun:_Znwm
   fun:_ZNSs4_Rep9_S_createEmmRKSaIcE
   fun:_ZNSs12_S_constructIPKcEEPcT_S3_RKSaIcESt20forward_iterator_tag.part.29
   fun:_ZNSsC1EPKcRKSaIcE
   fun:_ZNK18KalmanVertexFitter17defaultParametersEv
   fun:_ZN18KalmanVertexFitterC1Eb
   fun:_ZN24ConfigurableKalmanFitterC1Ev
   fun:_ZN17ConfFitterBuilderI24ConfigurableKalmanFitterEC1ERKSsS3_
   fun:_GLOBAL__sub_I_ConfigurableKalmanFitter.cc
   fun:_dl_init
   fun:dl_open_worker
   fun:_dl_catch_error
}

{
   basf2 suppression 594
   Memcheck:Leak
   fun:_Znwm
   fun:_ZNSs4_Rep9_S_createEmmRKSaIcE
   fun:_ZNSs12_S_constructIPKcEEPcT_S3_RKSaIcESt20forward_iterator_tag.part.29
   fun:_ZNSsC1EPKcRKSaIcE
   fun:_ZNK18KalmanVertexFitter17defaultParametersEv
   fun:_ZN18KalmanVertexFitterC1Eb
   fun:_ZN25KalmanTrimmedVertexFinderC1Ev
   fun:_ZN31ConfigurableTrimmedKalmanFinder9configureERKN3edm12ParameterSetE
   fun:_ZN31ConfigurableTrimmedKalmanFinderC1Ev
   fun:_GLOBAL__sub_I_ConfigurableTrimmedKalmanFinder.cc
   fun:_dl_init
   fun:dl_open_worker
}

{
   basf2 suppression 595
   Memcheck:Leak
   fun:_Znwm
   fun:_ZNSs4_Rep9_S_createEmmRKSaIcE
   fun:_ZNSs12_S_constructIPKcEEPcT_S3_RKSaIcESt20forward_iterator_tag.part.29
   fun:_ZNSsC1EPKcRKSaIcE
   fun:_ZN21G4EnergyLossMessengerC1Ev
   fun:_ZN18G4LossTableManagerC1Ev
   fun:_ZN18G4LossTableManager8InstanceEv
   fun:_ZN20G4VEnergyLossProcessC1ERK8G4String13G4ProcessType
   fun:_ZN18G4MuBremsstrahlungC1ERK8G4String
   fun:_ZN19G4EmStandardPhysics16ConstructProcessEv
   fun:_ZN21G4VModularPhysicsList16ConstructProcessEv
   fun:_ZN18G4RunManagerKernel17InitializePhysicsEv
}

{
   basf2 suppression 596
   Memcheck:Leak
   fun:_Znwm
   fun:_ZNSs4_Rep9_S_createEmmRKSaIcE
   fun:_ZNSs12_S_constructIPKcEEPcT_S3_RKSaIcESt20forward_iterator_tag.part.29
   fun:_ZNSsC1EPKcRKSaIcE
   fun:_ZL17addDiagnosticArgsRN4llvm3opt7ArgListENS0_12OptSpecifierES3_RSt6vectorISsSaISsEE.constprop.364
   fun:_ZN5clang19ParseDiagnosticArgsERNS_17DiagnosticOptionsERN4llvm3opt7ArgListEPNS_17DiagnosticsEngineE
   fun:_ZN5clang18CompilerInvocation14CreateFromArgsERS0_PKPKcS5_RNS_17DiagnosticsEngineE
   fun:_ZN12_GLOBAL__N_1L12createCIImplESt10unique_ptrIN4llvm12MemoryBufferESt14default_deleteIS2_EEiPKPKcS7_b
   fun:_ZN5cling9CIFactory8createCIEN4llvm9StringRefEiPKPKcS4_
   fun:_ZN5cling17IncrementalParserC1EPNS_11InterpreterEiPKPKcS4_
   fun:_ZN5cling11InterpreterC1EiPKPKcS2_b
   fun:_ZN6TClingC1EPKcS1_
}

{
   basf2 suppression 597
   Memcheck:Leak
   fun:_Znwm
   fun:_ZNSs4_Rep9_S_createEmmRKSaIcE
   fun:_ZNSs12_S_constructIPKcEEPcT_S3_RKSaIcESt20forward_iterator_tag.part.29
   fun:_ZNSsC1EPKcmRKSaIcE
   fun:_ZN5clang12Preprocessor22RegisterBuiltinPragmasEv
   fun:_ZN5clang12PreprocessorC1EN4llvm18IntrusiveRefCntPtrINS_19PreprocessorOptionsEEERNS_17DiagnosticsEngineERNS_11LangOptionsERNS_13SourceManagerERNS_12HeaderSearchERNS_12ModuleLoaderEPNS_20IdentifierInfoLookupEbNS_19TranslationUnitKindE
   fun:_ZN5clang16CompilerInstance18createPreprocessorENS_19TranslationUnitKindE
   fun:_ZN12_GLOBAL__N_1L12createCIImplESt10unique_ptrIN4llvm12MemoryBufferESt14default_deleteIS2_EEiPKPKcS7_b
   fun:_ZN5cling9CIFactory8createCIEN4llvm9StringRefEiPKPKcS4_
   fun:_ZN5cling17IncrementalParserC1EPNS_11InterpreterEiPKPKcS4_
   fun:_ZN5cling11InterpreterC1EiPKPKcS2_b
   fun:_ZN6TClingC1EPKcS1_
}

{
   basf2 suppression 598
   Memcheck:Leak
   fun:_Znwm
   fun:_ZNSs4_Rep9_S_createEmmRKSaIcE
   fun:_ZNSs12_S_constructIPKcEEPcT_S3_RKSaIcESt20forward_iterator_tag.part.29
   fun:_ZNSsC1EPKcRKSaIcE
   fun:_GLOBAL__sub_I_G4IonElasticPhysics.cc
   fun:_dl_init
   fun:dl_open_worker
   fun:_dl_catch_error
   fun:_dl_open
   fun:dlopen_doit
   fun:_dl_catch_error
   fun:_dlerror_run
}

{
   basf2 suppression 599
   Memcheck:Leak
   fun:_Znwm
   fun:_ZNSs4_Rep9_S_createEmmRKSaIcE
   fun:_ZNSs12_S_constructIPKcEEPcT_S3_RKSaIcESt20forward_iterator_tag.part.29
   fun:_ZNSsC1EPKcRKSaIcE
   fun:_GLOBAL__sub_I_G4ImportanceBiasing.cc
   fun:_dl_init
   fun:dl_open_worker
   fun:_dl_catch_error
   fun:_dl_open
   fun:dlopen_doit
   fun:_dl_catch_error
   fun:_dlerror_run
}

{
   basf2 suppression 600
   Memcheck:Leak
   fun:_Znwm
   fun:_ZNSs4_Rep9_S_createEmmRKSaIcE
   fun:_ZNSs12_S_constructIPKcEEPcT_S3_RKSaIcESt20forward_iterator_tag.part.29
   fun:_ZNSsC1EPKcRKSaIcE
   fun:_GLOBAL__sub_I_G4EmPenelopePhysics.cc
   fun:_dl_init
   fun:dl_open_worker
   fun:_dl_catch_error
   fun:_dl_open
   fun:dlopen_doit
   fun:_dl_catch_error
   fun:_dlerror_run
}

{
   basf2 suppression 601
   Memcheck:Leak
   fun:_Znwm
   fun:_ZNSs4_Rep9_S_createEmmRKSaIcE
   fun:_ZNSs12_S_constructIPKcEEPcT_S3_RKSaIcESt20forward_iterator_tag.part.29
   fun:_ZNSsC1EPKcRKSaIcE
   fun:_GLOBAL__sub_I_G4EmStandardPhysics.cc
   fun:_dl_init
   fun:dl_open_worker
   fun:_dl_catch_error
   fun:_dl_open
   fun:dlopen_doit
   fun:_dl_catch_error
   fun:_dlerror_run
}

{
   basf2 suppression 602
   Memcheck:Leak
   fun:_Znwm
   fun:_ZNSs4_Rep9_S_createEmmRKSaIcE
   fun:_ZNSs12_S_constructIPKcEEPcT_S3_RKSaIcESt20forward_iterator_tag.part.29
   fun:_ZNSsC1EPKcRKSaIcE
   fun:_ZN18G4PhysListRegistry8InstanceEv
   fun:_GLOBAL__sub_I_G4RegisterPhysLists.cc
   fun:_dl_init
   fun:dl_open_worker
   fun:_dl_catch_error
   fun:_dl_open
   fun:dlopen_doit
   fun:_dl_catch_error
}

{
   basf2 suppression 603
   Memcheck:Leak
   fun:_Znwm
   fun:_ZNSs4_Rep9_S_createEmmRKSaIcE
   fun:_ZNSs12_S_constructIPKcEEPcT_S3_RKSaIcESt20forward_iterator_tag.part.29
   fun:_ZNSsC1EPKcRKSaIcE
   fun:_ZN21G4EnergyLossMessengerC1Ev
   fun:_ZN18G4LossTableManagerC1Ev
   fun:_ZN18G4LossTableManager8InstanceEv
   fun:_ZN20G4VEnergyLossProcessC1ERK8G4String13G4ProcessType
   fun:_ZN18G4MuBremsstrahlungC1ERK8G4String
   fun:_ZN19G4EmStandardPhysics16ConstructProcessEv
   fun:_ZN21G4VModularPhysicsList16ConstructProcessEv
   fun:_ZN18G4RunManagerKernel17InitializePhysicsEv
}

{
   basf2 suppression 604
   Memcheck:Leak
   fun:_Znwm
   fun:_ZNSs4_Rep9_S_createEmmRKSaIcE
   fun:_ZNSs12_S_constructIPKcEEPcT_S3_RKSaIcESt20forward_iterator_tag.part.29
   fun:_ZNSsC1EPKcRKSaIcE
   fun:_GLOBAL__sub_I_G4EmLivermorePhysics.cc
   fun:_dl_init
   fun:dl_open_worker
   fun:_dl_catch_error
   fun:_dl_open
   fun:dlopen_doit
   fun:_dl_catch_error
   fun:_dlerror_run
}

{
   basf2 suppression 605
   Memcheck:Leak
   fun:_Znwm
   fun:_ZNSs4_Rep9_S_createEmmRKSaIcE
   fun:_ZNSs12_S_constructIPKcEEPcT_S3_RKSaIcESt20forward_iterator_tag.part.29
   fun:_ZNSsC1EPKcRKSaIcE
   fun:_GLOBAL__sub_I_G4NeutronTrackingCut.cc
   fun:_dl_init
   fun:dl_open_worker
   fun:_dl_catch_error
   fun:_dl_open
   fun:dlopen_doit
   fun:_dl_catch_error
   fun:_dlerror_run
}

{
   basf2 suppression 606
   Memcheck:Leak
   fun:_Znwm
   fun:_ZNSs4_Rep9_S_createEmmRKSaIcE
   fun:_ZNSs12_S_constructIPKcEEPcT_S3_RKSaIcESt20forward_iterator_tag.part.29
   fun:_ZNSsC1EPKcRKSaIcE
   fun:_GLOBAL__sub_I_G4StepLimiterPhysics.cc
   fun:_dl_init
   fun:dl_open_worker
   fun:_dl_catch_error
   fun:_dl_open
   fun:dlopen_doit
   fun:_dl_catch_error
   fun:_dlerror_run
}

{
   basf2 suppression 607
   Memcheck:Leak
   fun:_Znwm
   fun:_ZNSs4_Rep9_S_createEmmRKSaIcE
   fun:_ZNSs12_S_constructIPKcEEPcT_S3_RKSaIcESt20forward_iterator_tag.part.29
   fun:_ZNSsC1EPKcRKSaIcE
   fun:_GLOBAL__sub_I_G4ChipsProtonElasticXS.cc
   fun:_dl_init
   fun:dl_open_worker
   fun:_dl_catch_error
   fun:_dl_open
   fun:dlopen_doit
   fun:_dl_catch_error
   fun:_dlerror_run
}

{
   basf2 suppression 608
   Memcheck:Leak
   fun:_Znwm
   fun:_ZNSs4_Rep9_S_createEmmRKSaIcE
   fun:_ZNSs12_S_constructIPKcEEPcT_S3_RKSaIcESt20forward_iterator_tag.part.29
   fun:_ZNSsC1EPKcRKSaIcE
   fun:_GLOBAL__sub_I_G4NeutronInelasticXS.cc
   fun:_dl_init
   fun:dl_open_worker
   fun:_dl_catch_error
   fun:_dl_open
   fun:dlopen_doit
   fun:_dl_catch_error
   fun:_dlerror_run
}

{
   basf2 suppression 609
   Memcheck:Leak
   fun:_Znwm
   fun:_ZNSs4_Rep9_S_createEmmRKSaIcE
   fun:_ZNSs12_S_constructIPKcEEPcT_S3_RKSaIcESt20forward_iterator_tag.part.29
   fun:_ZNSsC1EPKcRKSaIcE
   fun:_ZN18G4PhysListRegistry8InstanceEv
   fun:_GLOBAL__sub_I_G4RegisterPhysLists.cc
   fun:_dl_init
   fun:dl_open_worker
   fun:_dl_catch_error
   fun:_dl_open
   fun:dlopen_doit
   fun:_dl_catch_error
}

{
   basf2 suppression 610
   Memcheck:Leak
   fun:_Znwm
   fun:_ZNSs4_Rep9_S_createEmmRKSaIcE
   fun:_ZNSs12_S_constructIPKcEEPcT_S3_RKSaIcESt20forward_iterator_tag.part.29
   fun:_ZNSsC1EPKcRKSaIcE
   fun:_GLOBAL__sub_I_G4HadronPhysicsNuBeam.cc
   fun:_dl_init
   fun:dl_open_worker
   fun:_dl_catch_error
   fun:_dl_open
   fun:dlopen_doit
   fun:_dl_catch_error
   fun:_dlerror_run
}

{
   basf2 suppression 611
   Memcheck:Leak
   fun:_Znwm
   fun:_ZNSs4_Rep9_S_createEmmRKSaIcE
   fun:_ZNSs12_S_constructIPKcEEPcT_S3_RKSaIcESt20forward_iterator_tag.part.29
   fun:_ZNSsC1EPKcRKSaIcE
   fun:_GLOBAL__sub_I_G4WeightWindowBiasing.cc
   fun:_dl_init
   fun:dl_open_worker
   fun:_dl_catch_error
   fun:_dl_open
   fun:dlopen_doit
   fun:_dl_catch_error
   fun:_dlerror_run
}

{
   basf2 suppression 612
   Memcheck:Leak
   fun:_Znwm
   fun:_ZNSs4_Rep9_S_createEmmRKSaIcE
   fun:_ZNSs12_S_constructIPKcEEPcT_S3_RKSaIcESt20forward_iterator_tag.part.29
   fun:_ZNSsC1EPKcRKSaIcE
   fun:_ZN19G4GeometryMessengerC1EP23G4TransportationManager
   fun:_ZN23G4TransportationManagerC1Ev
   fun:_ZN23G4TransportationManager24GetTransportationManagerEv
   fun:_ZN17G4SteppingManagerC1Ev
   fun:_ZN17G4TrackingManagerC1Ev
   fun:_ZN14G4EventManagerC1Ev
   fun:_ZN18G4RunManagerKernelC1Ev
   fun:_ZN12G4RunManagerC1Ev
}

{
   basf2 suppression 613
   Memcheck:Leak
   fun:_Znwm
   fun:_ZNSs4_Rep9_S_createEmmRKSaIcE
   fun:_ZNSs12_S_constructIPKcEEPcT_S3_RKSaIcESt20forward_iterator_tag.part.29
   fun:_ZNSsC1EPKcRKSaIcE
   fun:_GLOBAL__sub_I_G4ChipsHyperonElasticXS.cc
   fun:_dl_init
   fun:dl_open_worker
   fun:_dl_catch_error
   fun:_dl_open
   fun:dlopen_doit
   fun:_dl_catch_error
   fun:_dlerror_run
}

{
   basf2 suppression 614
   Memcheck:Leak
   fun:_Znwm
   fun:_ZNSs4_Rep9_S_createEmmRKSaIcE
   fun:_ZNSs12_S_constructIPKcEEPcT_S3_RKSaIcESt20forward_iterator_tag.part.29
   fun:_ZNSsC1EPKcRKSaIcE
   fun:_GLOBAL__sub_I_G4ChipsNeutronElasticXS.cc
   fun:_dl_init
   fun:dl_open_worker
   fun:_dl_catch_error
   fun:_dl_open
   fun:dlopen_doit
   fun:_dl_catch_error
   fun:_dlerror_run
}

{
   basf2 suppression 615
   Memcheck:Leak
   fun:_Znwm
   fun:_ZNSs4_Rep9_S_createEmmRKSaIcE
   fun:_ZNSs12_S_constructIPKcEEPcT_S3_RKSaIcESt20forward_iterator_tag.part.29
   fun:_ZNSsC1EPKcRKSaIcE
   fun:_GLOBAL__sub_I_G4EmStandardPhysicsSS.cc
   fun:_dl_init
   fun:dl_open_worker
   fun:_dl_catch_error
   fun:_dl_open
   fun:dlopen_doit
   fun:_dl_catch_error
   fun:_dlerror_run
}

{
   basf2 suppression 616
   Memcheck:Leak
   fun:_Znwm
   fun:_ZNSs4_Rep9_S_createEmmRKSaIcE
   fun:_ZNSs12_S_constructIPKcEEPcT_S3_RKSaIcESt20forward_iterator_tag.part.29
   fun:_ZNSsC1EPKcRKSaIcE
   fun:_GLOBAL__sub_I_G4HadronInelasticQBBC.cc
   fun:_dl_init
   fun:dl_open_worker
   fun:_dl_catch_error
   fun:_dl_open
   fun:dlopen_doit
   fun:_dl_catch_error
   fun:_dlerror_run
}

{
   basf2 suppression 617
   Memcheck:Leak
   fun:_Znwm
   fun:_ZNSs4_Rep9_S_createEmmRKSaIcE
   fun:_ZNSs12_S_constructIPKcEEPcT_S3_RKSaIcESt20forward_iterator_tag.part.29
   fun:_ZNSsC1EPKcRKSaIcE
   fun:_GLOBAL__sub_I_G4HadronPhysicsINCLXX.cc
   fun:_dl_init
   fun:dl_open_worker
   fun:_dl_catch_error
   fun:_dl_open
   fun:dlopen_doit
   fun:_dl_catch_error
   fun:_dlerror_run
}

{
   basf2 suppression 618
   Memcheck:Leak
   fun:_Znwm
   fun:_ZNSs4_Rep9_S_createEmmRKSaIcE
   fun:_ZNSs12_S_constructIPKcEEPcT_S3_RKSaIcESt20forward_iterator_tag.part.29
   fun:_ZNSsC1EPKcRKSaIcE
   fun:_GLOBAL__sub_I_G4HadronPhysicsQGS_BIC.cc
   fun:_dl_init
   fun:dl_open_worker
   fun:_dl_catch_error
   fun:_dl_open
   fun:dlopen_doit
   fun:_dl_catch_error
   fun:_dlerror_run
}

{
   basf2 suppression 619
   Memcheck:Leak
   fun:_Znwm
   fun:_ZNSs4_Rep9_S_createEmmRKSaIcE
   fun:_ZNSs12_S_constructIPKcEEPcT_S3_RKSaIcESt20forward_iterator_tag.part.29
   fun:_ZNSsC1EPKcRKSaIcE
   fun:_GLOBAL__sub_I_G4ParallelWorldPhysics.cc
   fun:_dl_init
   fun:dl_open_worker
   fun:_dl_catch_error
   fun:_dl_open
   fun:dlopen_doit
   fun:_dl_catch_error
   fun:_dlerror_run
}

{
   basf2 suppression 620
   Memcheck:Leak
   fun:_Znwm
   fun:_ZNSs4_Rep9_S_createEmmRKSaIcE
   fun:_ZNSs12_S_constructIPKcEEPcT_S3_RKSaIcESt20forward_iterator_tag.part.29
   fun:_ZNSsC1EPKcRKSaIcE
   fun:_GLOBAL__sub_I_G4ChipsKaonPlusElasticXS.cc
   fun:_dl_init
   fun:dl_open_worker
   fun:_dl_catch_error
   fun:_dl_open
   fun:dlopen_doit
   fun:_dl_catch_error
   fun:_dlerror_run
}

{
   basf2 suppression 621
   Memcheck:Leak
   fun:_Znwm
   fun:_ZNSs4_Rep9_S_createEmmRKSaIcE
   fun:_ZNSs12_S_constructIPKcEEPcT_S3_RKSaIcESt20forward_iterator_tag.part.29
   fun:_ZNSsC1EPKcRKSaIcE
   fun:_GLOBAL__sub_I_G4ChipsKaonZeroElasticXS.cc
   fun:_dl_init
   fun:dl_open_worker
   fun:_dl_catch_error
   fun:_dl_open
   fun:dlopen_doit
   fun:_dl_catch_error
   fun:_dlerror_run
}

{
   basf2 suppression 622
   Memcheck:Leak
   fun:_Znwm
   fun:_ZNSs4_Rep9_S_createEmmRKSaIcE
   fun:_ZNSs12_S_constructIPKcEEPcT_S3_RKSaIcESt20forward_iterator_tag.part.29
   fun:_ZNSsC1EPKcRKSaIcE
   fun:_GLOBAL__sub_I_G4ChipsPionPlusElasticXS.cc
   fun:_dl_init
   fun:dl_open_worker
   fun:_dl_catch_error
   fun:_dl_open
   fun:dlopen_doit
   fun:_dl_catch_error
   fun:_dlerror_run
}

{
   basf2 suppression 623
   Memcheck:Leak
   fun:_Znwm
   fun:_ZNSs4_Rep9_S_createEmmRKSaIcE
   fun:_ZNSs12_S_constructIPKcEEPcT_S3_RKSaIcESt20forward_iterator_tag.part.29
   fun:_ZNSsC1EPKcRKSaIcE
   fun:_GLOBAL__sub_I_G4ChipsProtonInelasticXS.cc
   fun:_dl_init
   fun:dl_open_worker
   fun:_dl_catch_error
   fun:_dl_open
   fun:dlopen_doit
   fun:_dl_catch_error
   fun:_dlerror_run
}

{
   basf2 suppression 624
   Memcheck:Leak
   fun:_Znwm
   fun:_ZNSs4_Rep9_S_createEmmRKSaIcE
   fun:_ZNSs12_S_constructIPKcEEPcT_S3_RKSaIcESt20forward_iterator_tag.part.29
   fun:_ZNSsC1EPKcRKSaIcE
   fun:_GLOBAL__sub_I_G4EmDNAPhysics_option1.cc
   fun:_dl_init
   fun:dl_open_worker
   fun:_dl_catch_error
   fun:_dl_open
   fun:dlopen_doit
   fun:_dl_catch_error
   fun:_dlerror_run
}

{
   basf2 suppression 625
   Memcheck:Leak
   fun:_Znwm
   fun:_ZNSs4_Rep9_S_createEmmRKSaIcE
   fun:_ZNSs12_S_constructIPKcEEPcT_S3_RKSaIcESt20forward_iterator_tag.part.29
   fun:_ZNSsC1EPKcRKSaIcE
   fun:_GLOBAL__sub_I_G4EmStandardPhysicsWVI.cc
   fun:_dl_init
   fun:dl_open_worker
   fun:_dl_catch_error
   fun:_dl_open
   fun:dlopen_doit
   fun:_dl_catch_error
   fun:_dlerror_run
}

{
   basf2 suppression 626
   Memcheck:Leak
   fun:_Znwm
   fun:_ZNSs4_Rep9_S_createEmmRKSaIcE
   fun:_ZNSs12_S_constructIPKcEEPcT_S3_RKSaIcESt20forward_iterator_tag.part.29
   fun:_ZNSsC1EPKcRKSaIcE
   fun:_GLOBAL__sub_I_G4HadronElasticPhysics.cc
   fun:_dl_init
   fun:dl_open_worker
   fun:_dl_catch_error
   fun:_dl_open
   fun:dlopen_doit
   fun:_dl_catch_error
   fun:_dlerror_run
}

{
   basf2 suppression 627
   Memcheck:Leak
   fun:_Znwm
   fun:_ZNSs4_Rep9_S_createEmmRKSaIcE
   fun:_ZNSs12_S_constructIPKcEEPcT_S3_RKSaIcESt20forward_iterator_tag.part.29
   fun:_ZNSsC1EPKcRKSaIcE
   fun:_GLOBAL__sub_I_G4HadronPhysicsFTF_BIC.cc
   fun:_dl_init
   fun:dl_open_worker
   fun:_dl_catch_error
   fun:_dl_open
   fun:dlopen_doit
   fun:_dl_catch_error
   fun:_dlerror_run
}

{
   basf2 suppression 628
   Memcheck:Leak
   fun:malloc
   obj:/lib64/libnspr4.so
   obj:/lib64/libnspr4.so
   fun:PR_OpenFile
   obj:/lib64/libfreebl3.so
   obj:/lib64/libfreebl3.so
   obj:/lib64/libfreebl3.so
   obj:/lib64/libfreebl3.so
   obj:/lib64/libfreebl3.so
   obj:*
   obj:*
   obj:*
}

{
   basf2 suppression 629
   Memcheck:Leak
   fun:malloc
   fun:_PyObject_GC_Malloc
   fun:_PyObject_GC_NewVar
   fun:PyTuple_New
   fun:PyType_Ready
   fun:_Py_ReadyTypes
   fun:_Py_InitializeEx_Private
   fun:main
}

{
   basf2 suppression 630
   Memcheck:Leak
   fun:_Znwm
   fun:_ZNSs4_Rep9_S_createEmmRKSaIcE
   fun:_ZNSs12_S_constructIPKcEEPcT_S3_RKSaIcESt20forward_iterator_tag.part.29
   fun:_ZNSsC1EPKcRKSaIcE
   fun:_GLOBAL__sub_I_G4HadronHElasticPhysics.cc
   fun:_dl_init
   fun:dl_open_worker
   fun:_dl_catch_error
   fun:_dl_open
   fun:dlopen_doit
   fun:_dl_catch_error
   fun:_dlerror_run
}

{
   basf2 suppression 631
   Memcheck:Leak
   fun:_Znwm
   fun:_ZNSs4_Rep9_S_createEmmRKSaIcE
   fun:_ZNSs12_S_constructIPKcEEPcT_S3_RKSaIcESt20forward_iterator_tag.part.29
   fun:_ZNSsC1EPKcRKSaIcE
   fun:_GLOBAL__sub_I_G4GenericBiasingPhysics.cc
   fun:_dl_init
   fun:dl_open_worker
   fun:_dl_catch_error
   fun:_dl_open
   fun:dlopen_doit
   fun:_dl_catch_error
   fun:_dlerror_run
}

{
   basf2 suppression 632
   Memcheck:Leak
   fun:malloc
   fun:PyCapsule_New
   fun:set_typeinfo
   fun:PyInit_multiarray
   fun:_PyImport_LoadDynamicModuleWithSpec
   fun:_imp_create_dynamic
   fun:PyCFunction_Call
   fun:PyEval_EvalFrameEx
   fun:_PyEval_EvalCodeWithName
   fun:PyEval_EvalFrameEx
   fun:PyEval_EvalFrameEx
   fun:PyEval_EvalFrameEx
}

{
   basf2 suppression 633
   Memcheck:Leak
   fun:malloc
   fun:PyCapsule_New
   fun:set_typeinfo
   fun:PyInit_multiarray
   fun:_PyImport_LoadDynamicModuleWithSpec
   fun:_imp_create_dynamic
   fun:PyCFunction_Call
   fun:PyEval_EvalFrameEx
   fun:_PyEval_EvalCodeWithName
   fun:PyEval_EvalFrameEx
   fun:PyEval_EvalFrameEx
   fun:PyEval_EvalFrameEx
}

{
   basf2 suppression 634
   Memcheck:Leak
   fun:malloc
   fun:PyCapsule_New
   fun:set_typeinfo
   fun:PyInit_multiarray
   fun:_PyImport_LoadDynamicModuleWithSpec
   fun:_imp_create_dynamic
   fun:PyCFunction_Call
   fun:PyEval_EvalFrameEx
   fun:_PyEval_EvalCodeWithName
   fun:PyEval_EvalFrameEx
   fun:PyEval_EvalFrameEx
   fun:PyEval_EvalFrameEx
}

{
   basf2 suppression 635
   Memcheck:Leak
   fun:malloc
   fun:PyCapsule_New
   fun:set_typeinfo
   fun:PyInit_multiarray
   fun:_PyImport_LoadDynamicModuleWithSpec
   fun:_imp_create_dynamic
   fun:PyCFunction_Call
   fun:PyEval_EvalFrameEx
   fun:_PyEval_EvalCodeWithName
   fun:PyEval_EvalFrameEx
   fun:PyEval_EvalFrameEx
   fun:PyEval_EvalFrameEx
}

{
   basf2 suppression 636
   Memcheck:Leak
   fun:malloc
   fun:PyCapsule_New
   fun:set_typeinfo
   fun:PyInit_multiarray
   fun:_PyImport_LoadDynamicModuleWithSpec
   fun:_imp_create_dynamic
   fun:PyCFunction_Call
   fun:PyEval_EvalFrameEx
   fun:_PyEval_EvalCodeWithName
   fun:PyEval_EvalFrameEx
   fun:PyEval_EvalFrameEx
   fun:PyEval_EvalFrameEx
}

{
   basf2 suppression 637
   Memcheck:Leak
   fun:malloc
   fun:PyCapsule_New
   fun:set_typeinfo
   fun:PyInit_multiarray
   fun:_PyImport_LoadDynamicModuleWithSpec
   fun:_imp_create_dynamic
   fun:PyCFunction_Call
   fun:PyEval_EvalFrameEx
   fun:_PyEval_EvalCodeWithName
   fun:PyEval_EvalFrameEx
   fun:PyEval_EvalFrameEx
   fun:PyEval_EvalFrameEx
}

{
   basf2 suppression 638
   Memcheck:Leak
   fun:malloc
   fun:PyCapsule_New
   fun:set_typeinfo
   fun:PyInit_multiarray
   fun:_PyImport_LoadDynamicModuleWithSpec
   fun:_imp_create_dynamic
   fun:PyCFunction_Call
   fun:PyEval_EvalFrameEx
   fun:_PyEval_EvalCodeWithName
   fun:PyEval_EvalFrameEx
   fun:PyEval_EvalFrameEx
   fun:PyEval_EvalFrameEx
}

{
   basf2 suppression 639
   Memcheck:Leak
   fun:malloc
   fun:PyCapsule_New
   fun:set_typeinfo
   fun:PyInit_multiarray
   fun:_PyImport_LoadDynamicModuleWithSpec
   fun:_imp_create_dynamic
   fun:PyCFunction_Call
   fun:PyEval_EvalFrameEx
   fun:_PyEval_EvalCodeWithName
   fun:PyEval_EvalFrameEx
   fun:PyEval_EvalFrameEx
   fun:PyEval_EvalFrameEx
}

{
   basf2 suppression 640
   Memcheck:Leak
   fun:malloc
   fun:PyCapsule_New
   fun:set_typeinfo
   fun:PyInit_multiarray
   fun:_PyImport_LoadDynamicModuleWithSpec
   fun:_imp_create_dynamic
   fun:PyCFunction_Call
   fun:PyEval_EvalFrameEx
   fun:_PyEval_EvalCodeWithName
   fun:PyEval_EvalFrameEx
   fun:PyEval_EvalFrameEx
   fun:PyEval_EvalFrameEx
}

{
   basf2 suppression 641
   Memcheck:Leak
   fun:malloc
   fun:PyCapsule_New
   fun:set_typeinfo
   fun:PyInit_multiarray
   fun:_PyImport_LoadDynamicModuleWithSpec
   fun:_imp_create_dynamic
   fun:PyCFunction_Call
   fun:PyEval_EvalFrameEx
   fun:_PyEval_EvalCodeWithName
   fun:PyEval_EvalFrameEx
   fun:PyEval_EvalFrameEx
   fun:PyEval_EvalFrameEx
}

{
   basf2 suppression 642
   Memcheck:Leak
   fun:malloc
   fun:PyCapsule_New
   fun:set_typeinfo
   fun:PyInit_multiarray
   fun:_PyImport_LoadDynamicModuleWithSpec
   fun:_imp_create_dynamic
   fun:PyCFunction_Call
   fun:PyEval_EvalFrameEx
   fun:_PyEval_EvalCodeWithName
   fun:PyEval_EvalFrameEx
   fun:PyEval_EvalFrameEx
   fun:PyEval_EvalFrameEx
}

{
   basf2 suppression 643
   Memcheck:Leak
   fun:malloc
   fun:PyCapsule_New
   fun:set_typeinfo
   fun:PyInit_multiarray
   fun:_PyImport_LoadDynamicModuleWithSpec
   fun:_imp_create_dynamic
   fun:PyCFunction_Call
   fun:PyEval_EvalFrameEx
   fun:_PyEval_EvalCodeWithName
   fun:PyEval_EvalFrameEx
   fun:PyEval_EvalFrameEx
   fun:PyEval_EvalFrameEx
}

{
   basf2 suppression 644
   Memcheck:Leak
   fun:malloc
   fun:PyCapsule_New
   fun:set_typeinfo
   fun:PyInit_multiarray
   fun:_PyImport_LoadDynamicModuleWithSpec
   fun:_imp_create_dynamic
   fun:PyCFunction_Call
   fun:PyEval_EvalFrameEx
   fun:_PyEval_EvalCodeWithName
   fun:PyEval_EvalFrameEx
   fun:PyEval_EvalFrameEx
   fun:PyEval_EvalFrameEx
}

{
   basf2 suppression 645
   Memcheck:Leak
   fun:malloc
   fun:PyCapsule_New
   fun:set_typeinfo
   fun:PyInit_multiarray
   fun:_PyImport_LoadDynamicModuleWithSpec
   fun:_imp_create_dynamic
   fun:PyCFunction_Call
   fun:PyEval_EvalFrameEx
   fun:_PyEval_EvalCodeWithName
   fun:PyEval_EvalFrameEx
   fun:PyEval_EvalFrameEx
   fun:PyEval_EvalFrameEx
}

{
   basf2 suppression 646
   Memcheck:Leak
   fun:malloc
   fun:PyCapsule_New
   fun:set_typeinfo
   fun:PyInit_multiarray
   fun:_PyImport_LoadDynamicModuleWithSpec
   fun:_imp_create_dynamic
   fun:PyCFunction_Call
   fun:PyEval_EvalFrameEx
   fun:_PyEval_EvalCodeWithName
   fun:PyEval_EvalFrameEx
   fun:PyEval_EvalFrameEx
   fun:PyEval_EvalFrameEx
}

{
   basf2 suppression 647
   Memcheck:Leak
   fun:malloc
   fun:PyCapsule_New
   fun:set_typeinfo
   fun:PyInit_multiarray
   fun:_PyImport_LoadDynamicModuleWithSpec
   fun:_imp_create_dynamic
   fun:PyCFunction_Call
   fun:PyEval_EvalFrameEx
   fun:_PyEval_EvalCodeWithName
   fun:PyEval_EvalFrameEx
   fun:PyEval_EvalFrameEx
   fun:PyEval_EvalFrameEx
}

{
   basf2 suppression 648
   Memcheck:Leak
   fun:malloc
   fun:PyCapsule_New
   fun:set_typeinfo
   fun:PyInit_multiarray
   fun:_PyImport_LoadDynamicModuleWithSpec
   fun:_imp_create_dynamic
   fun:PyCFunction_Call
   fun:PyEval_EvalFrameEx
   fun:_PyEval_EvalCodeWithName
   fun:PyEval_EvalFrameEx
   fun:PyEval_EvalFrameEx
   fun:PyEval_EvalFrameEx
}

{
   basf2 suppression 649
   Memcheck:Leak
   fun:malloc
   fun:PyCapsule_New
   fun:set_typeinfo
   fun:PyInit_multiarray
   fun:_PyImport_LoadDynamicModuleWithSpec
   fun:_imp_create_dynamic
   fun:PyCFunction_Call
   fun:PyEval_EvalFrameEx
   fun:_PyEval_EvalCodeWithName
   fun:PyEval_EvalFrameEx
   fun:PyEval_EvalFrameEx
   fun:PyEval_EvalFrameEx
}

{
   basf2 suppression 650
   Memcheck:Leak
   fun:malloc
   fun:PyCapsule_New
   fun:set_typeinfo
   fun:PyInit_multiarray
   fun:_PyImport_LoadDynamicModuleWithSpec
   fun:_imp_create_dynamic
   fun:PyCFunction_Call
   fun:PyEval_EvalFrameEx
   fun:_PyEval_EvalCodeWithName
   fun:PyEval_EvalFrameEx
   fun:PyEval_EvalFrameEx
   fun:PyEval_EvalFrameEx
}

{
   basf2 suppression 651
   Memcheck:Leak
   fun:malloc
   fun:PyCapsule_New
   fun:set_typeinfo
   fun:PyInit_multiarray
   fun:_PyImport_LoadDynamicModuleWithSpec
   fun:_imp_create_dynamic
   fun:PyCFunction_Call
   fun:PyEval_EvalFrameEx
   fun:_PyEval_EvalCodeWithName
   fun:PyEval_EvalFrameEx
   fun:PyEval_EvalFrameEx
   fun:PyEval_EvalFrameEx
}

{
   basf2 suppression 652
   Memcheck:Leak
   fun:malloc
   fun:PyCapsule_New
   fun:set_typeinfo
   fun:PyInit_multiarray
   fun:_PyImport_LoadDynamicModuleWithSpec
   fun:_imp_create_dynamic
   fun:PyCFunction_Call
   fun:PyEval_EvalFrameEx
   fun:_PyEval_EvalCodeWithName
   fun:PyEval_EvalFrameEx
   fun:PyEval_EvalFrameEx
   fun:PyEval_EvalFrameEx
}

{
   basf2 suppression 653
   Memcheck:Leak
   fun:malloc
   fun:PyCapsule_New
   fun:set_typeinfo
   fun:PyInit_multiarray
   fun:_PyImport_LoadDynamicModuleWithSpec
   fun:_imp_create_dynamic
   fun:PyCFunction_Call
   fun:PyEval_EvalFrameEx
   fun:_PyEval_EvalCodeWithName
   fun:PyEval_EvalFrameEx
   fun:PyEval_EvalFrameEx
   fun:PyEval_EvalFrameEx
}

{
   basf2 suppression 654
   Memcheck:Leak
   fun:malloc
   fun:PyCapsule_New
   fun:set_typeinfo
   fun:PyInit_multiarray
   fun:_PyImport_LoadDynamicModuleWithSpec
   fun:_imp_create_dynamic
   fun:PyCFunction_Call
   fun:PyEval_EvalFrameEx
   fun:_PyEval_EvalCodeWithName
   fun:PyEval_EvalFrameEx
   fun:PyEval_EvalFrameEx
   fun:PyEval_EvalFrameEx
}

{
   basf2 suppression 655
   Memcheck:Leak
   fun:malloc
   fun:PyCapsule_New
   fun:set_typeinfo
   fun:PyInit_multiarray
   fun:_PyImport_LoadDynamicModuleWithSpec
   fun:_imp_create_dynamic
   fun:PyCFunction_Call
   fun:PyEval_EvalFrameEx
   fun:_PyEval_EvalCodeWithName
   fun:PyEval_EvalFrameEx
   fun:PyEval_EvalFrameEx
   fun:PyEval_EvalFrameEx
}

{
   basf2 suppression 656
   Memcheck:Leak
   fun:malloc
   fun:PyCapsule_New
   fun:set_typeinfo
   fun:PyInit_multiarray
   fun:_PyImport_LoadDynamicModuleWithSpec
   fun:_imp_create_dynamic
   fun:PyCFunction_Call
   fun:PyEval_EvalFrameEx
   fun:_PyEval_EvalCodeWithName
   fun:PyEval_EvalFrameEx
   fun:PyEval_EvalFrameEx
   fun:PyEval_EvalFrameEx
}

{
   basf2 suppression 657
   Memcheck:Leak
   fun:malloc
   fun:PyCapsule_New
   fun:set_typeinfo
   fun:PyInit_multiarray
   fun:_PyImport_LoadDynamicModuleWithSpec
   fun:_imp_create_dynamic
   fun:PyCFunction_Call
   fun:PyEval_EvalFrameEx
   fun:_PyEval_EvalCodeWithName
   fun:PyEval_EvalFrameEx
   fun:PyEval_EvalFrameEx
   fun:PyEval_EvalFrameEx
}

{
   basf2 suppression 658
   Memcheck:Leak
   fun:malloc
   fun:PyCapsule_New
   fun:set_typeinfo
   fun:PyInit_multiarray
   fun:_PyImport_LoadDynamicModuleWithSpec
   fun:_imp_create_dynamic
   fun:PyCFunction_Call
   fun:PyEval_EvalFrameEx
   fun:_PyEval_EvalCodeWithName
   fun:PyEval_EvalFrameEx
   fun:PyEval_EvalFrameEx
   fun:PyEval_EvalFrameEx
}

{
   basf2 suppression 659
   Memcheck:Leak
   fun:malloc
   fun:PyCapsule_New
   fun:set_typeinfo
   fun:PyInit_multiarray
   fun:_PyImport_LoadDynamicModuleWithSpec
   fun:_imp_create_dynamic
   fun:PyCFunction_Call
   fun:PyEval_EvalFrameEx
   fun:_PyEval_EvalCodeWithName
   fun:PyEval_EvalFrameEx
   fun:PyEval_EvalFrameEx
   fun:PyEval_EvalFrameEx
}

{
   basf2 suppression 660
   Memcheck:Leak
   fun:malloc
   fun:PyCapsule_New
   fun:set_typeinfo
   fun:PyInit_multiarray
   fun:_PyImport_LoadDynamicModuleWithSpec
   fun:_imp_create_dynamic
   fun:PyCFunction_Call
   fun:PyEval_EvalFrameEx
   fun:_PyEval_EvalCodeWithName
   fun:PyEval_EvalFrameEx
   fun:PyEval_EvalFrameEx
   fun:PyEval_EvalFrameEx
}

{
   basf2 suppression 661
   Memcheck:Leak
   fun:malloc
   fun:PyCapsule_New
   fun:set_typeinfo
   fun:PyInit_multiarray
   fun:_PyImport_LoadDynamicModuleWithSpec
   fun:_imp_create_dynamic
   fun:PyCFunction_Call
   fun:PyEval_EvalFrameEx
   fun:_PyEval_EvalCodeWithName
   fun:PyEval_EvalFrameEx
   fun:PyEval_EvalFrameEx
   fun:PyEval_EvalFrameEx
}

{
   basf2 suppression 662
   Memcheck:Leak
   fun:malloc
   fun:PyCapsule_New
   fun:set_typeinfo
   fun:PyInit_multiarray
   fun:_PyImport_LoadDynamicModuleWithSpec
   fun:_imp_create_dynamic
   fun:PyCFunction_Call
   fun:PyEval_EvalFrameEx
   fun:_PyEval_EvalCodeWithName
   fun:PyEval_EvalFrameEx
   fun:PyEval_EvalFrameEx
   fun:PyEval_EvalFrameEx
}

{
   basf2 suppression 663
   Memcheck:Leak
   fun:malloc
   fun:PyCapsule_New
   fun:set_typeinfo
   fun:PyInit_multiarray
   fun:_PyImport_LoadDynamicModuleWithSpec
   fun:_imp_create_dynamic
   fun:PyCFunction_Call
   fun:PyEval_EvalFrameEx
   fun:_PyEval_EvalCodeWithName
   fun:PyEval_EvalFrameEx
   fun:PyEval_EvalFrameEx
   fun:PyEval_EvalFrameEx
}

{
   basf2 suppression 664
   Memcheck:Leak
   fun:malloc
   fun:PyCapsule_New
   fun:set_typeinfo
   fun:PyInit_multiarray
   fun:_PyImport_LoadDynamicModuleWithSpec
   fun:_imp_create_dynamic
   fun:PyCFunction_Call
   fun:PyEval_EvalFrameEx
   fun:_PyEval_EvalCodeWithName
   fun:PyEval_EvalFrameEx
   fun:PyEval_EvalFrameEx
   fun:PyEval_EvalFrameEx
}

{
   basf2 suppression 665
   Memcheck:Leak
   fun:malloc
   fun:PyCapsule_New
   fun:set_typeinfo
   fun:PyInit_multiarray
   fun:_PyImport_LoadDynamicModuleWithSpec
   fun:_imp_create_dynamic
   fun:PyCFunction_Call
   fun:PyEval_EvalFrameEx
   fun:_PyEval_EvalCodeWithName
   fun:PyEval_EvalFrameEx
   fun:PyEval_EvalFrameEx
   fun:PyEval_EvalFrameEx
}

{
   basf2 suppression 666
   Memcheck:Leak
   fun:malloc
   fun:PyCapsule_New
   fun:set_typeinfo
   fun:PyInit_multiarray
   fun:_PyImport_LoadDynamicModuleWithSpec
   fun:_imp_create_dynamic
   fun:PyCFunction_Call
   fun:PyEval_EvalFrameEx
   fun:_PyEval_EvalCodeWithName
   fun:PyEval_EvalFrameEx
   fun:PyEval_EvalFrameEx
   fun:PyEval_EvalFrameEx
}

{
   basf2 suppression 667
   Memcheck:Leak
   fun:malloc
   fun:PyCapsule_New
   fun:set_typeinfo
   fun:PyInit_multiarray
   fun:_PyImport_LoadDynamicModuleWithSpec
   fun:_imp_create_dynamic
   fun:PyCFunction_Call
   fun:PyEval_EvalFrameEx
   fun:_PyEval_EvalCodeWithName
   fun:PyEval_EvalFrameEx
   fun:PyEval_EvalFrameEx
   fun:PyEval_EvalFrameEx
}

{
   basf2 suppression 668
   Memcheck:Leak
   fun:malloc
   fun:PyCapsule_New
   fun:set_typeinfo
   fun:PyInit_multiarray
   fun:_PyImport_LoadDynamicModuleWithSpec
   fun:_imp_create_dynamic
   fun:PyCFunction_Call
   fun:PyEval_EvalFrameEx
   fun:_PyEval_EvalCodeWithName
   fun:PyEval_EvalFrameEx
   fun:PyEval_EvalFrameEx
   fun:PyEval_EvalFrameEx
}

{
   basf2 suppression 669
   Memcheck:Leak
   fun:malloc
   fun:PyCapsule_New
   fun:set_typeinfo
   fun:PyInit_multiarray
   fun:_PyImport_LoadDynamicModuleWithSpec
   fun:_imp_create_dynamic
   fun:PyCFunction_Call
   fun:PyEval_EvalFrameEx
   fun:_PyEval_EvalCodeWithName
   fun:PyEval_EvalFrameEx
   fun:PyEval_EvalFrameEx
   fun:PyEval_EvalFrameEx
}

{
   basf2 suppression 670
   Memcheck:Leak
   fun:malloc
   fun:PyCapsule_New
   fun:set_typeinfo
   fun:PyInit_multiarray
   fun:_PyImport_LoadDynamicModuleWithSpec
   fun:_imp_create_dynamic
   fun:PyCFunction_Call
   fun:PyEval_EvalFrameEx
   fun:_PyEval_EvalCodeWithName
   fun:PyEval_EvalFrameEx
   fun:PyEval_EvalFrameEx
   fun:PyEval_EvalFrameEx
}

{
   basf2 suppression 671
   Memcheck:Leak
   fun:malloc
   fun:PyCapsule_New
   fun:set_typeinfo
   fun:PyInit_multiarray
   fun:_PyImport_LoadDynamicModuleWithSpec
   fun:_imp_create_dynamic
   fun:PyCFunction_Call
   fun:PyEval_EvalFrameEx
   fun:_PyEval_EvalCodeWithName
   fun:PyEval_EvalFrameEx
   fun:PyEval_EvalFrameEx
   fun:PyEval_EvalFrameEx
}

{
   basf2 suppression 672
   Memcheck:Leak
   fun:malloc
   fun:PyCapsule_New
   fun:set_typeinfo
   fun:PyInit_multiarray
   fun:_PyImport_LoadDynamicModuleWithSpec
   fun:_imp_create_dynamic
   fun:PyCFunction_Call
   fun:PyEval_EvalFrameEx
   fun:_PyEval_EvalCodeWithName
   fun:PyEval_EvalFrameEx
   fun:PyEval_EvalFrameEx
   fun:PyEval_EvalFrameEx
}

{
   basf2 suppression 673
   Memcheck:Leak
   fun:malloc
   fun:PyCapsule_New
   fun:set_typeinfo
   fun:PyInit_multiarray
   fun:_PyImport_LoadDynamicModuleWithSpec
   fun:_imp_create_dynamic
   fun:PyCFunction_Call
   fun:PyEval_EvalFrameEx
   fun:_PyEval_EvalCodeWithName
   fun:PyEval_EvalFrameEx
   fun:PyEval_EvalFrameEx
   fun:PyEval_EvalFrameEx
}

{
   basf2 suppression 674
   Memcheck:Leak
   fun:malloc
   fun:PyCapsule_New
   fun:set_typeinfo
   fun:PyInit_multiarray
   fun:_PyImport_LoadDynamicModuleWithSpec
   fun:_imp_create_dynamic
   fun:PyCFunction_Call
   fun:PyEval_EvalFrameEx
   fun:_PyEval_EvalCodeWithName
   fun:PyEval_EvalFrameEx
   fun:PyEval_EvalFrameEx
   fun:PyEval_EvalFrameEx
}

{
   basf2 suppression 675
   Memcheck:Leak
   fun:malloc
   fun:PyCapsule_New
   fun:set_typeinfo
   fun:PyInit_multiarray
   fun:_PyImport_LoadDynamicModuleWithSpec
   fun:_imp_create_dynamic
   fun:PyCFunction_Call
   fun:PyEval_EvalFrameEx
   fun:_PyEval_EvalCodeWithName
   fun:PyEval_EvalFrameEx
   fun:PyEval_EvalFrameEx
   fun:PyEval_EvalFrameEx
}

{
   basf2 suppression 676
   Memcheck:Leak
   fun:malloc
   fun:PyCapsule_New
   fun:set_typeinfo
   fun:PyInit_multiarray
   fun:_PyImport_LoadDynamicModuleWithSpec
   fun:_imp_create_dynamic
   fun:PyCFunction_Call
   fun:PyEval_EvalFrameEx
   fun:_PyEval_EvalCodeWithName
   fun:PyEval_EvalFrameEx
   fun:PyEval_EvalFrameEx
   fun:PyEval_EvalFrameEx
}

{
   basf2 suppression 677
   Memcheck:Leak
   fun:malloc
   fun:PyCapsule_New
   fun:set_typeinfo
   fun:PyInit_multiarray
   fun:_PyImport_LoadDynamicModuleWithSpec
   fun:_imp_create_dynamic
   fun:PyCFunction_Call
   fun:PyEval_EvalFrameEx
   fun:_PyEval_EvalCodeWithName
   fun:PyEval_EvalFrameEx
   fun:PyEval_EvalFrameEx
   fun:PyEval_EvalFrameEx
}

{
   basf2 suppression 678
   Memcheck:Leak
   fun:malloc
   fun:PyCapsule_New
   fun:set_typeinfo
   fun:PyInit_multiarray
   fun:_PyImport_LoadDynamicModuleWithSpec
   fun:_imp_create_dynamic
   fun:PyCFunction_Call
   fun:PyEval_EvalFrameEx
   fun:_PyEval_EvalCodeWithName
   fun:PyEval_EvalFrameEx
   fun:PyEval_EvalFrameEx
   fun:PyEval_EvalFrameEx
}

{
   basf2 suppression 679
   Memcheck:Leak
   fun:malloc
   fun:PyCapsule_New
   fun:set_typeinfo
   fun:PyInit_multiarray
   fun:_PyImport_LoadDynamicModuleWithSpec
   fun:_imp_create_dynamic
   fun:PyCFunction_Call
   fun:PyEval_EvalFrameEx
   fun:_PyEval_EvalCodeWithName
   fun:PyEval_EvalFrameEx
   fun:PyEval_EvalFrameEx
   fun:PyEval_EvalFrameEx
}

{
   basf2 suppression 680
   Memcheck:Leak
   fun:malloc
   fun:PyCapsule_New
   fun:set_typeinfo
   fun:PyInit_multiarray
   fun:_PyImport_LoadDynamicModuleWithSpec
   fun:_imp_create_dynamic
   fun:PyCFunction_Call
   fun:PyEval_EvalFrameEx
   fun:_PyEval_EvalCodeWithName
   fun:PyEval_EvalFrameEx
   fun:PyEval_EvalFrameEx
   fun:PyEval_EvalFrameEx
}

{
   basf2 suppression 681
   Memcheck:Leak
   fun:malloc
   fun:PyCapsule_New
   fun:set_typeinfo
   fun:PyInit_multiarray
   fun:_PyImport_LoadDynamicModuleWithSpec
   fun:_imp_create_dynamic
   fun:PyCFunction_Call
   fun:PyEval_EvalFrameEx
   fun:_PyEval_EvalCodeWithName
   fun:PyEval_EvalFrameEx
   fun:PyEval_EvalFrameEx
   fun:PyEval_EvalFrameEx
}

{
   basf2 suppression 682
   Memcheck:Leak
   fun:malloc
   fun:PyCapsule_New
   fun:set_typeinfo
   fun:PyInit_multiarray
   fun:_PyImport_LoadDynamicModuleWithSpec
   fun:_imp_create_dynamic
   fun:PyCFunction_Call
   fun:PyEval_EvalFrameEx
   fun:_PyEval_EvalCodeWithName
   fun:PyEval_EvalFrameEx
   fun:PyEval_EvalFrameEx
   fun:PyEval_EvalFrameEx
}

{
   basf2 suppression 683
   Memcheck:Leak
   fun:malloc
   fun:PyCapsule_New
   fun:set_typeinfo
   fun:PyInit_multiarray
   fun:_PyImport_LoadDynamicModuleWithSpec
   fun:_imp_create_dynamic
   fun:PyCFunction_Call
   fun:PyEval_EvalFrameEx
   fun:_PyEval_EvalCodeWithName
   fun:PyEval_EvalFrameEx
   fun:PyEval_EvalFrameEx
   fun:PyEval_EvalFrameEx
}

{
   basf2 suppression 684
   Memcheck:Leak
   fun:malloc
   fun:PyCapsule_New
   fun:set_typeinfo
   fun:PyInit_multiarray
   fun:_PyImport_LoadDynamicModuleWithSpec
   fun:_imp_create_dynamic
   fun:PyCFunction_Call
   fun:PyEval_EvalFrameEx
   fun:_PyEval_EvalCodeWithName
   fun:PyEval_EvalFrameEx
   fun:PyEval_EvalFrameEx
   fun:PyEval_EvalFrameEx
}

{
   basf2 suppression 685
   Memcheck:Leak
   fun:malloc
   fun:PyCapsule_New
   fun:set_typeinfo
   fun:PyInit_multiarray
   fun:_PyImport_LoadDynamicModuleWithSpec
   fun:_imp_create_dynamic
   fun:PyCFunction_Call
   fun:PyEval_EvalFrameEx
   fun:_PyEval_EvalCodeWithName
   fun:PyEval_EvalFrameEx
   fun:PyEval_EvalFrameEx
   fun:PyEval_EvalFrameEx
}

{
   basf2 suppression 686
   Memcheck:Leak
   fun:malloc
   fun:PyCapsule_New
   fun:set_typeinfo
   fun:PyInit_multiarray
   fun:_PyImport_LoadDynamicModuleWithSpec
   fun:_imp_create_dynamic
   fun:PyCFunction_Call
   fun:PyEval_EvalFrameEx
   fun:_PyEval_EvalCodeWithName
   fun:PyEval_EvalFrameEx
   fun:PyEval_EvalFrameEx
   fun:PyEval_EvalFrameEx
}

{
   basf2 suppression 687
   Memcheck:Leak
   fun:malloc
   fun:PyCapsule_New
   fun:set_typeinfo
   fun:PyInit_multiarray
   fun:_PyImport_LoadDynamicModuleWithSpec
   fun:_imp_create_dynamic
   fun:PyCFunction_Call
   fun:PyEval_EvalFrameEx
   fun:_PyEval_EvalCodeWithName
   fun:PyEval_EvalFrameEx
   fun:PyEval_EvalFrameEx
   fun:PyEval_EvalFrameEx
}

{
   basf2 suppression 688
   Memcheck:Leak
   fun:malloc
   fun:PyCapsule_New
   fun:set_typeinfo
   fun:PyInit_multiarray
   fun:_PyImport_LoadDynamicModuleWithSpec
   fun:_imp_create_dynamic
   fun:PyCFunction_Call
   fun:PyEval_EvalFrameEx
   fun:_PyEval_EvalCodeWithName
   fun:PyEval_EvalFrameEx
   fun:PyEval_EvalFrameEx
   fun:PyEval_EvalFrameEx
}

{
   basf2 suppression 689
   Memcheck:Leak
   fun:malloc
   fun:PyCapsule_New
   fun:set_typeinfo
   fun:PyInit_multiarray
   fun:_PyImport_LoadDynamicModuleWithSpec
   fun:_imp_create_dynamic
   fun:PyCFunction_Call
   fun:PyEval_EvalFrameEx
   fun:_PyEval_EvalCodeWithName
   fun:PyEval_EvalFrameEx
   fun:PyEval_EvalFrameEx
   fun:PyEval_EvalFrameEx
}

{
   basf2 suppression 690
   Memcheck:Leak
   fun:malloc
   fun:PyCapsule_New
   fun:set_typeinfo
   fun:PyInit_multiarray
   fun:_PyImport_LoadDynamicModuleWithSpec
   fun:_imp_create_dynamic
   fun:PyCFunction_Call
   fun:PyEval_EvalFrameEx
   fun:_PyEval_EvalCodeWithName
   fun:PyEval_EvalFrameEx
   fun:PyEval_EvalFrameEx
   fun:PyEval_EvalFrameEx
}

{
   basf2 suppression 691
   Memcheck:Leak
   fun:malloc
   fun:PyCapsule_New
   fun:set_typeinfo
   fun:PyInit_multiarray
   fun:_PyImport_LoadDynamicModuleWithSpec
   fun:_imp_create_dynamic
   fun:PyCFunction_Call
   fun:PyEval_EvalFrameEx
   fun:_PyEval_EvalCodeWithName
   fun:PyEval_EvalFrameEx
   fun:PyEval_EvalFrameEx
   fun:PyEval_EvalFrameEx
}

{
   basf2 suppression 692
   Memcheck:Leak
   fun:malloc
   fun:PyCapsule_New
   fun:set_typeinfo
   fun:PyInit_multiarray
   fun:_PyImport_LoadDynamicModuleWithSpec
   fun:_imp_create_dynamic
   fun:PyCFunction_Call
   fun:PyEval_EvalFrameEx
   fun:_PyEval_EvalCodeWithName
   fun:PyEval_EvalFrameEx
   fun:PyEval_EvalFrameEx
   fun:PyEval_EvalFrameEx
}

{
   basf2 suppression 693
   Memcheck:Leak
   fun:malloc
   fun:PyCapsule_New
   fun:set_typeinfo
   fun:PyInit_multiarray
   fun:_PyImport_LoadDynamicModuleWithSpec
   fun:_imp_create_dynamic
   fun:PyCFunction_Call
   fun:PyEval_EvalFrameEx
   fun:_PyEval_EvalCodeWithName
   fun:PyEval_EvalFrameEx
   fun:PyEval_EvalFrameEx
   fun:PyEval_EvalFrameEx
}

{
   basf2 suppression 694
   Memcheck:Leak
   fun:malloc
   fun:PyCapsule_New
   fun:set_typeinfo
   fun:PyInit_multiarray
   fun:_PyImport_LoadDynamicModuleWithSpec
   fun:_imp_create_dynamic
   fun:PyCFunction_Call
   fun:PyEval_EvalFrameEx
   fun:_PyEval_EvalCodeWithName
   fun:PyEval_EvalFrameEx
   fun:PyEval_EvalFrameEx
   fun:PyEval_EvalFrameEx
}

{
   basf2 suppression 695
   Memcheck:Leak
   fun:malloc
   fun:PyCapsule_New
   fun:set_typeinfo
   fun:PyInit_multiarray
   fun:_PyImport_LoadDynamicModuleWithSpec
   fun:_imp_create_dynamic
   fun:PyCFunction_Call
   fun:PyEval_EvalFrameEx
   fun:_PyEval_EvalCodeWithName
   fun:PyEval_EvalFrameEx
   fun:PyEval_EvalFrameEx
   fun:PyEval_EvalFrameEx
}

{
   basf2 suppression 696
   Memcheck:Leak
   fun:malloc
   fun:PyCapsule_New
   fun:set_typeinfo
   fun:PyInit_multiarray
   fun:_PyImport_LoadDynamicModuleWithSpec
   fun:_imp_create_dynamic
   fun:PyCFunction_Call
   fun:PyEval_EvalFrameEx
   fun:_PyEval_EvalCodeWithName
   fun:PyEval_EvalFrameEx
   fun:PyEval_EvalFrameEx
   fun:PyEval_EvalFrameEx
}

{
   basf2 suppression 697
   Memcheck:Leak
   fun:malloc
   fun:PyCapsule_New
   fun:set_typeinfo
   fun:PyInit_multiarray
   fun:_PyImport_LoadDynamicModuleWithSpec
   fun:_imp_create_dynamic
   fun:PyCFunction_Call
   fun:PyEval_EvalFrameEx
   fun:_PyEval_EvalCodeWithName
   fun:PyEval_EvalFrameEx
   fun:PyEval_EvalFrameEx
   fun:PyEval_EvalFrameEx
}

{
   basf2 suppression 698
   Memcheck:Leak
   fun:malloc
   fun:PyCapsule_New
   fun:set_typeinfo
   fun:PyInit_multiarray
   fun:_PyImport_LoadDynamicModuleWithSpec
   fun:_imp_create_dynamic
   fun:PyCFunction_Call
   fun:PyEval_EvalFrameEx
   fun:_PyEval_EvalCodeWithName
   fun:PyEval_EvalFrameEx
   fun:PyEval_EvalFrameEx
   fun:PyEval_EvalFrameEx
}

{
   basf2 suppression 699
   Memcheck:Leak
   fun:malloc
   fun:PyCapsule_New
   fun:set_typeinfo
   fun:PyInit_multiarray
   fun:_PyImport_LoadDynamicModuleWithSpec
   fun:_imp_create_dynamic
   fun:PyCFunction_Call
   fun:PyEval_EvalFrameEx
   fun:_PyEval_EvalCodeWithName
   fun:PyEval_EvalFrameEx
   fun:PyEval_EvalFrameEx
   fun:PyEval_EvalFrameEx
}

{
   basf2 suppression 700
   Memcheck:Leak
   fun:malloc
   fun:PyCapsule_New
   fun:set_typeinfo
   fun:PyInit_multiarray
   fun:_PyImport_LoadDynamicModuleWithSpec
   fun:_imp_create_dynamic
   fun:PyCFunction_Call
   fun:PyEval_EvalFrameEx
   fun:_PyEval_EvalCodeWithName
   fun:PyEval_EvalFrameEx
   fun:PyEval_EvalFrameEx
   fun:PyEval_EvalFrameEx
}

{
   basf2 suppression 701
   Memcheck:Leak
   fun:malloc
   fun:PyCapsule_New
   fun:set_typeinfo
   fun:PyInit_multiarray
   fun:_PyImport_LoadDynamicModuleWithSpec
   fun:_imp_create_dynamic
   fun:PyCFunction_Call
   fun:PyEval_EvalFrameEx
   fun:_PyEval_EvalCodeWithName
   fun:PyEval_EvalFrameEx
   fun:PyEval_EvalFrameEx
   fun:PyEval_EvalFrameEx
}

{
   basf2 suppression 702
   Memcheck:Leak
   fun:malloc
   fun:PyCapsule_New
   fun:set_typeinfo
   fun:PyInit_multiarray
   fun:_PyImport_LoadDynamicModuleWithSpec
   fun:_imp_create_dynamic
   fun:PyCFunction_Call
   fun:PyEval_EvalFrameEx
   fun:_PyEval_EvalCodeWithName
   fun:PyEval_EvalFrameEx
   fun:PyEval_EvalFrameEx
   fun:PyEval_EvalFrameEx
}

{
   basf2 suppression 703
   Memcheck:Leak
   fun:malloc
   fun:PyCapsule_New
   fun:set_typeinfo
   fun:PyInit_multiarray
   fun:_PyImport_LoadDynamicModuleWithSpec
   fun:_imp_create_dynamic
   fun:PyCFunction_Call
   fun:PyEval_EvalFrameEx
   fun:_PyEval_EvalCodeWithName
   fun:PyEval_EvalFrameEx
   fun:PyEval_EvalFrameEx
   fun:PyEval_EvalFrameEx
}

{
   basf2 suppression 704
   Memcheck:Leak
   fun:_Znwm
   fun:_ZNSs4_Rep9_S_createEmmRKSaIcE
   fun:_ZNSs12_S_constructIPKcEEPcT_S3_RKSaIcESt20forward_iterator_tag.part.29
   fun:_ZNSsC1EPKcRKSaIcE
   fun:_GLOBAL__sub_I_G4ChipsHyperonInelasticXS.cc
   fun:_dl_init
   fun:dl_open_worker
   fun:_dl_catch_error
   fun:_dl_open
   fun:dlopen_doit
   fun:_dl_catch_error
   fun:_dlerror_run
}

{
   basf2 suppression 705
   Memcheck:Leak
   fun:_Znwm
   fun:_ZNSs4_Rep9_S_createEmmRKSaIcE
   fun:_ZNSs12_S_constructIPKcEEPcT_S3_RKSaIcESt20forward_iterator_tag.part.29
   fun:_ZNSsC1EPKcRKSaIcE
   fun:_GLOBAL__sub_I_G4ChipsKaonMinusElasticXS.cc
   fun:_dl_init
   fun:dl_open_worker
   fun:_dl_catch_error
   fun:_dl_open
   fun:dlopen_doit
   fun:_dl_catch_error
   fun:_dlerror_run
}

{
   basf2 suppression 706
   Memcheck:Leak
   fun:_Znwm
   fun:_ZNSs4_Rep9_S_createEmmRKSaIcE
   fun:_ZNSs12_S_constructIPKcEEPcT_S3_RKSaIcESt20forward_iterator_tag.part.29
   fun:_ZNSsC1EPKcRKSaIcE
   fun:_GLOBAL__sub_I_G4ChipsNeutronInelasticXS.cc
   fun:_dl_init
   fun:dl_open_worker
   fun:_dl_catch_error
   fun:_dl_open
   fun:dlopen_doit
   fun:_dl_catch_error
   fun:_dlerror_run
}

{
   basf2 suppression 707
   Memcheck:Leak
   fun:_Znwm
   fun:_ZNSs4_Rep9_S_createEmmRKSaIcE
   fun:_ZNSs12_S_constructIPKcEEPcT_S3_RKSaIcESt20forward_iterator_tag.part.29
   fun:_ZNSsC1EPKcRKSaIcE
   fun:_GLOBAL__sub_I_G4ChipsPionMinusElasticXS.cc
   fun:_dl_init
   fun:dl_open_worker
   fun:_dl_catch_error
   fun:_dl_open
   fun:dlopen_doit
   fun:_dl_catch_error
   fun:_dlerror_run
}

{
   basf2 suppression 708
   Memcheck:Leak
   fun:_Znwm
   fun:_ZNSs4_Rep9_S_createEmmRKSaIcE
   fun:_ZNSs12_S_constructIPKcEEPcT_S3_RKSaIcESt20forward_iterator_tag.part.29
   fun:_ZNSsC1EPKcRKSaIcE
   fun:_GLOBAL__sub_I_G4PiNuclearCrossSection.cc
   fun:_dl_init
   fun:dl_open_worker
   fun:_dl_catch_error
   fun:_dl_open
   fun:dlopen_doit
   fun:_dl_catch_error
   fun:_dlerror_run
}

{
   basf2 suppression 709
   Memcheck:Leak
   fun:_Znwm
   fun:_ZNSs4_Rep9_S_createEmmRKSaIcE
   fun:_ZNSs12_S_constructIPKcEEPcT_S3_RKSaIcESt20forward_iterator_tag.part.29
   fun:_ZNSsC1EPKcRKSaIcE
   fun:_GLOBAL__sub_I_G4NeutronCrossSectionXS.cc
   fun:_dl_init
   fun:dl_open_worker
   fun:_dl_catch_error
   fun:_dl_open
   fun:dlopen_doit
   fun:_dl_catch_error
   fun:_dlerror_run
}

{
   basf2 suppression 710
   Memcheck:Leak
   fun:_Znwm
   fun:_ZNSs4_Rep9_S_createEmmRKSaIcE
   fun:_ZNSs12_S_constructIPKcEEPcT_S3_RKSaIcESt20forward_iterator_tag.part.29
   fun:_ZNSsC1EPKcRKSaIcE
   fun:_GLOBAL__sub_I_G4ChargeExchangePhysics.cc
   fun:_dl_init
   fun:dl_open_worker
   fun:_dl_catch_error
   fun:_dl_open
   fun:dlopen_doit
   fun:_dl_catch_error
   fun:_dlerror_run
}

{
   basf2 suppression 711
   Memcheck:Leak
   fun:_Znwm
   fun:_ZNSs4_Rep9_S_createEmmRKSaIcE
   fun:_ZNSs12_S_constructIPKcEEPcT_S3_RKSaIcESt20forward_iterator_tag.part.29
   fun:_ZNSsC1EPKcRKSaIcE
   fun:_GLOBAL__sub_I_G4HadronDElasticPhysics.cc
   fun:_dl_init
   fun:dl_open_worker
   fun:_dl_catch_error
   fun:_dl_open
   fun:dlopen_doit
   fun:_dl_catch_error
   fun:_dlerror_run
}

{
   basf2 suppression 712
   Memcheck:Leak
   fun:_Znwm
   fun:_ZNSs4_Rep9_S_createEmmRKSaIcE
   fun:_ZNSs12_S_constructIPKcEEPcT_S3_RKSaIcESt20forward_iterator_tag.part.29
   fun:_ZNSsC1EPKcRKSaIcE
   fun:_GLOBAL__sub_I_G4HadronPhysicsQGSP_BIC.cc
   fun:_dl_init
   fun:dl_open_worker
   fun:_dl_catch_error
   fun:_dl_open
   fun:dlopen_doit
   fun:_dl_catch_error
   fun:_dlerror_run
}

{
   basf2 suppression 713
   Memcheck:Leak
   fun:_Znwm
   fun:_ZNSt6vectorIN5clang11DeclContext13decl_iteratorESaIS2_EEaSERKS4_
   fun:_ZNK6TCling26DataMemberInfo_FactoryCopyEP16DataMemberInfo_t
   fun:_ZN18TListOfDataMembers3GetEP16DataMemberInfo_tb
   fun:_ZN18TListOfDataMembers4LoadEv
   fun:_ZN6TClass20GetListOfDataMembersEb
   fun:_ZN5Cppyy17GetNumDatamembersEl
   fun:_ZN6PyROOT16CreateScopeProxyERKSsP7_object
   fun:_ZN6PyROOT16CreateScopeProxyERKSsP7_object
   fun:_ZN6PyROOT16CreateScopeProxyEP7_objectS1_
   fun:PyCFunction_Call
   fun:PyEval_EvalFrameEx
}

{
   basf2 suppression 714
   Memcheck:Leak
   fun:_Znwm
   fun:_ZNK16GsfVertexUpdator5cloneEv
   fun:_ZN20AdaptiveVertexFitterC1ERKS_
   fun:_ZNK20AdaptiveVertexFitter5cloneEv
   fun:_ZN23AdaptiveGsfVertexFitterC1ERKS_
   fun:_ZNK23AdaptiveGsfVertexFitter5cloneEv
   fun:_ZN18AbstractConfFitterC1ERK12VertexFitterILj5EE
   fun:_ZN37ConfigurableAdaptiveGaussianSumFilterC1Ev
   fun:_GLOBAL__sub_I_ConfigurableAdaptiveGaussianSumFilter.cc
   fun:_dl_init
   fun:dl_open_worker
   fun:_dl_catch_error
}

{
   basf2 suppression 715
   Memcheck:Leak
   fun:_Znwm
   fun:_ZNK16GsfVertexUpdator5cloneEv
   fun:_ZN20AdaptiveVertexFitterC1ERKS_
   fun:_ZNK20AdaptiveVertexFitter5cloneEv
   fun:_ZN23AdaptiveGsfVertexFitterC1ERKS_
   fun:_ZNK23AdaptiveGsfVertexFitter5cloneEv
   fun:_ZN18AbstractConfFitterC1ERKS_
   fun:_ZN37ConfigurableAdaptiveGaussianSumFilterC1ERKS_
   fun:_ZNK37ConfigurableAdaptiveGaussianSumFilter5cloneEv
   fun:_ZN23ReconstructorFromFitterC1ERK18AbstractConfFitter
   fun:_ZN19VertexFitterManager14registerFitterERKSsP18AbstractConfFitterS1_
   fun:_GLOBAL__sub_I_ConfigurableAdaptiveGaussianSumFilter.cc
}

{
   basf2 suppression 716
   Memcheck:Leak
   fun:_Znwm
   fun:_ZNK16GsfVertexUpdator5cloneEv
   fun:_ZN22SequentialVertexFitterILj5EEC1ERKS0_
   fun:_ZN15GsfVertexFitterC1ERKS_
   fun:_ZNK15GsfVertexFitter5cloneEv
   fun:_ZN18AbstractConfFitterC1ERK12VertexFitterILj5EE
   fun:_ZN29ConfigurableGaussianSumFilterC1Ev
   fun:_GLOBAL__sub_I_ConfigurableGaussianSumFilter.cc
   fun:_dl_init
   fun:dl_open_worker
   fun:_dl_catch_error
   fun:_dl_open
}

{
   basf2 suppression 717
   Memcheck:Leak
   fun:_Znwm
   fun:_ZNK16GsfVertexUpdator5cloneEv
   fun:_ZN22SequentialVertexFitterILj5EEC1ERKS0_
   fun:_ZN15GsfVertexFitterC1ERKS_
   fun:_ZNK15GsfVertexFitter5cloneEv
   fun:_ZN18AbstractConfFitterC1ERKS_
   fun:_ZN29ConfigurableGaussianSumFilterC1ERKS_
   fun:_ZNK29ConfigurableGaussianSumFilter5cloneEv
   fun:_ZN23ReconstructorFromFitterC1ERK18AbstractConfFitter
   fun:_ZN19VertexFitterManager14registerFitterERKSsP18AbstractConfFitterS1_
   fun:_GLOBAL__sub_I_ConfigurableGaussianSumFilter.cc
   fun:_dl_init
}

{
   basf2 suppression 718
   Memcheck:Leak
   fun:_Znwm
   fun:_ZNSt6vectorIS_IN4TMVA21TransformationHandler12VariableStatESaIS2_EESaIS4_EE17_M_default_appendEm
   fun:_ZN4TMVA21TransformationHandlerC1ERNS_11DataSetInfoERK7TString
   fun:_ZN4TMVA10MethodBaseC2ENS_5Types4EMVAERNS_11DataSetInfoERK7TStringP10TDirectory
   fun:_ZN4TMVA13MethodFastBDTC1ERNS_11DataSetInfoERK7TStringP10TDirectory
   obj:*
   fun:_ZNK14TClingCallFunc4execEPvS0_
   fun:_ZNK14TClingCallFunc23exec_with_valref_returnEPvPN5cling5ValueE
   fun:_ZN14TClingCallFunc5ExecTIxEET_Pv
   fun:_ZN11TMethodCall7ExecuteEPvRl
   fun:_ZN12_GLOBAL__N_119CreateMethodPluginsERK7TStringS2_RN4TMVA11DataSetInfoES2_
   fun:_ZN4TMVA17ClassifierFactory6CreateERKSsRNS_11DataSetInfoERK7TString
}

{
   basf2 suppression 719
   Memcheck:Leak
   fun:_Znwm
   fun:_ZNSs4_Rep9_S_createEmmRKSaIcE
   fun:_ZNSs12_S_constructIPKcEEPcT_S3_RKSaIcESt20forward_iterator_tag.part.29
   fun:_ZNSsC1EPKcmRKSaIcE
   fun:_ZN5clang17CodeGeneratorImpl11StartModuleERKSsRN4llvm11LLVMContextERKNS_14CodeGenOptionsE
   fun:_ZN5cling17IncrementalParser18codeGenTransactionEPNS_11TransactionE
   fun:_ZN5cling17IncrementalParser17commitTransactionEN4llvm14PointerIntPairIPNS_11TransactionELj2ENS0_12EParseResultENS1_21PointerLikeTypeTraitsIS4_EEEE
   fun:_ZN5cling11InterpreterC1EiPKPKcS2_b
   fun:_ZN6TClingC1EPKcS1_
   fun:CreateInterpreter
   fun:_ZN5TROOT15InitInterpreterEv
   fun:_ZN4ROOT8GetROOT2Ev
}

{
   basf2 suppression 720
   Memcheck:Leak
   fun:_Znwm
   fun:_ZNSs4_Rep9_S_createEmmRKSaIcE
   fun:_ZNSs4_Rep8_M_cloneERKSaIcEm
   fun:_ZNSs7reserveEm
   fun:_ZNSs6appendEPKcm
   fun:_ZN4llvm6Triple9normalizeENS_9StringRefE
   fun:_ZN5clang18CompilerInvocation14CreateFromArgsERS0_PKPKcS5_RNS_17DiagnosticsEngineE
   fun:_ZN12_GLOBAL__N_1L12createCIImplESt10unique_ptrIN4llvm12MemoryBufferESt14default_deleteIS2_EEiPKPKcS7_b
   fun:_ZN5cling9CIFactory8createCIEN4llvm9StringRefEiPKPKcS4_
   fun:_ZN5cling17IncrementalParserC1EPNS_11InterpreterEiPKPKcS4_
   fun:_ZN5cling11InterpreterC1EiPKPKcS2_b
   fun:_ZN6TClingC1EPKcS1_
}

{
   basf2 suppression 721
   Memcheck:Leak
   fun:_Znwm
   fun:_ZNSs4_Rep9_S_createEmmRKSaIcE
   fun:_ZNSs12_S_constructIPKcEEPcT_S3_RKSaIcESt20forward_iterator_tag.part.29
   fun:_ZNSsC1EPKcmRKSaIcE
   fun:_ZN12_GLOBAL__N_1L12createCIImplESt10unique_ptrIN4llvm12MemoryBufferESt14default_deleteIS2_EEiPKPKcS7_b
   fun:_ZN5cling9CIFactory8createCIEN4llvm9StringRefEiPKPKcS4_
   fun:_ZN5cling17IncrementalParserC1EPNS_11InterpreterEiPKPKcS4_
   fun:_ZN5cling11InterpreterC1EiPKPKcS2_b
   fun:_ZN6TClingC1EPKcS1_
   fun:CreateInterpreter
   fun:_ZN5TROOT15InitInterpreterEv
   fun:_ZN4ROOT8GetROOT2Ev
}

{
   basf2 suppression 722
   Memcheck:Leak
   fun:_Znwm
   fun:_ZNSs4_Rep9_S_createEmmRKSaIcE
   fun:_ZNSs12_S_constructIPKcEEPcT_S3_RKSaIcESt20forward_iterator_tag.part.29
   fun:_ZNSsC1EPKcmRKSaIcE
   fun:_ZN4llvm13TargetMachineC1ERKNS_6TargetENS_9StringRefES4_S4_RKNS_13TargetOptionsE
   fun:_ZN4llvm17LLVMTargetMachineC1ERKNS_6TargetENS_9StringRefES4_S4_NS_13TargetOptionsENS_5Reloc5ModelENS_9CodeModel5ModelENS_10CodeGenOpt5LevelE
   fun:_ZN4llvm16X86TargetMachineC1ERKNS_6TargetENS_9StringRefES4_S4_RKNS_13TargetOptionsENS_5Reloc5ModelENS_9CodeModel5ModelENS_10CodeGenOpt5LevelE
   fun:_ZN4llvm21RegisterTargetMachineINS_16X86TargetMachineEE9AllocatorERKNS_6TargetENS_9StringRefES6_S6_RKNS_13TargetOptionsENS_5Reloc5ModelENS_9CodeModel5ModelENS_10CodeGenOpt5LevelE
   fun:_ZNK5cling19IncrementalExecutor23CreateHostTargetMachineEv
   fun:_ZN5cling19IncrementalExecutorC1ERN5clang17DiagnosticsEngineE
   fun:_ZN5cling11InterpreterC1EiPKPKcS2_b
   fun:_ZN6TClingC1EPKcS1_
}

{
   basf2 suppression 723
   Memcheck:Leak
   fun:_Znwm
   fun:_ZNSs4_Rep9_S_createEmmRKSaIcE
   fun:_ZNSs12_S_constructIPKcEEPcT_S3_RKSaIcESt20forward_iterator_tag.part.29
   fun:_ZNSsC1EPKcmRKSaIcE
   fun:_ZN4llvm16X86TargetMachineC1ERKNS_6TargetENS_9StringRefES4_S4_RKNS_13TargetOptionsENS_5Reloc5ModelENS_9CodeModel5ModelENS_10CodeGenOpt5LevelE
   fun:_ZN4llvm21RegisterTargetMachineINS_16X86TargetMachineEE9AllocatorERKNS_6TargetENS_9StringRefES6_S6_RKNS_13TargetOptionsENS_5Reloc5ModelENS_9CodeModel5ModelENS_10CodeGenOpt5LevelE
   fun:_ZNK5cling19IncrementalExecutor23CreateHostTargetMachineEv
   fun:_ZN5cling19IncrementalExecutorC1ERN5clang17DiagnosticsEngineE
   fun:_ZN5cling11InterpreterC1EiPKPKcS2_b
   fun:_ZN6TClingC1EPKcS1_
   fun:CreateInterpreter
   fun:_ZN5TROOT15InitInterpreterEv
}

{
   basf2 suppression 724
   Memcheck:Leak
   fun:_Znwm
   fun:_ZNSs4_Rep9_S_createEmmRKSaIcE
   fun:_ZNSs12_S_constructIPKcEEPcT_S3_RKSaIcESt20forward_iterator_tag.part.29
   fun:_ZNSsC1EPKcmRKSaIcE
   fun:_ZN4llvm15MCSubtargetInfo19InitMCSubtargetInfoENS_9StringRefES1_S1_NS_8ArrayRefINS_18SubtargetFeatureKVEEES4_PKNS_15SubtargetInfoKVEPKNS_19MCWriteProcResEntryEPKNS_19MCWriteLatencyEntryEPKNS_18MCReadAdvanceEntryEPKNS_10InstrStageEPKjSL_
   fun:_ZN4llvm19X86GenSubtargetInfoC1ENS_9StringRefES1_S1_
   fun:_ZN4llvm12X86SubtargetC1ERKSsS2_S2_RKNS_16X86TargetMachineEj
   fun:_ZN4llvm16X86TargetMachineC1ERKNS_6TargetENS_9StringRefES4_S4_RKNS_13TargetOptionsENS_5Reloc5ModelENS_9CodeModel5ModelENS_10CodeGenOpt5LevelE
   fun:_ZN4llvm21RegisterTargetMachineINS_16X86TargetMachineEE9AllocatorERKNS_6TargetENS_9StringRefES6_S6_RKNS_13TargetOptionsENS_5Reloc5ModelENS_9CodeModel5ModelENS_10CodeGenOpt5LevelE
   fun:_ZNK5cling19IncrementalExecutor23CreateHostTargetMachineEv
   fun:_ZN5cling19IncrementalExecutorC1ERN5clang17DiagnosticsEngineE
   fun:_ZN5cling11InterpreterC1EiPKPKcS2_b
}

{
   basf2 suppression 725
   Memcheck:Leak
   fun:_Znwm
   fun:_ZNSs4_Rep9_S_createEmmRKSaIcE
   fun:_ZNSs12_S_constructIPKcEEPcT_S3_RKSaIcESt20forward_iterator_tag.part.29
   fun:_ZNSsC1EPKcmRKSaIcE
   fun:_ZN5clang17CodeGeneratorImpl10InitializeERNS_10ASTContextE
   fun:_ZN5cling17IncrementalParser10InitializeERN4llvm15SmallVectorImplINS1_14PointerIntPairIPNS_11TransactionELj2ENS0_12EParseResultENS1_21PointerLikeTypeTraitsIS5_EEEEEE
   fun:_ZN5cling11InterpreterC1EiPKPKcS2_b
   fun:_ZN6TClingC1EPKcS1_
   fun:CreateInterpreter
   fun:_ZN5TROOT15InitInterpreterEv
   fun:_ZN4ROOT8GetROOT2Ev
   fun:_ZN12TDatabasePDGC1Ev
}

{
   basf2 suppression 726
   Memcheck:Leak
   fun:_Znwm
   fun:_ZNSs4_Rep9_S_createEmmRKSaIcE
   fun:_ZNSs12_S_constructIPKcEEPcT_S3_RKSaIcESt20forward_iterator_tag.part.29
   fun:_ZNSsC1EPKcmRKSaIcE
   fun:_ZNK4llvm5Twine3strEv
   fun:_ZN4llvm6TripleC1ERKNS_5TwineE
   fun:_ZN4llvm16MCObjectFileInfo20InitMCObjectFileInfoENS_9StringRefENS_5Reloc5ModelENS_9CodeModel5ModelERNS_9MCContextE
   fun:_ZN4llvm24TargetLoweringObjectFile10InitializeERNS_9MCContextERKNS_13TargetMachineE
   fun:_ZN4llvm24X86LinuxTargetObjectFile10InitializeERNS_9MCContextERKNS_13TargetMachineE
   fun:_ZN4llvm10AsmPrinter16doInitializationERNS_6ModuleE
   fun:_ZN4llvm13FPPassManager16doInitializationERNS_6ModuleE
   fun:_ZN4llvm6legacy15PassManagerImpl3runERNS_6ModuleE
}

{
   basf2 suppression 727
   Memcheck:Leak
   fun:_Znwm
   fun:_ZNSs4_Rep9_S_createEmmRKSaIcE
   fun:_ZNSs12_S_constructIPKcEEPcT_S3_RKSaIcESt20forward_iterator_tag.part.29
   fun:_ZNSsC1EPKcmRKSaIcE
   fun:_ZN4llvm15MCSubtargetInfo19InitMCSubtargetInfoENS_9StringRefES1_S1_NS_8ArrayRefINS_18SubtargetFeatureKVEEES4_PKNS_15SubtargetInfoKVEPKNS_19MCWriteProcResEntryEPKNS_19MCWriteLatencyEntryEPKNS_18MCReadAdvanceEntryEPKNS_10InstrStageEPKjSL_
   fun:_ZN4llvm19X86GenSubtargetInfoC1ENS_9StringRefES1_S1_
   fun:_ZN4llvm12X86SubtargetC1ERKSsS2_S2_RKNS_16X86TargetMachineEj
   fun:_ZNK4llvm16X86TargetMachine16getSubtargetImplERKNS_8FunctionE
   fun:_ZN12_GLOBAL__N_112AtomicExpand13runOnFunctionERN4llvm8FunctionE
   fun:_ZN4llvm13FPPassManager13runOnFunctionERNS_8FunctionE
   fun:_ZN4llvm13FPPassManager11runOnModuleERNS_6ModuleE
   fun:_ZN4llvm6legacy15PassManagerImpl3runERNS_6ModuleE
}

{
   basf2 suppression 728
   Memcheck:Leak
   fun:_Znwm
   fun:_ZNSs4_Rep9_S_createEmmRKSaIcE
   fun:_ZNSs12_S_constructIPKcEEPcT_S3_RKSaIcESt20forward_iterator_tag.part.29
   fun:_ZNSsC1EPKcmRKSaIcE
   fun:_ZN5clang17CodeGeneratorImpl11StartModuleERKSsRN4llvm11LLVMContextERKNS_14CodeGenOptionsE
   fun:_ZN5cling17IncrementalParser18codeGenTransactionEPNS_11TransactionE
   fun:_ZN5cling17IncrementalParser17commitTransactionEN4llvm14PointerIntPairIPNS_11TransactionELj2ENS0_12EParseResultENS1_21PointerLikeTypeTraitsIS4_EEEE
   fun:_ZN5cling17IncrementalParser7CompileEN4llvm9StringRefERKNS_18CompilationOptionsE
   fun:_ZNK5cling11Interpreter15DeclareInternalERKSsRKNS_18CompilationOptionsEPPNS_11TransactionE
   fun:_ZN5cling11Interpreter7declareERKSsPPNS_11TransactionE
   fun:_ZN6TClingC1EPKcS1_
   fun:CreateInterpreter
}

{
   basf2 suppression 729
   Memcheck:Leak
   fun:_Znwm
   fun:_ZNSs4_Rep9_S_createEmmRKSaIcE
   fun:_ZNSs12_S_constructIPKcEEPcT_S3_RKSaIcESt20forward_iterator_tag.part.29
   fun:_ZNSsC1EPKcmRKSaIcE
   fun:_ZN5clang17CodeGeneratorImpl11StartModuleERKSsRN4llvm11LLVMContextERKNS_14CodeGenOptionsE
   fun:_ZN5cling17IncrementalParser18codeGenTransactionEPNS_11TransactionE
   fun:_ZN5cling17IncrementalParser17commitTransactionEN4llvm14PointerIntPairIPNS_11TransactionELj2ENS0_12EParseResultENS1_21PointerLikeTypeTraitsIS4_EEEE
   fun:_ZN5cling17IncrementalParser7CompileEN4llvm9StringRefERKNS_18CompilationOptionsE
   fun:_ZNK5cling11Interpreter15DeclareInternalERKSsRKNS_18CompilationOptionsEPPNS_11TransactionE
   fun:_ZN5cling11Interpreter7declareERKSsPPNS_11TransactionE
   fun:_ZN15TClingCallbacksC1EPN5cling11InterpreterE
   fun:_ZN6TClingC1EPKcS1_
}

{
   basf2 suppression 730
   Memcheck:Leak
   fun:_Znwm
   fun:_ZNSs4_Rep9_S_createEmmRKSaIcE
   fun:_ZNSs12_S_constructIPKcEEPcT_S3_RKSaIcESt20forward_iterator_tag.part.29
   fun:_ZNSsC1EPKcmRKSaIcE
   fun:_ZN5clang17CodeGeneratorImpl11StartModuleERKSsRN4llvm11LLVMContextERKNS_14CodeGenOptionsE
   fun:_ZN5cling17IncrementalParser18codeGenTransactionEPNS_11TransactionE
   fun:_ZN5cling17IncrementalParser17commitTransactionEN4llvm14PointerIntPairIPNS_11TransactionELj2ENS0_12EParseResultENS1_21PointerLikeTypeTraitsIS4_EEEE
   fun:_ZNK5cling11Interpreter19PushTransactionRAII3popEv
   fun:_ZN15TClingClassInfoC1EPN5cling11InterpreterEb
   fun:_ZNK6TCling13GetDataMemberEP11ClassInfo_tPKc
   fun:_ZNK18TListOfDataMembers10FindObjectEPKc
   fun:_ZN6TCling13HandleNewDeclEPKvbRSt3setIP6TClassSt4lessIS4_ESaIS4_EE
}

{
   basf2 suppression 731
   Memcheck:Leak
   fun:_Znwm
   fun:_ZNSs4_Rep9_S_createEmmRKSaIcE
   fun:_ZNSs12_S_constructIPKcEEPcT_S3_RKSaIcESt20forward_iterator_tag.part.29
   fun:_ZNSsC1EPKcmRKSaIcE
   fun:_ZN5clang17CodeGeneratorImpl11StartModuleERKSsRN4llvm11LLVMContextERKNS_14CodeGenOptionsE
   fun:_ZN5cling17IncrementalParser18codeGenTransactionEPNS_11TransactionE
   fun:_ZN5cling17IncrementalParser17commitTransactionEN4llvm14PointerIntPairIPNS_11TransactionELj2ENS0_12EParseResultENS1_21PointerLikeTypeTraitsIS4_EEEE
   fun:_ZN5cling17IncrementalParser7CompileEN4llvm9StringRefERKNS_18CompilationOptionsE
   fun:_ZNK5cling11Interpreter15DeclareInternalERKSsRKNS_18CompilationOptionsEPPNS_11TransactionE
   fun:_ZN5cling11Interpreter7declareERKSsPPNS_11TransactionE
   fun:_ZN6TCling14LoadLibraryMapEPKc
   fun:_ZN6TCling17EnableAutoLoadingEv
}

{
   basf2 suppression 732
   Memcheck:Leak
   fun:_Znwm
   fun:_ZNSs4_Rep9_S_createEmmRKSaIcE
   fun:_ZNSs12_S_constructIPKcEEPcT_S3_RKSaIcESt20forward_iterator_tag.part.29
   fun:_ZNSsC1EPKcRKSaIcE
   fun:_GLOBAL__sub_I_G4HadronElasticPhysicsXS.cc
   fun:_dl_init
   fun:dl_open_worker
   fun:_dl_catch_error
   fun:_dl_open
   fun:dlopen_doit
   fun:_dl_catch_error
   fun:_dlerror_run
}

{
   basf2 suppression 733
   Memcheck:Leak
   fun:_Znwm
   fun:_ZNSs4_Rep9_S_createEmmRKSaIcE
   fun:_ZNSs12_S_constructIPKcEEPcT_S3_RKSaIcESt20forward_iterator_tag.part.29
   fun:_ZNSsC1EPKcRKSaIcE
   fun:_GLOBAL__sub_I_G4HadronPhysicsFTFP_BERT.cc
   fun:_dl_init
   fun:dl_open_worker
   fun:_dl_catch_error
   fun:_dl_open
   fun:dlopen_doit
   fun:_dl_catch_error
   fun:_dlerror_run
}

{
   basf2 suppression 734
   Memcheck:Leak
   fun:_Znwm
   fun:_ZNSs4_Rep9_S_createEmmRKSaIcE
   fun:_ZNSs12_S_constructIPKcEEPcT_S3_RKSaIcESt20forward_iterator_tag.part.29
   fun:_ZNSsC1EPKcRKSaIcE
   fun:_GLOBAL__sub_I_G4HadronPhysicsQGSP_BERT.cc
   fun:_dl_init
   fun:dl_open_worker
   fun:_dl_catch_error
   fun:_dl_open
   fun:dlopen_doit
   fun:_dl_catch_error
   fun:_dlerror_run
}

{
   basf2 suppression 735
   Memcheck:Leak
   fun:_Znwm
   fun:_ZNSs4_Rep9_S_createEmmRKSaIcE
   fun:_ZNSs12_S_constructIPKcEEPcT_S3_RKSaIcESt20forward_iterator_tag.part.29
   fun:_ZNSsC1EPKcRKSaIcE
   fun:_GLOBAL__sub_I_G4ChipsAntiBaryonElasticXS.cc
   fun:_dl_init
   fun:dl_open_worker
   fun:_dl_catch_error
   fun:_dl_open
   fun:dlopen_doit
   fun:_dl_catch_error
   fun:_dlerror_run
}

{
   basf2 suppression 736
   Memcheck:Leak
   fun:_Znwm
   fun:_ZNSs4_Rep9_S_createEmmRKSaIcE
   fun:_ZNSs12_S_constructIPKcEEPcT_S3_RKSaIcESt20forward_iterator_tag.part.29
   fun:_ZNSsC1EPKcRKSaIcE
   fun:_GLOBAL__sub_I_G4ChipsKaonPlusInelasticXS.cc
   fun:_dl_init
   fun:dl_open_worker
   fun:_dl_catch_error
   fun:_dl_open
   fun:dlopen_doit
   fun:_dl_catch_error
   fun:_dlerror_run
}

{
   basf2 suppression 737
   Memcheck:Leak
   fun:_Znwm
   fun:_ZNSs4_Rep9_S_createEmmRKSaIcE
   fun:_ZNSs12_S_constructIPKcEEPcT_S3_RKSaIcESt20forward_iterator_tag.part.29
   fun:_ZNSsC1EPKcRKSaIcE
   fun:_GLOBAL__sub_I_G4ChipsKaonZeroInelasticXS.cc
   fun:_dl_init
   fun:dl_open_worker
   fun:_dl_catch_error
   fun:_dl_open
   fun:dlopen_doit
   fun:_dl_catch_error
   fun:_dlerror_run
}

{
   basf2 suppression 738
   Memcheck:Leak
   fun:_Znwm
   fun:_ZNSs4_Rep9_S_createEmmRKSaIcE
   fun:_ZNSs12_S_constructIPKcEEPcT_S3_RKSaIcESt20forward_iterator_tag.part.29
   fun:_ZNSsC1EPKcRKSaIcE
   fun:_GLOBAL__sub_I_G4ChipsPionPlusInelasticXS.cc
   fun:_dl_init
   fun:dl_open_worker
   fun:_dl_catch_error
   fun:_dl_open
   fun:dlopen_doit
   fun:_dl_catch_error
   fun:_dlerror_run
}

{
   basf2 suppression 739
   Memcheck:Leak
   fun:_Znwm
   fun:_ZNSs4_Rep9_S_createEmmRKSaIcE
   fun:_ZNSs12_S_constructIPKcEEPcT_S3_RKSaIcESt20forward_iterator_tag.part.29
   fun:_ZNSsC1EPKcRKSaIcE
   fun:_ZN20G4NeutronHPMessengerC1EP18G4NeutronHPManager
   fun:_ZN18G4NeutronHPManagerC1Ev
   fun:_GLOBAL__sub_I_G4NeutronHPManager.cc
   fun:_dl_init
   fun:dl_open_worker
   fun:_dl_catch_error
   fun:_dl_open
   fun:dlopen_doit
}

{
   basf2 suppression 740
   Memcheck:Leak
   fun:_Znwm
   fun:_ZNSs4_Rep9_S_createEmmRKSaIcE
   fun:_ZNSs12_S_constructIPKcEEPcT_S3_RKSaIcESt20forward_iterator_tag.part.29
   fun:_ZNSsC1EPKcRKSaIcE
   fun:_GLOBAL__sub_I_G4HadronElasticPhysicsHP.cc
   fun:_dl_init
   fun:dl_open_worker
   fun:_dl_catch_error
   fun:_dl_open
   fun:dlopen_doit
   fun:_dl_catch_error
   fun:_dlerror_run
}

{
   basf2 suppression 741
   Memcheck:Leak
   fun:_Znwm
   fun:_ZNSs4_Rep9_S_createEmmRKSaIcE
   fun:_ZNSs12_S_constructIPKcEEPcT_S3_RKSaIcESt20forward_iterator_tag.part.29
   fun:_ZNSsC1EPKcRKSaIcE
   fun:_GLOBAL__sub_I_G4HadronPhysicsShielding.cc
   fun:_dl_init
   fun:dl_open_worker
   fun:_dl_catch_error
   fun:_dl_open
   fun:dlopen_doit
   fun:_dl_catch_error
   fun:_dlerror_run
}

{
   basf2 suppression 742
   Memcheck:Leak
   fun:_Znwm
   fun:_ZNSs4_Rep9_S_createEmmRKSaIcE
   fun:_ZNSs12_S_constructIPKcEEPcT_S3_RKSaIcESt20forward_iterator_tag.part.29
   fun:_ZNSsC1EPKcmRKSaIcE
   fun:_ZN5clang17CodeGeneratorImpl11StartModuleERKSsRN4llvm11LLVMContextERKNS_14CodeGenOptionsE
   fun:_ZN5cling17IncrementalParser18codeGenTransactionEPNS_11TransactionE
   fun:_ZN5cling17IncrementalParser17commitTransactionEN4llvm14PointerIntPairIPNS_11TransactionELj2ENS0_12EParseResultENS1_21PointerLikeTypeTraitsIS4_EEEE
   fun:_ZNK5cling11Interpreter19PushTransactionRAII3popEv
   fun:_ZN5cling16execFindFunctionINS_10ParseProtoEPKN5clang12FunctionDeclEEET0_RNS2_6ParserEPNS_11InterpreterEPKNS2_4DeclEN4llvm9StringRefERKNT_9ArgsInputEbPFS6_PNS2_11DeclContextEbRKNSE_15SmallVectorImplIPNS2_4ExprEEERNS2_12LookupResultERNS2_19DeclarationNameInfoEPKNS2_24TemplateArgumentListInfoERNS2_10ASTContextES8_RNS2_4SemaEENS_12LookupHelper11DiagSettingE
   fun:_ZNK5cling12LookupHelper17findFunctionProtoEPKN5clang4DeclEN4llvm9StringRefES6_NS0_11DiagSettingEb
   fun:_ZNK15TClingClassInfo9GetMethodEPKcS1_bPlN4ROOT18EFunctionMatchModeENS_16EInheritanceModeE
   fun:_ZN6TCling24GetFunctionWithPrototypeEP11ClassInfo_tPKcS3_bN4ROOT18EFunctionMatchModeE
}

{
   basf2 suppression 743
   Memcheck:Leak
   fun:_Znwm
   fun:_ZNSs4_Rep9_S_createEmmRKSaIcE
   fun:_ZNSs12_S_constructIPKcEEPcT_S3_RKSaIcESt20forward_iterator_tag.part.29
   fun:_ZNSsC1EPKcmRKSaIcE
   fun:_ZN5clang17CodeGeneratorImpl11StartModuleERKSsRN4llvm11LLVMContextERKNS_14CodeGenOptionsE
   fun:_ZN5cling17IncrementalParser18codeGenTransactionEPNS_11TransactionE
   fun:_ZN5cling17IncrementalParser17commitTransactionEN4llvm14PointerIntPairIPNS_11TransactionELj2ENS0_12EParseResultENS1_21PointerLikeTypeTraitsIS4_EEEE
   fun:_ZNK5cling11Interpreter19PushTransactionRAII3popEv
   fun:_ZN6TCling14InspectMembersER16TMemberInspectorPKvPK6TClassb
   fun:_ZNK6TClass15CallShowMembersEPKvR16TMemberInspectorb
   fun:_ZN6TClass13BuildRealDataEPvb
   fun:_ZN11TBufferFile15ReadClassBufferEPK6TClassPvijjS2_
}

{
   basf2 suppression 744
   Memcheck:Leak
   fun:_Znwm
   fun:_ZNSs4_Rep9_S_createEmmRKSaIcE
   fun:_ZNSs12_S_constructIPKcEEPcT_S3_RKSaIcESt20forward_iterator_tag.part.29
   fun:_ZNSsC1EPKcmRKSaIcE
   fun:_ZN5clang17CodeGeneratorImpl11StartModuleERKSsRN4llvm11LLVMContextERKNS_14CodeGenOptionsE
   fun:_ZN5cling17IncrementalParser18codeGenTransactionEPNS_11TransactionE
   fun:_ZN5cling17IncrementalParser17commitTransactionEN4llvm14PointerIntPairIPNS_11TransactionELj2ENS0_12EParseResultENS1_21PointerLikeTypeTraitsIS4_EEEE
   fun:_ZNK5cling11Interpreter19PushTransactionRAII3popEv
   fun:_ZNK6TCling9LoadEnumsER12TListOfEnums
   fun:_ZN12TListOfEnums4LoadEv
   fun:_ZN6TClass14GetListOfEnumsEb
   fun:_ZN5TEnum7GetEnumEPKcNS_13ESearchActionE
}

{
   basf2 suppression 745
   Memcheck:Leak
   fun:_Znwm
   fun:_ZNSs4_Rep9_S_createEmmRKSaIcE
   fun:_ZNSs12_S_constructIPKcEEPcT_S3_RKSaIcESt20forward_iterator_tag.part.29
   fun:_ZNSsC1EPKcmRKSaIcE
   fun:_ZN5clang17CodeGeneratorImpl11StartModuleERKSsRN4llvm11LLVMContextERKNS_14CodeGenOptionsE
   fun:_ZN5cling17IncrementalParser18codeGenTransactionEPNS_11TransactionE
   fun:_ZN5cling17IncrementalParser17commitTransactionEN4llvm14PointerIntPairIPNS_11TransactionELj2ENS0_12EParseResultENS1_21PointerLikeTypeTraitsIS4_EEEE
   fun:_ZNK5cling11Interpreter19PushTransactionRAII3popEv
   fun:_ZNK6TCling9LoadEnumsER12TListOfEnums
   fun:_ZN12TListOfEnums4LoadEv
   fun:_ZN6TClass14GetListOfEnumsEb
   fun:_ZN5TEnum7GetEnumEPKcNS_13ESearchActionE
}

{
   basf2 suppression 746
   Memcheck:Leak
   fun:_Znwm
   fun:_ZNSs4_Rep9_S_createEmmRKSaIcE
   fun:_ZNSs12_S_constructIPKcEEPcT_S3_RKSaIcESt20forward_iterator_tag.part.29
   fun:_ZNSsC1EPKcmRKSaIcE
   fun:_ZN5clang17CodeGeneratorImpl11StartModuleERKSsRN4llvm11LLVMContextERKNS_14CodeGenOptionsE
   fun:_ZN5cling17IncrementalParser18codeGenTransactionEPNS_11TransactionE
   fun:_ZN5cling17IncrementalParser17commitTransactionEN4llvm14PointerIntPairIPNS_11TransactionELj2ENS0_12EParseResultENS1_21PointerLikeTypeTraitsIS4_EEEE
   fun:_ZNK5cling11Interpreter19PushTransactionRAII3popEv
   fun:_ZN6TCling14InspectMembersER16TMemberInspectorPKvPK6TClassb
   fun:_ZNK6TClass15CallShowMembersEPKvR16TMemberInspectorb
   fun:_ZN6TClass13BuildRealDataEPvb
   fun:_ZN5TTree17BuildStreamerInfoEP6TClassPvb
}

{
   basf2 suppression 747
   Memcheck:Leak
   fun:_Znwm
   fun:_ZNSs4_Rep9_S_createEmmRKSaIcE
   fun:_ZNSs12_S_constructIPKcEEPcT_S3_RKSaIcESt20forward_iterator_tag.part.29
   fun:_ZNSsC1EPKcmRKSaIcE
   fun:_ZL16ParseCodeGenArgsRN5clang14CodeGenOptionsERN4llvm3opt7ArgListENS_9InputKindERNS_17DiagnosticsEngineERKNS_13TargetOptionsE.constprop.333
   fun:_ZN5clang18CompilerInvocation14CreateFromArgsERS0_PKPKcS5_RNS_17DiagnosticsEngineE
   fun:_ZN12_GLOBAL__N_1L12createCIImplESt10unique_ptrIN4llvm12MemoryBufferESt14default_deleteIS2_EEiPKPKcS7_b
   fun:_ZN5cling9CIFactory8createCIEN4llvm9StringRefEiPKPKcS4_
   fun:_ZN5cling17IncrementalParserC1EPNS_11InterpreterEiPKPKcS4_
   fun:_ZN5cling11InterpreterC1EiPKPKcS2_b
   fun:_ZN6TClingC1EPKcS1_
   fun:CreateInterpreter
}

{
   basf2 suppression 748
   Memcheck:Leak
   fun:malloc
   fun:PyUnicode_New
   fun:_PyUnicode_FromUCS1
   fun:r_object
   fun:r_object
   fun:r_object
   fun:r_object
   fun:r_object
   fun:PyMarshal_ReadObjectFromString
   fun:PyImport_ImportFrozenModuleObject
   fun:PyImport_ImportFrozenModule
   fun:import_init.isra.3
}

{
   basf2 suppression 749
   Memcheck:Leak
   fun:malloc
   fun:PyUnicode_New
   fun:_PyUnicode_FromUCS1
   fun:r_object
   fun:r_object
   fun:r_object
   fun:r_object
   fun:r_object
   fun:r_object
   fun:r_object
   fun:PyMarshal_ReadObjectFromString
   fun:PyImport_ImportFrozenModuleObject
}

{
   basf2 suppression 750
   Memcheck:Leak
   fun:malloc
   fun:PyUnicode_New
   fun:_PyUnicode_FromUCS1
   fun:r_object
   fun:r_object
   fun:r_object
   fun:r_object
   fun:r_object
   fun:r_object
   fun:r_object
   fun:marshal_loads
   fun:PyCFunction_Call
}

{
   basf2 suppression 751
   Memcheck:Leak
   fun:malloc
   fun:PyUnicode_New
   fun:_PyUnicode_FromUCS1
   fun:r_object
   fun:r_object
   fun:r_object
   fun:r_object
   fun:r_object
   fun:PyMarshal_ReadObjectFromString
   fun:PyImport_ImportFrozenModuleObject
   fun:PyImport_ImportFrozenModule
   fun:import_init.isra.3
}

{
   basf2 suppression 752
   Memcheck:Leak
   fun:malloc
   fun:PyUnicode_New
   fun:_PyUnicode_FromUCS1
   fun:r_object
   fun:r_object
   fun:r_object
   fun:r_object
   fun:r_object
   fun:r_object
   fun:r_object
   fun:PyMarshal_ReadObjectFromString
   fun:_imp_get_frozen_object
}

{
   basf2 suppression 753
   Memcheck:Leak
   fun:malloc
   fun:PyUnicode_New
   fun:_PyUnicode_FromUCS1
   fun:r_object
   fun:r_object
   fun:r_object
   fun:r_object
   fun:r_object
   fun:marshal_loads
   fun:PyCFunction_Call
   fun:PyEval_EvalFrameEx
   fun:_PyEval_EvalCodeWithName
}

{
   basf2 suppression 754
   Memcheck:Leak
   fun:malloc
   fun:PyUnicode_New
   fun:unicode_getitem
   fun:unicode_subscript
   fun:PyEval_EvalFrameEx
   fun:PyEval_EvalFrameEx
   fun:_PyEval_EvalCodeWithName
   fun:PyEval_EvalCodeEx
   fun:function_call
   fun:PyObject_Call
   fun:method_call
   fun:PyObject_Call
}

{
   basf2 suppression 755
   Memcheck:Leak
   fun:malloc
   fun:PyUnicode_New
   fun:PyUnicode_FromOrdinal
   fun:unicodeiter_next
   fun:PyIter_Next
   fun:set_update_internal
   fun:frozenset_new
   fun:type_call
   fun:PyObject_Call
   fun:PyEval_EvalFrameEx
   fun:_PyEval_EvalCodeWithName
   fun:PyEval_EvalCodeEx
}

{
   basf2 suppression 756
   Memcheck:Leak
   fun:_Znwm
   fun:_ZNSs4_Rep9_S_createEmmRKSaIcE
   fun:_ZNSs12_S_constructIPKcEEPcT_S3_RKSaIcESt20forward_iterator_tag.part.29
   fun:_ZNSsC1EPKcRKSaIcE
   fun:_GLOBAL__sub_I_G4ChipsKaonMinusInelasticXS.cc
   fun:_dl_init
   fun:dl_open_worker
   fun:_dl_catch_error
   fun:_dl_open
   fun:dlopen_doit
   fun:_dl_catch_error
   fun:_dlerror_run
}

{
   basf2 suppression 757
   Memcheck:Leak
   fun:_Znwm
   fun:_ZNSs4_Rep9_S_createEmmRKSaIcE
   fun:_ZNSs12_S_constructIPKcEEPcT_S3_RKSaIcESt20forward_iterator_tag.part.29
   fun:_ZNSsC1EPKcRKSaIcE
   fun:_GLOBAL__sub_I_G4ChipsPionMinusInelasticXS.cc
   fun:_dl_init
   fun:dl_open_worker
   fun:_dl_catch_error
   fun:_dl_open
   fun:dlopen_doit
   fun:_dl_catch_error
   fun:_dlerror_run
}

{
   basf2 suppression 758
   Memcheck:Leak
   fun:_Znwm
   fun:_ZNSs4_Rep9_S_createEmmRKSaIcE
   fun:_ZNSs12_S_constructIPKcEEPcT_S3_RKSaIcESt20forward_iterator_tag.part.29
   fun:_ZNSsC1EPKcRKSaIcE
   fun:_GLOBAL__sub_I_G4RadioactiveDecayPhysics.cc
   fun:_dl_init
   fun:dl_open_worker
   fun:_dl_catch_error
   fun:_dl_open
   fun:dlopen_doit
   fun:_dl_catch_error
   fun:_dlerror_run
}

{
   basf2 suppression 759
   Memcheck:Leak
   fun:_Znwm
   fun:_ZNSs4_Rep9_S_createEmmRKSaIcE
   fun:_ZNSs12_S_constructIPKcEEPcT_S3_RKSaIcESt20forward_iterator_tag.part.29
   fun:_ZNSsC1EPKcRKSaIcE
   fun:_GLOBAL__sub_I_G4IonBinaryCascadePhysics.cc
   fun:_dl_init
   fun:dl_open_worker
   fun:_dl_catch_error
   fun:_dl_open
   fun:dlopen_doit
   fun:_dl_catch_error
   fun:_dlerror_run
}

{
   basf2 suppression 760
   Memcheck:Leak
   fun:malloc
   fun:PyUnicode_New
   fun:_PyUnicode_FromASCII
   fun:unicode_subscript
   fun:PyEval_EvalFrameEx
   fun:_PyEval_EvalCodeWithName
   fun:PyEval_EvalCodeEx
   fun:PyEval_EvalCode
   fun:builtin_exec
   fun:PyCFunction_Call
   fun:PyEval_EvalFrameEx
   fun:_PyEval_EvalCodeWithName
}

{
   basf2 suppression 761
   Memcheck:Leak
   fun:_Znwm
   fun:_ZNSs4_Rep9_S_createEmmRKSaIcE
   fun:_ZNSs4_Rep8_M_cloneERKSaIcEm
   fun:_ZNSs7reserveEm
   fun:_ZNSs6appendEPKcm
   fun:_ZN6PyROOT16CreateScopeProxyERKSsP7_object
   fun:_ZN6PyROOT16CreateScopeProxyEl
   fun:_ZN6PyROOT19BindCppObjectNoCastEPvlbb
   fun:_ZN6PyROOT8InitRootEv
   fun:PyInit_libPyROOT
   fun:_PyImport_LoadDynamicModuleWithSpec
   fun:_imp_create_dynamic
}

{
   basf2 suppression 762
   Memcheck:Leak
   fun:_Znwm
   fun:_ZNSs4_Rep9_S_createEmmRKSaIcE
   fun:_ZNSs12_S_constructIPKcEEPcT_S3_RKSaIcESt20forward_iterator_tag.part.29
   fun:_ZNSsC1EPKcRKSaIcE
   fun:_GLOBAL__sub_I_G4ChipsAntiBaryonInelasticXS.cc
   fun:_dl_init
   fun:dl_open_worker
   fun:_dl_catch_error
   fun:_dl_open
   fun:dlopen_doit
   fun:_dl_catch_error
   fun:_dlerror_run
}

{
   basf2 suppression 763
   Memcheck:Leak
   fun:_Znwm
   fun:_ZNSs4_Rep9_S_createEmmRKSaIcE
   fun:_ZNSs12_S_constructIPKcEEPcT_S3_RKSaIcESt20forward_iterator_tag.part.29
   fun:_ZNSsC1EPKcRKSaIcE
   fun:_GLOBAL__sub_I_G4HadronElasticPhysicsLEND.cc
   fun:_dl_init
   fun:dl_open_worker
   fun:_dl_catch_error
   fun:_dl_open
   fun:dlopen_doit
   fun:_dl_catch_error
   fun:_dlerror_run
}

{
   basf2 suppression 764
   Memcheck:Leak
   fun:_Znwm
   fun:_ZNSs4_Rep9_S_createEmmRKSaIcE
   fun:_ZNSs12_S_constructIPKcEEPcT_S3_RKSaIcESt20forward_iterator_tag.part.29
   fun:_ZNSsC1EPKcRKSaIcE
   fun:_GLOBAL__sub_I_G4HadronPhysicsQGSP_BIC_HP.cc
   fun:_dl_init
   fun:dl_open_worker
   fun:_dl_catch_error
   fun:_dl_open
   fun:dlopen_doit
   fun:_dl_catch_error
   fun:_dlerror_run
}

{
   basf2 suppression 765
   Memcheck:Leak
   fun:_Znwm
   fun:_ZNSs4_Rep9_S_createEmmRKSaIcE
   fun:_ZNSs12_S_constructIPKcEEPcT_S3_RKSaIcESt20forward_iterator_tag.part.29
   fun:_ZNSsC1EPKcRKSaIcE
   fun:_ZN19G4GeometryMessengerC1EP23G4TransportationManager
   fun:_ZN23G4TransportationManagerC1Ev
   fun:_ZN23G4TransportationManager24GetTransportationManagerEv
   fun:_ZN17G4SteppingManagerC1Ev
   fun:_ZN17G4TrackingManagerC1Ev
   fun:_ZN14G4EventManagerC1Ev
   fun:_ZN18G4RunManagerKernelC1Ev
   fun:_ZN12G4RunManagerC1Ev
}

{
   basf2 suppression 766
   Memcheck:Leak
   fun:_Znwm
   fun:_ZNSs4_Rep9_S_createEmmRKSaIcE
   fun:_ZNSs12_S_constructIPKcEEPcT_S3_RKSaIcESt20forward_iterator_tag.part.29
   fun:_ZNSsC1EPKcRKSaIcE
   fun:_ZN21G4EnergyLossMessengerC1Ev
   fun:_ZN18G4LossTableManagerC1Ev
   fun:_ZN18G4LossTableManager8InstanceEv
   fun:_ZN20G4VEnergyLossProcessC1ERK8G4String13G4ProcessType
   fun:_ZN18G4MuBremsstrahlungC1ERK8G4String
   fun:_ZN19G4EmStandardPhysics16ConstructProcessEv
   fun:_ZN21G4VModularPhysicsList16ConstructProcessEv
   fun:_ZN18G4RunManagerKernel17InitializePhysicsEv
}

{
   basf2 suppression 767
   Memcheck:Leak
   fun:malloc
   fun:PyUnicode_New
   fun:_PyUnicodeWriter_PrepareInternal
   fun:PyUnicode_DecodeUTF8Stateful
   fun:PyDict_SetItemString
   fun:_PyBuiltin_Init
   fun:_Py_InitializeEx_Private
   fun:main
}

{
   basf2 suppression 768
   Memcheck:Leak
   fun:malloc
   fun:PyUnicode_New
   fun:_PyUnicodeWriter_PrepareInternal
   fun:PyUnicode_DecodeUTF8Stateful
   fun:init_types.part.2
   fun:PyInit__ast
   fun:_imp_create_builtin
   fun:PyCFunction_Call
   fun:PyEval_EvalFrameEx
   fun:_PyEval_EvalCodeWithName
   fun:PyEval_EvalFrameEx
   fun:PyEval_EvalFrameEx
}

{
   basf2 suppression 769
   Memcheck:Leak
   fun:_Znwm
   fun:_ZNSs4_Rep9_S_createEmmRKSaIcE
   fun:_ZNSs12_S_constructIPKcEEPcT_S3_RKSaIcESt20forward_iterator_tag.part.29
   fun:_ZNSsC1EPKcRKSaIcE
   fun:_GLOBAL__sub_I_G4EmStandardPhysics_option2.cc
   fun:_dl_init
   fun:dl_open_worker
   fun:_dl_catch_error
   fun:_dl_open
   fun:dlopen_doit
   fun:_dl_catch_error
   fun:_dlerror_run
}

{
   basf2 suppression 770
   Memcheck:Leak
   fun:_Znwm
   fun:_ZNSs4_Rep9_S_createEmmRKSaIcE
   fun:_ZNSs12_S_constructIPKcEEPcT_S3_RKSaIcESt20forward_iterator_tag.part.29
   fun:_ZNSsC1EPKcRKSaIcE
   fun:_GLOBAL__sub_I_G4EmStandardPhysics_option3.cc
   fun:_dl_init
   fun:dl_open_worker
   fun:_dl_catch_error
   fun:_dl_open
   fun:dlopen_doit
   fun:_dl_catch_error
   fun:_dlerror_run
}

{
   basf2 suppression 771
   Memcheck:Leak
   fun:_Znwm
   fun:_ZNSs4_Rep9_S_createEmmRKSaIcE
   fun:_ZNSs12_S_constructIPKcEEPcT_S3_RKSaIcESt20forward_iterator_tag.part.29
   fun:_ZNSsC1EPKcRKSaIcE
   fun:_GLOBAL__sub_I_G4EmStandardPhysics_option4.cc
   fun:_dl_init
   fun:dl_open_worker
   fun:_dl_catch_error
   fun:_dl_open
   fun:dlopen_doit
   fun:_dl_catch_error
   fun:_dlerror_run
}

{
   basf2 suppression 772
   Memcheck:Leak
   fun:_Znwm
   fun:_ZNSs4_Rep9_S_createEmmRKSaIcE
   fun:_ZNSs12_S_constructIPKcEEPcT_S3_RKSaIcESt20forward_iterator_tag.part.29
   fun:_ZNSsC1EPKcRKSaIcE
   fun:_GLOBAL__sub_I_G4HadronPhysicsFTFP_BERT_HP.cc
   fun:_dl_init
   fun:dl_open_worker
   fun:_dl_catch_error
   fun:_dl_open
   fun:dlopen_doit
   fun:_dl_catch_error
   fun:_dlerror_run
}

{
   basf2 suppression 773
   Memcheck:Leak
   fun:_Znwm
   fun:_ZNSs4_Rep9_S_createEmmRKSaIcE
   fun:_ZNSs12_S_constructIPKcEEPcT_S3_RKSaIcESt20forward_iterator_tag.part.29
   fun:_ZNSsC1EPKcRKSaIcE
   fun:_GLOBAL__sub_I_G4EmStandardPhysics_option1.cc
   fun:_dl_init
   fun:dl_open_worker
   fun:_dl_catch_error
   fun:_dl_open
   fun:dlopen_doit
   fun:_dl_catch_error
   fun:_dlerror_run
}

{
   basf2 suppression 774
   Memcheck:Leak
   fun:_Znwm
   fun:_ZNSs4_Rep9_S_createEmmRKSaIcE
   fun:_ZNSs12_S_constructIPKcEEPcT_S3_RKSaIcESt20forward_iterator_tag.part.29
   fun:_ZNSsC1EPKcRKSaIcE
   fun:_GLOBAL__sub_I_G4HadronPhysicsQGSP_BERT_HP.cc
   fun:_dl_init
   fun:dl_open_worker
   fun:_dl_catch_error
   fun:_dl_open
   fun:dlopen_doit
   fun:_dl_catch_error
   fun:_dlerror_run
}

{
   basf2 suppression 775
   Memcheck:Leak
   fun:_Znwm
   fun:_ZNSs4_Rep9_S_createEmmRKSaIcE
   fun:_ZNSs12_S_constructIPKcEEPcT_S3_RKSaIcESt20forward_iterator_tag.part.29
   fun:_ZNSsC1EPKcRKSaIcE
   fun:_ZN18G4PhysListRegistry8InstanceEv
   fun:_GLOBAL__sub_I_G4RegisterPhysLists.cc
   fun:_dl_init
   fun:dl_open_worker
   fun:_dl_catch_error
   fun:_dl_open
   fun:dlopen_doit
   fun:_dl_catch_error
}

{
   basf2 suppression 776
   Memcheck:Leak
   fun:_Znwm
   fun:_ZNSs4_Rep9_S_createEmmRKSaIcE
   fun:_ZNSs12_S_constructIPKcEEPcT_S3_RKSaIcESt20forward_iterator_tag.part.29
   fun:_ZNSsC1EPKcRKSaIcE
   fun:_ZN18G4PhysListRegistry8InstanceEv
   fun:_GLOBAL__sub_I_G4RegisterPhysLists.cc
   fun:_dl_init
   fun:dl_open_worker
   fun:_dl_catch_error
   fun:_dl_open
   fun:dlopen_doit
   fun:_dl_catch_error
}

{
   basf2 suppression 777
   Memcheck:Leak
   fun:_Znwm
   fun:_ZNSs4_Rep9_S_createEmmRKSaIcE
   fun:_ZNSs12_S_constructIPKcEEPcT_S3_RKSaIcESt20forward_iterator_tag.part.29
   fun:_ZNSsC1EPKcRKSaIcE
   fun:_ZN18G4PhysListRegistry8InstanceEv
   fun:_GLOBAL__sub_I_G4RegisterPhysLists.cc
   fun:_dl_init
   fun:dl_open_worker
   fun:_dl_catch_error
   fun:_dl_open
   fun:dlopen_doit
   fun:_dl_catch_error
}

{
   basf2 suppression 778
   Memcheck:Leak
   fun:_Znwm
   fun:_ZNSs4_Rep9_S_createEmmRKSaIcE
   fun:_ZNSs12_S_constructIPKcEEPcT_S3_RKSaIcESt20forward_iterator_tag.part.29
   fun:_ZNSsC1EPKcRKSaIcE
   fun:_ZN18G4PhysListRegistry8InstanceEv
   fun:_GLOBAL__sub_I_G4RegisterPhysLists.cc
   fun:_dl_init
   fun:dl_open_worker
   fun:_dl_catch_error
   fun:_dl_open
   fun:dlopen_doit
   fun:_dl_catch_error
}

{
   basf2 suppression 779
   Memcheck:Leak
   fun:_Znwm
   fun:_ZNSs4_Rep9_S_createEmmRKSaIcE
   fun:_ZNSs12_S_constructIPKcEEPcT_S3_RKSaIcESt20forward_iterator_tag.part.29
   fun:_ZNSsC1EPKcRKSaIcE
   fun:_ZN21G4EnergyLossMessengerC1Ev
   fun:_ZN18G4LossTableManagerC1Ev
   fun:_ZN18G4LossTableManager8InstanceEv
   fun:_ZN20G4VEnergyLossProcessC1ERK8G4String13G4ProcessType
   fun:_ZN18G4MuBremsstrahlungC1ERK8G4String
   fun:_ZN19G4EmStandardPhysics16ConstructProcessEv
   fun:_ZN21G4VModularPhysicsList16ConstructProcessEv
   fun:_ZN18G4RunManagerKernel17InitializePhysicsEv
}

{
   basf2 suppression 780
   Memcheck:Leak
   fun:malloc
   fun:PyUnicode_New
   fun:_PyUnicode_FromUCS1
   fun:r_object
   fun:r_object
   fun:r_object
   fun:r_object
   fun:marshal_loads
   fun:PyCFunction_Call
   fun:PyEval_EvalFrameEx
   fun:_PyEval_EvalCodeWithName
   fun:PyEval_EvalFrameEx
}

{
   basf2 suppression 781
   Memcheck:Leak
   fun:malloc
   fun:PyUnicode_New
   fun:_PyUnicodeWriter_PrepareInternal
   fun:PyUnicode_DecodeUTF8Stateful
   fun:PyDict_SetItemString
   fun:_PyBuiltin_Init
   fun:_Py_InitializeEx_Private
   fun:main
}

{
   basf2 suppression 782
   Memcheck:Leak
   fun:malloc
   fun:PyUnicode_New
   fun:_PyUnicodeWriter_PrepareInternal
   fun:PyUnicode_DecodeUTF8Stateful
   fun:PyDict_SetItemString
   fun:_PyBuiltin_Init
   fun:_Py_InitializeEx_Private
   fun:main
}

{
   basf2 suppression 783
   Memcheck:Leak
   fun:malloc
   fun:PyUnicode_New
   fun:_PyUnicode_FromUCS1
   fun:r_object
   fun:r_object
   fun:r_object
   fun:r_object
   fun:r_object
   fun:PyMarshal_ReadObjectFromString
   fun:PyImport_ImportFrozenModuleObject
   fun:PyImport_ImportFrozenModule
   fun:import_init.isra.3
}

{
   basf2 suppression 784
   Memcheck:Leak
   fun:malloc
   fun:PyUnicode_New
   fun:_PyUnicodeWriter_PrepareInternal
   fun:PyUnicode_DecodeUTF8Stateful
   fun:make_type.constprop.62
   fun:init_types
   fun:PyInit__ast
   fun:_imp_create_builtin
   fun:PyCFunction_Call
   fun:PyEval_EvalFrameEx
   fun:_PyEval_EvalCodeWithName
   fun:PyEval_EvalFrameEx
}

{
   basf2 suppression 785
   Memcheck:Leak
   fun:malloc
   fun:PyUnicode_New
   fun:_PyUnicodeWriter_PrepareInternal
   fun:PyUnicode_DecodeUTF8Stateful
   fun:do_mkvalue
   fun:do_mkvalue
   fun:do_mktuple
   fun:Py_VaBuildValue
   fun:PyObject_CallFunction
   fun:make_type.constprop.62
   fun:init_types
   fun:PyInit__ast
}

{
   basf2 suppression 786
   Memcheck:Leak
   fun:malloc
   fun:PyUnicode_New
   fun:_PyUnicodeWriter_PrepareInternal
   fun:PyUnicode_DecodeUTF8Stateful
   fun:make_type.constprop.62
   fun:init_types.part.2
   fun:PyInit__ast
   fun:_imp_create_builtin
   fun:PyCFunction_Call
   fun:PyEval_EvalFrameEx
   fun:_PyEval_EvalCodeWithName
   fun:PyEval_EvalFrameEx
}

{
   basf2 suppression 787
   Memcheck:Leak
   fun:malloc
   fun:PyUnicode_New
   fun:_PyUnicodeWriter_PrepareInternal
   fun:PyUnicode_DecodeUTF8Stateful
   fun:do_mkvalue
   fun:do_mkvalue
   fun:do_mktuple
   fun:Py_VaBuildValue
   fun:PyObject_CallFunction
   fun:make_type.constprop.62
   fun:init_types.part.2
   fun:PyInit__ast
}

{
   basf2 suppression 788
   Memcheck:Leak
   fun:malloc
   fun:PyUnicode_New
   fun:_PyUnicodeWriter_PrepareInternal
   fun:PyUnicode_DecodeUTF8Stateful
   fun:make_type.constprop.62
   fun:init_types.part.2
   fun:PyInit__ast
   fun:_imp_create_builtin
   fun:PyCFunction_Call
   fun:PyEval_EvalFrameEx
   fun:_PyEval_EvalCodeWithName
   fun:PyEval_EvalFrameEx
}

{
   basf2 suppression 789
   Memcheck:Leak
   fun:malloc
   fun:PyUnicode_New
   fun:_PyUnicodeWriter_PrepareInternal
   fun:PyUnicode_DecodeUTF8Stateful
   fun:do_mkvalue
   fun:do_mkvalue
   fun:do_mktuple
   fun:Py_VaBuildValue
   fun:PyObject_CallFunction
   fun:make_type.constprop.62
   fun:init_types.part.2
   fun:PyInit__ast
}

{
   basf2 suppression 790
   Memcheck:Leak
   fun:malloc
   fun:PyUnicode_New
   fun:_PyUnicodeWriter_PrepareInternal
   fun:PyUnicode_DecodeUTF8Stateful
   fun:make_type.constprop.62
   fun:init_types.part.2
   fun:PyInit__ast
   fun:_imp_create_builtin
   fun:PyCFunction_Call
   fun:PyEval_EvalFrameEx
   fun:_PyEval_EvalCodeWithName
   fun:PyEval_EvalFrameEx
}

{
   basf2 suppression 791
   Memcheck:Leak
   fun:malloc
   fun:PyUnicode_New
   fun:_PyUnicodeWriter_PrepareInternal
   fun:PyUnicode_DecodeUTF8Stateful
   fun:do_mkvalue
   fun:do_mkvalue
   fun:do_mktuple
   fun:Py_VaBuildValue
   fun:PyObject_CallFunction
   fun:make_type.constprop.62
   fun:init_types.part.2
   fun:PyInit__ast
}

{
   basf2 suppression 792
   Memcheck:Leak
   fun:malloc
   fun:PyUnicode_New
   fun:_PyUnicodeWriter_PrepareInternal
   fun:PyUnicode_DecodeUTF8Stateful
   fun:do_mkvalue
   fun:do_mkvalue
   fun:do_mktuple
   fun:Py_VaBuildValue
   fun:PyObject_CallFunction
   fun:init_types.part.2
   fun:PyInit__ast
   fun:_imp_create_builtin
}

{
   basf2 suppression 793
   Memcheck:Leak
   fun:malloc
   fun:PyUnicode_New
   fun:_PyUnicodeWriter_PrepareInternal
   fun:PyUnicode_DecodeUTF8Stateful
   fun:do_mkvalue
   fun:do_mkvalue
   fun:do_mktuple
   fun:Py_VaBuildValue
   fun:PyObject_CallFunction
   fun:init_types.part.2
   fun:PyInit__ast
   fun:_imp_create_builtin
}

{
   basf2 suppression 794
   Memcheck:Leak
   fun:malloc
   fun:PyUnicode_New
   fun:_PyUnicodeWriter_PrepareInternal
   fun:PyUnicode_DecodeUTF8Stateful
   fun:do_mkvalue
   fun:do_mkvalue
   fun:do_mktuple
   fun:Py_VaBuildValue
   fun:PyObject_CallFunction
   fun:init_types.part.2
   fun:PyInit__ast
   fun:_imp_create_builtin
}

{
   basf2 suppression 795
   Memcheck:Leak
   fun:malloc
   fun:PyUnicode_New
   fun:_PyUnicodeWriter_PrepareInternal
   fun:PyUnicode_DecodeUTF8Stateful
   fun:do_mkvalue
   fun:do_mkvalue
   fun:do_mktuple
   fun:Py_VaBuildValue
   fun:PyObject_CallFunction
   fun:make_type.constprop.62
   fun:init_types.part.2
   fun:PyInit__ast
}

{
   basf2 suppression 796
   Memcheck:Leak
   fun:malloc
   fun:PyUnicode_New
   fun:_PyUnicodeWriter_PrepareInternal
   fun:PyUnicode_DecodeUTF8Stateful
   fun:do_mkvalue
   fun:do_mkvalue
   fun:do_mktuple
   fun:Py_VaBuildValue
   fun:PyObject_CallFunction
   fun:make_type.constprop.62
   fun:init_types.part.2
   fun:PyInit__ast
}

{
   basf2 suppression 797
   Memcheck:Leak
   fun:malloc
   fun:PyUnicode_New
   fun:_PyUnicodeWriter_PrepareInternal
   fun:PyUnicode_DecodeUTF8Stateful
   fun:do_mkvalue
   fun:do_mkvalue
   fun:do_mktuple
   fun:Py_VaBuildValue
   fun:PyObject_CallFunction
   fun:init_types.part.2
   fun:PyInit__ast
   fun:_imp_create_builtin
}

{
   basf2 suppression 798
   Memcheck:Leak
   fun:malloc
   fun:PyUnicode_New
   fun:_PyUnicodeWriter_PrepareInternal
   fun:PyUnicode_DecodeUTF8Stateful
   fun:do_mkvalue
   fun:do_mkvalue
   fun:do_mktuple
   fun:Py_VaBuildValue
   fun:PyObject_CallFunction
   fun:init_types.part.2
   fun:PyInit__ast
   fun:_imp_create_builtin
}

{
   basf2 suppression 799
   Memcheck:Leak
   fun:malloc
   fun:PyUnicode_New
   fun:_PyUnicodeWriter_PrepareInternal
   fun:PyUnicode_DecodeUTF8Stateful
   fun:do_mkvalue
   fun:do_mkvalue
   fun:do_mktuple
   fun:Py_VaBuildValue
   fun:PyObject_CallFunction
   fun:init_types.part.2
   fun:PyInit__ast
   fun:_imp_create_builtin
}

{
   basf2 suppression 800
   Memcheck:Leak
   fun:malloc
   fun:PyUnicode_New
   fun:_PyUnicodeWriter_PrepareInternal
   fun:PyUnicode_DecodeUTF8Stateful
   fun:do_mkvalue
   fun:do_mkvalue
   fun:do_mktuple
   fun:Py_VaBuildValue
   fun:PyObject_CallFunction
   fun:init_types.part.2
   fun:PyInit__ast
   fun:_imp_create_builtin
}

{
   basf2 suppression 801
   Memcheck:Leak
   fun:malloc
   fun:PyUnicode_New
   fun:_PyUnicodeWriter_PrepareInternal
   fun:PyUnicode_DecodeUTF8Stateful
   fun:do_mkvalue
   fun:do_mkvalue
   fun:do_mktuple
   fun:Py_VaBuildValue
   fun:PyObject_CallFunction
   fun:init_types.part.2
   fun:PyInit__ast
   fun:_imp_create_builtin
}

{
   basf2 suppression 802
   Memcheck:Leak
   fun:malloc
   fun:PyUnicode_New
   fun:_PyUnicodeWriter_PrepareInternal
   fun:PyUnicode_DecodeUTF8Stateful
   fun:do_mkvalue
   fun:do_mkvalue
   fun:do_mktuple
   fun:Py_VaBuildValue
   fun:PyObject_CallFunction
   fun:init_types.part.2
   fun:PyInit__ast
   fun:_imp_create_builtin
}

{
   basf2 suppression 803
   Memcheck:Leak
   fun:malloc
   fun:PyUnicode_New
   fun:_PyUnicodeWriter_PrepareInternal
   fun:PyUnicode_DecodeUTF8Stateful
   fun:init_types.part.2
   fun:PyInit__ast
   fun:_imp_create_builtin
   fun:PyCFunction_Call
   fun:PyEval_EvalFrameEx
   fun:_PyEval_EvalCodeWithName
   fun:PyEval_EvalFrameEx
   fun:PyEval_EvalFrameEx
}

{
   basf2 suppression 804
   Memcheck:Leak
   fun:malloc
   fun:PyUnicode_New
   fun:_PyUnicodeWriter_PrepareInternal
   fun:PyUnicode_DecodeUTF8Stateful
   fun:do_mkvalue
   fun:do_mkvalue
   fun:do_mktuple
   fun:Py_VaBuildValue
   fun:PyObject_CallFunction
   fun:init_types.part.2
   fun:PyInit__ast
   fun:_imp_create_builtin
}

{
   basf2 suppression 805
   Memcheck:Leak
   fun:malloc
   fun:PyUnicode_New
   fun:_PyUnicodeWriter_PrepareInternal
   fun:PyUnicode_DecodeUTF8Stateful
   fun:init_types.part.2
   fun:PyInit__ast
   fun:_imp_create_builtin
   fun:PyCFunction_Call
   fun:PyEval_EvalFrameEx
   fun:_PyEval_EvalCodeWithName
   fun:PyEval_EvalFrameEx
   fun:PyEval_EvalFrameEx
}

{
   basf2 suppression 806
   Memcheck:Leak
   fun:malloc
   fun:PyUnicode_New
   fun:_PyUnicodeWriter_PrepareInternal
   fun:PyUnicode_DecodeUTF8Stateful
   fun:do_mkvalue
   fun:do_mkvalue
   fun:do_mktuple
   fun:Py_VaBuildValue
   fun:PyObject_CallFunction
   fun:init_types.part.2
   fun:PyInit__ast
   fun:_imp_create_builtin
}

{
   basf2 suppression 807
   Memcheck:Leak
   fun:malloc
   fun:PyUnicode_New
   fun:_PyUnicodeWriter_PrepareInternal
   fun:PyUnicode_DecodeUTF8Stateful
   fun:do_mkvalue
   fun:do_mkvalue
   fun:do_mktuple
   fun:Py_VaBuildValue
   fun:PyObject_CallFunction
   fun:init_types.part.2
   fun:PyInit__ast
   fun:_imp_create_builtin
}

{
   basf2 suppression 808
   Memcheck:Leak
   fun:malloc
   fun:PyUnicode_New
   fun:_PyUnicodeWriter_PrepareInternal
   fun:PyUnicode_DecodeUTF8Stateful
   fun:do_mkvalue
   fun:do_mkvalue
   fun:do_mktuple
   fun:Py_VaBuildValue
   fun:PyObject_CallFunction
   fun:make_type
   fun:init_types.part.2
   fun:PyInit__ast
}

{
   basf2 suppression 809
   Memcheck:Leak
   fun:malloc
   fun:PyUnicode_New
   fun:_PyUnicodeWriter_PrepareInternal
   fun:PyUnicode_DecodeUTF8Stateful
   fun:do_mkvalue
   fun:do_mkvalue
   fun:do_mktuple
   fun:Py_VaBuildValue
   fun:PyObject_CallFunction
   fun:make_type
   fun:init_types.part.2
   fun:PyInit__ast
}

{
   basf2 suppression 810
   Memcheck:Leak
   fun:malloc
   fun:PyUnicode_New
   fun:_PyUnicodeWriter_PrepareInternal
   fun:PyUnicode_DecodeUTF8Stateful
   fun:do_mkvalue
   fun:do_mkvalue
   fun:do_mktuple
   fun:Py_VaBuildValue
   fun:PyObject_CallFunction
   fun:make_type.constprop.62
   fun:init_types.part.2
   fun:PyInit__ast
}

{
   basf2 suppression 811
   Memcheck:Leak
   fun:malloc
   fun:PyUnicode_New
   fun:_PyUnicodeWriter_PrepareInternal
   fun:PyUnicode_DecodeUTF8Stateful
   fun:do_mkvalue
   fun:do_mkvalue
   fun:do_mktuple
   fun:Py_VaBuildValue
   fun:PyObject_CallFunction
   fun:make_type
   fun:init_types.part.2
   fun:PyInit__ast
}

{
   basf2 suppression 812
   Memcheck:Leak
   fun:malloc
   fun:PyUnicode_New
   fun:_PyUnicodeWriter_PrepareInternal
   fun:PyUnicode_DecodeUTF8Stateful
   fun:do_mkvalue
   fun:do_mkvalue
   fun:do_mktuple
   fun:Py_VaBuildValue
   fun:PyObject_CallFunction
   fun:make_type.constprop.62
   fun:init_types.part.2
   fun:PyInit__ast
}

{
   basf2 suppression 813
   Memcheck:Leak
   fun:malloc
   fun:PyUnicode_New
   fun:_PyUnicodeWriter_PrepareInternal
   fun:PyUnicode_DecodeUTF8Stateful
   fun:do_mkvalue
   fun:do_mkvalue
   fun:do_mktuple
   fun:Py_VaBuildValue
   fun:PyObject_CallFunction
   fun:make_type.constprop.62
   fun:init_types.part.2
   fun:PyInit__ast
}

{
   basf2 suppression 814
   Memcheck:Leak
   fun:malloc
   fun:PyUnicode_New
   fun:_PyUnicodeWriter_PrepareInternal
   fun:PyUnicode_DecodeUTF8Stateful
   fun:do_mkvalue
   fun:do_mkvalue
   fun:do_mktuple
   fun:Py_VaBuildValue
   fun:PyObject_CallFunction
   fun:make_type.constprop.62
   fun:init_types.part.2
   fun:PyInit__ast
}

{
   basf2 suppression 815
   Memcheck:Leak
   fun:malloc
   fun:PyUnicode_New
   fun:_PyUnicodeWriter_PrepareInternal
   fun:PyUnicode_DecodeUTF8Stateful
   fun:do_mkvalue
   fun:do_mkvalue
   fun:do_mktuple
   fun:Py_VaBuildValue
   fun:PyObject_CallFunction
   fun:make_type.constprop.61
   fun:init_types.part.2
   fun:PyInit__ast
}

{
   basf2 suppression 816
   Memcheck:Leak
   fun:malloc
   fun:PyUnicode_New
   fun:_PyUnicodeWriter_PrepareInternal
   fun:PyUnicode_DecodeUTF8Stateful
   fun:do_mkvalue
   fun:do_mkvalue
   fun:do_mktuple
   fun:Py_VaBuildValue
   fun:PyObject_CallFunction
   fun:make_type.constprop.61
   fun:init_types.part.2
   fun:PyInit__ast
}

{
   basf2 suppression 817
   Memcheck:Leak
   fun:malloc
   fun:PyUnicode_New
   fun:_PyUnicodeWriter_PrepareInternal
   fun:PyUnicode_DecodeUTF8Stateful
   fun:do_mkvalue
   fun:do_mkvalue
   fun:do_mktuple
   fun:Py_VaBuildValue
   fun:PyObject_CallFunction
   fun:make_type.constprop.61
   fun:init_types.part.2
   fun:PyInit__ast
}

{
   basf2 suppression 818
   Memcheck:Leak
   fun:malloc
   fun:PyUnicode_New
   fun:_PyUnicodeWriter_PrepareInternal
   fun:PyUnicode_DecodeUTF8Stateful
   fun:do_mkvalue
   fun:do_mkvalue
   fun:do_mktuple
   fun:Py_VaBuildValue
   fun:PyObject_CallFunction
   fun:make_type
   fun:init_types.part.2
   fun:PyInit__ast
}

{
   basf2 suppression 819
   Memcheck:Leak
   fun:malloc
   fun:PyUnicode_New
   fun:_PyUnicodeWriter_PrepareInternal
   fun:PyUnicode_DecodeUTF8Stateful
   fun:do_mkvalue
   fun:do_mkvalue
   fun:do_mktuple
   fun:Py_VaBuildValue
   fun:PyObject_CallFunction
   fun:make_type
   fun:init_types.part.2
   fun:PyInit__ast
}

{
   basf2 suppression 820
   Memcheck:Leak
   fun:malloc
   fun:PyUnicode_New
   fun:_PyUnicodeWriter_PrepareInternal
   fun:PyUnicode_DecodeUTF8Stateful
   fun:do_mkvalue
   fun:do_mkvalue
   fun:do_mktuple
   fun:Py_VaBuildValue
   fun:PyObject_CallFunction
   fun:make_type
   fun:init_types.part.2
   fun:PyInit__ast
}

{
   basf2 suppression 821
   Memcheck:Leak
   fun:_Znwm
   fun:_ZNSs4_Rep9_S_createEmmRKSaIcE
   fun:_ZNSs12_S_constructIPKcEEPcT_S3_RKSaIcESt20forward_iterator_tag.part.29
   fun:_ZNSsC1EPKcRKSaIcE
   fun:_GLOBAL__sub_I_G4HadronPhysicsFTFP_BERT_TRV.cc
   fun:_dl_init
   fun:dl_open_worker
   fun:_dl_catch_error
   fun:_dl_open
   fun:dlopen_doit
   fun:_dl_catch_error
   fun:_dlerror_run
}

{
   basf2 suppression 822
   Memcheck:Leak
   fun:malloc
   fun:PyUnicode_New
   fun:_PyUnicodeWriter_PrepareInternal
   fun:PyUnicode_DecodeUTF8Stateful
   fun:do_mkvalue
   fun:do_mkvalue
   fun:do_mktuple
   fun:Py_VaBuildValue
   fun:PyObject_CallFunction
   fun:make_type
   fun:init_types.part.2
   fun:PyInit__ast
}

{
   basf2 suppression 823
   Memcheck:Leak
   fun:malloc
   fun:PyUnicode_New
   fun:_PyUnicodeWriter_PrepareInternal
   fun:PyUnicode_DecodeUTF8Stateful
   fun:do_mkvalue
   fun:do_mkvalue
   fun:do_mktuple
   fun:Py_VaBuildValue
   fun:PyObject_CallFunction
   fun:make_type
   fun:init_types.part.2
   fun:PyInit__ast
}

{
   basf2 suppression 824
   Memcheck:Leak
   fun:malloc
   fun:PyUnicode_New
   fun:_PyUnicodeWriter_PrepareInternal
   fun:PyUnicode_DecodeUTF8Stateful
   fun:do_mkvalue
   fun:do_mkvalue
   fun:do_mktuple
   fun:Py_VaBuildValue
   fun:PyObject_CallFunction
   fun:make_type
   fun:init_types.part.2
   fun:PyInit__ast
}

{
   basf2 suppression 825
   Memcheck:Leak
   fun:malloc
   fun:PyUnicode_New
   fun:_PyUnicodeWriter_PrepareInternal
   fun:PyUnicode_DecodeUTF8Stateful
   fun:make_type.constprop.62
   fun:init_types.part.2
   fun:PyInit__ast
   fun:_imp_create_builtin
   fun:PyCFunction_Call
   fun:PyEval_EvalFrameEx
   fun:_PyEval_EvalCodeWithName
   fun:PyEval_EvalFrameEx
}

{
   basf2 suppression 826
   Memcheck:Leak
   fun:malloc
   fun:PyUnicode_New
   fun:_PyUnicodeWriter_PrepareInternal
   fun:PyUnicode_DecodeUTF8Stateful
   fun:do_mkvalue
   fun:do_mkvalue
   fun:do_mktuple
   fun:Py_VaBuildValue
   fun:PyObject_CallFunction
   fun:make_type.constprop.62
   fun:init_types.part.2
   fun:PyInit__ast
}

{
   basf2 suppression 827
   Memcheck:Leak
   fun:malloc
   fun:PyUnicode_New
   fun:_PyUnicodeWriter_PrepareInternal
   fun:PyUnicode_DecodeUTF8Stateful
   fun:do_mkvalue
   fun:do_mkvalue
   fun:do_mktuple
   fun:Py_VaBuildValue
   fun:PyObject_CallFunction
   fun:make_type
   fun:init_types.part.2
   fun:PyInit__ast
}

{
   basf2 suppression 828
   Memcheck:Leak
   fun:malloc
   fun:PyUnicode_New
   fun:_PyUnicodeWriter_PrepareInternal
   fun:PyUnicode_DecodeUTF8Stateful
   fun:do_mkvalue
   fun:do_mkvalue
   fun:do_mktuple
   fun:Py_VaBuildValue
   fun:PyObject_CallFunction
   fun:make_type
   fun:init_types.part.2
   fun:PyInit__ast
}

{
   basf2 suppression 829
   Memcheck:Leak
   fun:malloc
   fun:PyUnicode_New
   fun:_PyUnicodeWriter_PrepareInternal
   fun:PyUnicode_DecodeUTF8Stateful
   fun:do_mkvalue
   fun:do_mkvalue
   fun:do_mktuple
   fun:Py_VaBuildValue
   fun:PyObject_CallFunction
   fun:make_type
   fun:init_types.part.2
   fun:PyInit__ast
}

{
   basf2 suppression 830
   Memcheck:Leak
   fun:malloc
   fun:PyUnicode_New
   fun:_PyUnicodeWriter_PrepareInternal
   fun:PyUnicode_DecodeUTF8Stateful
   fun:do_mkvalue
   fun:do_mkvalue
   fun:do_mktuple
   fun:Py_VaBuildValue
   fun:PyObject_CallFunction
   fun:make_type
   fun:init_types.part.2
   fun:PyInit__ast
}

{
   basf2 suppression 831
   Memcheck:Leak
   fun:malloc
   fun:PyUnicode_New
   fun:_PyUnicodeWriter_PrepareInternal
   fun:PyUnicode_DecodeUTF8Stateful
   fun:do_mkvalue
   fun:do_mkvalue
   fun:do_mktuple
   fun:Py_VaBuildValue
   fun:PyObject_CallFunction
   fun:make_type.constprop.62
   fun:init_types.part.2
   fun:PyInit__ast
}

{
   basf2 suppression 832
   Memcheck:Leak
   fun:malloc
   fun:PyUnicode_New
   fun:_PyUnicodeWriter_PrepareInternal
   fun:PyUnicode_DecodeUTF8Stateful
   fun:do_mkvalue
   fun:do_mkvalue
   fun:do_mktuple
   fun:Py_VaBuildValue
   fun:PyObject_CallFunction
   fun:make_type.constprop.62
   fun:init_types.part.2
   fun:PyInit__ast
}

{
   basf2 suppression 833
   Memcheck:Leak
   fun:malloc
   fun:PyUnicode_New
   fun:_PyUnicodeWriter_PrepareInternal
   fun:PyUnicode_DecodeUTF8Stateful
   fun:do_mkvalue
   fun:do_mkvalue
   fun:do_mktuple
   fun:Py_VaBuildValue
   fun:PyObject_CallFunction
   fun:make_type.constprop.62
   fun:init_types.part.2
   fun:PyInit__ast
}

{
   basf2 suppression 834
   Memcheck:Leak
   fun:malloc
   fun:PyUnicode_New
   fun:_PyUnicodeWriter_PrepareInternal
   fun:PyUnicode_DecodeUTF8Stateful
   fun:do_mkvalue
   fun:do_mkvalue
   fun:do_mktuple
   fun:Py_VaBuildValue
   fun:PyObject_CallFunction
   fun:make_type
   fun:init_types.part.2
   fun:PyInit__ast
}

{
   basf2 suppression 835
   Memcheck:Leak
   fun:malloc
   fun:PyUnicode_New
   fun:_PyUnicodeWriter_PrepareInternal
   fun:PyUnicode_DecodeUTF8Stateful
   fun:do_mkvalue
   fun:do_mkvalue
   fun:do_mktuple
   fun:Py_VaBuildValue
   fun:PyObject_CallFunction
   fun:make_type
   fun:init_types.part.2
   fun:PyInit__ast
}

{
   basf2 suppression 836
   Memcheck:Leak
   fun:malloc
   fun:PyUnicode_New
   fun:_PyUnicodeWriter_PrepareInternal
   fun:PyUnicode_DecodeUTF8Stateful
   fun:do_mkvalue
   fun:do_mkvalue
   fun:do_mktuple
   fun:Py_VaBuildValue
   fun:PyObject_CallFunction
   fun:make_type.constprop.62
   fun:init_types.part.2
   fun:PyInit__ast
}

{
   basf2 suppression 837
   Memcheck:Leak
   fun:malloc
   fun:PyUnicode_New
   fun:_PyUnicodeWriter_PrepareInternal
   fun:PyUnicode_DecodeUTF8Stateful
   fun:do_mkvalue
   fun:do_mkvalue
   fun:do_mktuple
   fun:Py_VaBuildValue
   fun:PyObject_CallFunction
   fun:make_type.constprop.62
   fun:init_types.part.2
   fun:PyInit__ast
}

{
   basf2 suppression 838
   Memcheck:Leak
   fun:malloc
   fun:PyUnicode_New
   fun:_PyUnicodeWriter_PrepareInternal
   fun:PyUnicode_DecodeUTF8Stateful
   fun:do_mkvalue
   fun:do_mkvalue
   fun:do_mktuple
   fun:Py_VaBuildValue
   fun:PyObject_CallFunction
   fun:make_type.constprop.62
   fun:init_types.part.2
   fun:PyInit__ast
}

{
   basf2 suppression 839
   Memcheck:Leak
   fun:malloc
   fun:PyUnicode_New
   fun:_PyUnicodeWriter_PrepareInternal
   fun:PyUnicode_DecodeUTF8Stateful
   fun:do_mkvalue
   fun:do_mkvalue
   fun:do_mktuple
   fun:Py_VaBuildValue
   fun:PyObject_CallFunction
   fun:make_type.constprop.62
   fun:init_types.part.2
   fun:PyInit__ast
}

{
   basf2 suppression 840
   Memcheck:Leak
   fun:malloc
   fun:PyUnicode_New
   fun:_PyUnicodeWriter_PrepareInternal
   fun:PyUnicode_DecodeUTF8Stateful
   fun:do_mkvalue
   fun:do_mkvalue
   fun:do_mktuple
   fun:Py_VaBuildValue
   fun:PyObject_CallFunction
   fun:make_type.constprop.61
   fun:init_types.part.2
   fun:PyInit__ast
}

{
   basf2 suppression 841
   Memcheck:Leak
   fun:malloc
   fun:PyUnicode_New
   fun:_PyUnicodeWriter_PrepareInternal
   fun:PyUnicode_DecodeUTF8Stateful
   fun:do_mkvalue
   fun:do_mkvalue
   fun:do_mktuple
   fun:Py_VaBuildValue
   fun:PyObject_CallFunction
   fun:make_type
   fun:init_types.part.2
   fun:PyInit__ast
}

{
   basf2 suppression 842
   Memcheck:Leak
   fun:malloc
   fun:PyUnicode_New
   fun:_PyUnicodeWriter_PrepareInternal
   fun:PyUnicode_DecodeUTF8Stateful
   fun:do_mkvalue
   fun:do_mkvalue
   fun:do_mktuple
   fun:Py_VaBuildValue
   fun:PyObject_CallFunction
   fun:make_type
   fun:init_types.part.2
   fun:PyInit__ast
}

{
   basf2 suppression 843
   Memcheck:Leak
   fun:malloc
   fun:PyUnicode_New
   fun:_PyUnicodeWriter_PrepareInternal
   fun:PyUnicode_DecodeUTF8Stateful
   fun:do_mkvalue
   fun:do_mkvalue
   fun:do_mktuple
   fun:Py_VaBuildValue
   fun:PyObject_CallFunction
   fun:make_type
   fun:init_types.part.2
   fun:PyInit__ast
}

{
   basf2 suppression 844
   Memcheck:Leak
   fun:malloc
   fun:PyUnicode_New
   fun:_PyUnicodeWriter_PrepareInternal
   fun:PyUnicode_DecodeUTF8Stateful
   fun:do_mkvalue
   fun:do_mkvalue
   fun:do_mktuple
   fun:Py_VaBuildValue
   fun:PyObject_CallFunction
   fun:make_type
   fun:init_types.part.2
   fun:PyInit__ast
}

{
   basf2 suppression 845
   Memcheck:Leak
   fun:malloc
   fun:PyUnicode_New
   fun:_PyUnicodeWriter_PrepareInternal
   fun:PyUnicode_DecodeUTF8Stateful
   fun:do_mkvalue
   fun:do_mkvalue
   fun:do_mktuple
   fun:Py_VaBuildValue
   fun:PyObject_CallFunction
   fun:make_type
   fun:init_types.part.2
   fun:PyInit__ast
}

{
   basf2 suppression 846
   Memcheck:Leak
   fun:malloc
   fun:PyUnicode_New
   fun:_PyUnicodeWriter_PrepareInternal
   fun:PyUnicode_DecodeUTF8Stateful
   fun:do_mkvalue
   fun:do_mkvalue
   fun:do_mktuple
   fun:Py_VaBuildValue
   fun:PyObject_CallFunction
   fun:make_type
   fun:init_types.part.2
   fun:PyInit__ast
}

{
   basf2 suppression 847
   Memcheck:Leak
   fun:malloc
   fun:PyUnicode_New
   fun:_PyUnicodeWriter_PrepareInternal
   fun:PyUnicode_DecodeUTF8Stateful
   fun:do_mkvalue
   fun:do_mkvalue
   fun:do_mktuple
   fun:Py_VaBuildValue
   fun:PyObject_CallFunction
   fun:make_type.constprop.61
   fun:init_types.part.2
   fun:PyInit__ast
}

{
   basf2 suppression 848
   Memcheck:Leak
   fun:malloc
   fun:PyUnicode_New
   fun:_PyUnicodeWriter_PrepareInternal
   fun:PyUnicode_DecodeUTF8Stateful
   fun:do_mkvalue
   fun:do_mkvalue
   fun:do_mktuple
   fun:Py_VaBuildValue
   fun:PyObject_CallFunction
   fun:make_type.constprop.61
   fun:init_types.part.2
   fun:PyInit__ast
}

{
   basf2 suppression 849
   Memcheck:Leak
   fun:malloc
   fun:PyUnicode_New
   fun:_PyUnicodeWriter_PrepareInternal
   fun:PyUnicode_DecodeUTF8Stateful
   fun:do_mkvalue
   fun:do_mkvalue
   fun:do_mktuple
   fun:Py_VaBuildValue
   fun:PyObject_CallFunction
   fun:make_type.constprop.61
   fun:init_types.part.2
   fun:PyInit__ast
}

{
   basf2 suppression 850
   Memcheck:Leak
   fun:malloc
   fun:PyUnicode_New
   fun:_PyUnicodeWriter_PrepareInternal
   fun:PyUnicode_DecodeUTF8Stateful
   fun:do_mkvalue
   fun:do_mkvalue
   fun:do_mktuple
   fun:Py_VaBuildValue
   fun:PyObject_CallFunction
   fun:make_type.constprop.61
   fun:init_types.part.2
   fun:PyInit__ast
}

{
   basf2 suppression 851
   Memcheck:Leak
   fun:malloc
   fun:PyUnicode_New
   fun:_PyUnicodeWriter_PrepareInternal
   fun:PyUnicode_DecodeUTF8Stateful
   fun:do_mkvalue
   fun:do_mkvalue
   fun:do_mktuple
   fun:Py_VaBuildValue
   fun:PyObject_CallFunction
   fun:make_type.constprop.61
   fun:init_types.part.2
   fun:PyInit__ast
}

{
   basf2 suppression 852
   Memcheck:Leak
   fun:malloc
   fun:PyUnicode_New
   fun:_PyUnicodeWriter_PrepareInternal
   fun:PyUnicode_DecodeUTF8Stateful
   fun:do_mkvalue
   fun:do_mkvalue
   fun:do_mktuple
   fun:Py_VaBuildValue
   fun:PyObject_CallFunction
   fun:make_type.constprop.61
   fun:init_types.part.2
   fun:PyInit__ast
}

{
   basf2 suppression 853
   Memcheck:Leak
   fun:malloc
   fun:PyUnicode_New
   fun:_PyUnicodeWriter_PrepareInternal
   fun:PyUnicode_DecodeUTF8Stateful
   fun:do_mkvalue
   fun:do_mkvalue
   fun:do_mktuple
   fun:Py_VaBuildValue
   fun:PyObject_CallFunction
   fun:make_type
   fun:init_types.part.2
   fun:PyInit__ast
}

{
   basf2 suppression 854
   Memcheck:Leak
   fun:malloc
   fun:PyUnicode_New
   fun:_PyUnicodeWriter_PrepareInternal
   fun:PyUnicode_DecodeUTF8Stateful
   fun:make_type.constprop.62
   fun:init_types.part.2
   fun:PyInit__ast
   fun:_imp_create_builtin
   fun:PyCFunction_Call
   fun:PyEval_EvalFrameEx
   fun:_PyEval_EvalCodeWithName
   fun:PyEval_EvalFrameEx
}

{
   basf2 suppression 855
   Memcheck:Leak
   fun:malloc
   fun:PyUnicode_New
   fun:_PyUnicodeWriter_PrepareInternal
   fun:PyUnicode_DecodeUTF8Stateful
   fun:do_mkvalue
   fun:do_mkvalue
   fun:do_mktuple
   fun:Py_VaBuildValue
   fun:PyObject_CallFunction
   fun:make_type.constprop.62
   fun:init_types.part.2
   fun:PyInit__ast
}

{
   basf2 suppression 856
   Memcheck:Leak
   fun:malloc
   fun:PyUnicode_New
   fun:_PyUnicodeWriter_PrepareInternal
   fun:PyUnicode_DecodeUTF8Stateful
   fun:do_mkvalue
   fun:do_mkvalue
   fun:do_mktuple
   fun:Py_VaBuildValue
   fun:PyObject_CallFunction
   fun:make_type.constprop.62
   fun:init_types.part.2
   fun:PyInit__ast
}

{
   basf2 suppression 857
   Memcheck:Leak
   fun:malloc
   fun:PyUnicode_New
   fun:_PyUnicodeWriter_PrepareInternal
   fun:PyUnicode_DecodeUTF8Stateful
   fun:do_mkvalue
   fun:do_mkvalue
   fun:do_mktuple
   fun:Py_VaBuildValue
   fun:PyObject_CallFunction
   fun:make_type.constprop.61
   fun:init_types.part.2
   fun:PyInit__ast
}

{
   basf2 suppression 858
   Memcheck:Leak
   fun:malloc
   fun:PyUnicode_New
   fun:_PyUnicodeWriter_PrepareInternal
   fun:PyUnicode_DecodeUTF8Stateful
   fun:do_mkvalue
   fun:do_mkvalue
   fun:do_mktuple
   fun:Py_VaBuildValue
   fun:PyObject_CallFunction
   fun:make_type.constprop.61
   fun:init_types.part.2
   fun:PyInit__ast
}

{
   basf2 suppression 859
   Memcheck:Leak
   fun:malloc
   fun:PyUnicode_New
   fun:_PyUnicodeWriter_PrepareInternal
   fun:PyUnicode_DecodeUTF8Stateful
   fun:do_mkvalue
   fun:do_mkvalue
   fun:do_mktuple
   fun:Py_VaBuildValue
   fun:PyObject_CallFunction
   fun:make_type.constprop.61
   fun:init_types.part.2
   fun:PyInit__ast
}

{
   basf2 suppression 860
   Memcheck:Leak
   fun:malloc
   fun:PyUnicode_New
   fun:_PyUnicodeWriter_PrepareInternal
   fun:PyUnicode_DecodeUTF8Stateful
   fun:do_mkvalue
   fun:do_mkvalue
   fun:do_mktuple
   fun:Py_VaBuildValue
   fun:PyObject_CallFunction
   fun:make_type.constprop.61
   fun:init_types.part.2
   fun:PyInit__ast
}

{
   basf2 suppression 861
   Memcheck:Leak
   fun:malloc
   fun:PyUnicode_New
   fun:_PyUnicodeWriter_PrepareInternal
   fun:PyUnicode_DecodeUTF8Stateful
   fun:do_mkvalue
   fun:do_mkvalue
   fun:do_mktuple
   fun:Py_VaBuildValue
   fun:PyObject_CallFunction
   fun:make_type.constprop.61
   fun:init_types.part.2
   fun:PyInit__ast
}

{
   basf2 suppression 862
   Memcheck:Leak
   fun:malloc
   fun:PyUnicode_New
   fun:_PyUnicodeWriter_PrepareInternal
   fun:PyUnicode_DecodeUTF8Stateful
   fun:do_mkvalue
   fun:do_mkvalue
   fun:do_mktuple
   fun:Py_VaBuildValue
   fun:PyObject_CallFunction
   fun:make_type.constprop.61
   fun:init_types.part.2
   fun:PyInit__ast
}

{
   basf2 suppression 863
   Memcheck:Leak
   fun:malloc
   fun:PyUnicode_New
   fun:_PyUnicodeWriter_PrepareInternal
   fun:PyUnicode_DecodeUTF8Stateful
   fun:do_mkvalue
   fun:do_mkvalue
   fun:do_mktuple
   fun:Py_VaBuildValue
   fun:PyObject_CallFunction
   fun:make_type.constprop.61
   fun:init_types.part.2
   fun:PyInit__ast
}

{
   basf2 suppression 864
   Memcheck:Leak
   fun:malloc
   fun:PyUnicode_New
   fun:_PyUnicodeWriter_PrepareInternal
   fun:PyUnicode_DecodeUTF8Stateful
   fun:do_mkvalue
   fun:do_mkvalue
   fun:do_mktuple
   fun:Py_VaBuildValue
   fun:PyObject_CallFunction
   fun:make_type.constprop.61
   fun:init_types.part.2
   fun:PyInit__ast
}

{
   basf2 suppression 865
   Memcheck:Leak
   fun:malloc
   fun:PyUnicode_New
   fun:_PyUnicodeWriter_PrepareInternal
   fun:PyUnicode_DecodeUTF8Stateful
   fun:do_mkvalue
   fun:do_mkvalue
   fun:do_mktuple
   fun:Py_VaBuildValue
   fun:PyObject_CallFunction
   fun:make_type.constprop.61
   fun:init_types.part.2
   fun:PyInit__ast
}

{
   basf2 suppression 866
   Memcheck:Leak
   fun:malloc
   fun:PyUnicode_New
   fun:_PyUnicodeWriter_PrepareInternal
   fun:PyUnicode_DecodeUTF8Stateful
   fun:do_mkvalue
   fun:do_mkvalue
   fun:do_mktuple
   fun:Py_VaBuildValue
   fun:PyObject_CallFunction
   fun:make_type.constprop.61
   fun:init_types.part.2
   fun:PyInit__ast
}

{
   basf2 suppression 867
   Memcheck:Leak
   fun:malloc
   fun:PyUnicode_New
   fun:_PyUnicodeWriter_PrepareInternal
   fun:PyUnicode_DecodeUTF8Stateful
   fun:do_mkvalue
   fun:do_mkvalue
   fun:do_mktuple
   fun:Py_VaBuildValue
   fun:PyObject_CallFunction
   fun:make_type.constprop.61
   fun:init_types.part.2
   fun:PyInit__ast
}

{
   basf2 suppression 868
   Memcheck:Leak
   fun:malloc
   fun:PyUnicode_New
   fun:_PyUnicodeWriter_PrepareInternal
   fun:PyUnicode_DecodeUTF8Stateful
   fun:do_mkvalue
   fun:do_mkvalue
   fun:do_mktuple
   fun:Py_VaBuildValue
   fun:PyObject_CallFunction
   fun:make_type.constprop.61
   fun:init_types.part.2
   fun:PyInit__ast
}

{
   basf2 suppression 869
   Memcheck:Leak
   fun:malloc
   fun:PyUnicode_New
   fun:_PyUnicodeWriter_PrepareInternal
   fun:PyUnicode_DecodeUTF8Stateful
   fun:do_mkvalue
   fun:do_mkvalue
   fun:do_mktuple
   fun:Py_VaBuildValue
   fun:PyObject_CallFunction
   fun:make_type.constprop.61
   fun:init_types.part.2
   fun:PyInit__ast
}

{
   basf2 suppression 870
   Memcheck:Leak
   fun:malloc
   fun:PyUnicode_New
   fun:_PyUnicodeWriter_PrepareInternal
   fun:PyUnicode_DecodeUTF8Stateful
   fun:do_mkvalue
   fun:do_mkvalue
   fun:do_mktuple
   fun:Py_VaBuildValue
   fun:PyObject_CallFunction
   fun:make_type.constprop.61
   fun:init_types.part.2
   fun:PyInit__ast
}

{
   basf2 suppression 871
   Memcheck:Leak
   fun:malloc
   fun:PyUnicode_New
   fun:_PyUnicodeWriter_PrepareInternal
   fun:PyUnicode_DecodeUTF8Stateful
   fun:do_mkvalue
   fun:do_mkvalue
   fun:do_mktuple
   fun:Py_VaBuildValue
   fun:PyObject_CallFunction
   fun:make_type.constprop.61
   fun:init_types.part.2
   fun:PyInit__ast
}

{
   basf2 suppression 872
   Memcheck:Leak
   fun:malloc
   fun:PyUnicode_New
   fun:_PyUnicodeWriter_PrepareInternal
   fun:PyUnicode_DecodeUTF8Stateful
   fun:do_mkvalue
   fun:do_mkvalue
   fun:do_mktuple
   fun:Py_VaBuildValue
   fun:PyObject_CallFunction
   fun:make_type.constprop.61
   fun:init_types.part.2
   fun:PyInit__ast
}

{
   basf2 suppression 873
   Memcheck:Leak
   fun:malloc
   fun:PyUnicode_New
   fun:_PyUnicodeWriter_PrepareInternal
   fun:PyUnicode_DecodeUTF8Stateful
   fun:do_mkvalue
   fun:do_mkvalue
   fun:do_mktuple
   fun:Py_VaBuildValue
   fun:PyObject_CallFunction
   fun:make_type.constprop.61
   fun:init_types.part.2
   fun:PyInit__ast
}

{
   basf2 suppression 874
   Memcheck:Leak
   fun:malloc
   fun:PyUnicode_New
   fun:_PyUnicodeWriter_PrepareInternal
   fun:PyUnicode_DecodeUTF8Stateful
   fun:do_mkvalue
   fun:do_mkvalue
   fun:do_mktuple
   fun:Py_VaBuildValue
   fun:PyObject_CallFunction
   fun:make_type.constprop.61
   fun:init_types.part.2
   fun:PyInit__ast
}

{
   basf2 suppression 875
   Memcheck:Leak
   fun:malloc
   fun:PyUnicode_New
   fun:_PyUnicodeWriter_PrepareInternal
   fun:PyUnicode_DecodeUTF8Stateful
   fun:do_mkvalue
   fun:do_mkvalue
   fun:do_mktuple
   fun:Py_VaBuildValue
   fun:PyObject_CallFunction
   fun:make_type.constprop.61
   fun:init_types.part.2
   fun:PyInit__ast
}

{
   basf2 suppression 876
   Memcheck:Leak
   fun:malloc
   fun:PyUnicode_New
   fun:_PyUnicodeWriter_PrepareInternal
   fun:PyUnicode_DecodeUTF8Stateful
   fun:do_mkvalue
   fun:do_mkvalue
   fun:do_mktuple
   fun:Py_VaBuildValue
   fun:PyObject_CallFunction
   fun:make_type.constprop.61
   fun:init_types.part.2
   fun:PyInit__ast
}

{
   basf2 suppression 877
   Memcheck:Leak
   fun:malloc
   fun:PyUnicode_New
   fun:_PyUnicodeWriter_PrepareInternal
   fun:PyUnicode_DecodeUTF8Stateful
   fun:do_mkvalue
   fun:do_mkvalue
   fun:do_mktuple
   fun:Py_VaBuildValue
   fun:PyObject_CallFunction
   fun:make_type.constprop.61
   fun:init_types.part.2
   fun:PyInit__ast
}

{
   basf2 suppression 878
   Memcheck:Leak
   fun:malloc
   fun:PyUnicode_New
   fun:_PyUnicodeWriter_PrepareInternal
   fun:PyUnicode_DecodeUTF8Stateful
   fun:do_mkvalue
   fun:do_mkvalue
   fun:do_mktuple
   fun:Py_VaBuildValue
   fun:PyObject_CallFunction
   fun:make_type.constprop.61
   fun:init_types.part.2
   fun:PyInit__ast
}

{
   basf2 suppression 879
   Memcheck:Leak
   fun:malloc
   fun:PyUnicode_New
   fun:_PyUnicodeWriter_PrepareInternal
   fun:PyUnicode_DecodeUTF8Stateful
   fun:do_mkvalue
   fun:do_mkvalue
   fun:do_mktuple
   fun:Py_VaBuildValue
   fun:PyObject_CallFunction
   fun:make_type.constprop.61
   fun:init_types.part.2
   fun:PyInit__ast
}

{
   basf2 suppression 880
   Memcheck:Leak
   fun:malloc
   fun:PyUnicode_New
   fun:_PyUnicodeWriter_PrepareInternal
   fun:PyUnicode_DecodeUTF8Stateful
   fun:do_mkvalue
   fun:do_mkvalue
   fun:do_mktuple
   fun:Py_VaBuildValue
   fun:PyObject_CallFunction
   fun:make_type.constprop.61
   fun:init_types.part.2
   fun:PyInit__ast
}

{
   basf2 suppression 881
   Memcheck:Leak
   fun:malloc
   fun:PyUnicode_New
   fun:_PyUnicodeWriter_PrepareInternal
   fun:PyUnicode_DecodeUTF8Stateful
   fun:do_mkvalue
   fun:do_mkvalue
   fun:do_mktuple
   fun:Py_VaBuildValue
   fun:PyObject_CallFunction
   fun:make_type.constprop.61
   fun:init_types.part.2
   fun:PyInit__ast
}

{
   basf2 suppression 882
   Memcheck:Leak
   fun:malloc
   fun:PyUnicode_New
   fun:_PyUnicodeWriter_PrepareInternal
   fun:PyUnicode_DecodeUTF8Stateful
   fun:do_mkvalue
   fun:do_mkvalue
   fun:do_mktuple
   fun:Py_VaBuildValue
   fun:PyObject_CallFunction
   fun:make_type.constprop.61
   fun:init_types.part.2
   fun:PyInit__ast
}

{
   basf2 suppression 883
   Memcheck:Leak
   fun:malloc
   fun:PyUnicode_New
   fun:_PyUnicodeWriter_PrepareInternal
   fun:PyUnicode_DecodeUTF8Stateful
   fun:do_mkvalue
   fun:do_mkvalue
   fun:do_mktuple
   fun:Py_VaBuildValue
   fun:PyObject_CallFunction
   fun:make_type.constprop.61
   fun:init_types.part.2
   fun:PyInit__ast
}

{
   basf2 suppression 884
   Memcheck:Leak
   fun:malloc
   fun:PyUnicode_New
   fun:_PyUnicodeWriter_PrepareInternal
   fun:PyUnicode_DecodeUTF8Stateful
   fun:do_mkvalue
   fun:do_mkvalue
   fun:do_mktuple
   fun:Py_VaBuildValue
   fun:PyObject_CallFunction
   fun:make_type.constprop.61
   fun:init_types.part.2
   fun:PyInit__ast
}

{
   basf2 suppression 885
   Memcheck:Leak
   fun:malloc
   fun:PyUnicode_New
   fun:_PyUnicodeWriter_PrepareInternal
   fun:PyUnicode_DecodeUTF8Stateful
   fun:do_mkvalue
   fun:do_mkvalue
   fun:do_mktuple
   fun:Py_VaBuildValue
   fun:PyObject_CallFunction
   fun:make_type.constprop.61
   fun:init_types.part.2
   fun:PyInit__ast
}

{
   basf2 suppression 886
   Memcheck:Leak
   fun:malloc
   fun:PyUnicode_New
   fun:_PyUnicodeWriter_PrepareInternal
   fun:PyUnicode_DecodeUTF8Stateful
   fun:do_mkvalue
   fun:do_mkvalue
   fun:do_mktuple
   fun:Py_VaBuildValue
   fun:PyObject_CallFunction
   fun:make_type
   fun:init_types.part.2
   fun:PyInit__ast
}

{
   basf2 suppression 887
   Memcheck:Leak
   fun:malloc
   fun:PyUnicode_New
   fun:_PyUnicodeWriter_PrepareInternal
   fun:PyUnicode_DecodeUTF8Stateful
   fun:PyDict_SetItemString
   fun:PyInit_umath
   fun:_PyImport_LoadDynamicModuleWithSpec
   fun:_imp_create_dynamic
   fun:PyCFunction_Call
   fun:PyEval_EvalFrameEx
   fun:_PyEval_EvalCodeWithName
   fun:PyEval_EvalFrameEx
}

{
   basf2 suppression 888
   Memcheck:Leak
   fun:malloc
   fun:PyUnicode_New
   fun:PyUnicode_Append
   fun:unicode_concatenate
   fun:PyEval_EvalFrameEx
   fun:PyEval_EvalFrameEx
   fun:PyEval_EvalFrameEx
   fun:_PyEval_EvalCodeWithName
   fun:PyEval_EvalCodeEx
   fun:PyEval_EvalCode
   fun:builtin_exec
   fun:PyCFunction_Call
}

{
   basf2 suppression 889
   Memcheck:Leak
   fun:_Znwm
   fun:_ZNSs4_Rep9_S_createEmmRKSaIcE
   fun:_ZNSs12_S_constructIPKcEEPcT_S3_RKSaIcESt20forward_iterator_tag.part.29
   fun:_ZNSsC1EPKcRKSaIcE
   fun:_GLOBAL__sub_I_G4NucleonNuclearCrossSection.cc
   fun:_dl_init
   fun:dl_open_worker
   fun:_dl_catch_error
   fun:_dl_open
   fun:dlopen_doit
   fun:_dl_catch_error
   fun:_dlerror_run
}

{
   basf2 suppression 890
   Memcheck:Leak
   fun:malloc
   fun:PyUnicode_New
   fun:_PyUnicodeWriter_PrepareInternal
   fun:PyUnicode_DecodeUTF8Stateful
   fun:PyDict_SetItemString
   fun:_PyBuiltin_Init
   fun:_Py_InitializeEx_Private
   fun:main
}

{
   basf2 suppression 891
   Memcheck:Leak
   fun:malloc
   fun:PyUnicode_New
   fun:_PyUnicodeWriter_PrepareInternal
   fun:PyUnicode_DecodeUTF8Stateful
   fun:PyDict_SetItemString
   fun:_PyBuiltin_Init
   fun:_Py_InitializeEx_Private
   fun:main
}

{
   basf2 suppression 892
   Memcheck:Leak
   fun:malloc
   fun:PyUnicode_New
   fun:_PyUnicodeWriter_PrepareInternal
   fun:PyUnicode_DecodeUTF8Stateful
   fun:PyDict_SetItemString
   fun:_PyBuiltin_Init
   fun:_Py_InitializeEx_Private
   fun:main
}

{
   basf2 suppression 893
   Memcheck:Leak
   fun:malloc
   fun:PyUnicode_New
   fun:_PyUnicodeWriter_PrepareInternal
   fun:PyUnicode_DecodeUTF8Stateful
   fun:PyDict_SetItemString
   fun:_PyBuiltin_Init
   fun:_Py_InitializeEx_Private
   fun:main
}

{
   basf2 suppression 894
   Memcheck:Leak
   fun:malloc
   fun:PyUnicode_New
   fun:_PyUnicodeWriter_PrepareInternal
   fun:PyUnicode_DecodeUTF8Stateful
   fun:_PyUnicode_FromId
   fun:_PyDict_SetItemId
   fun:initstdio
   fun:_Py_InitializeEx_Private
   fun:main
}

{
   basf2 suppression 895
   Memcheck:Leak
   fun:malloc
   fun:PyUnicode_New
   fun:_PyUnicodeWriter_PrepareInternal
   fun:PyUnicode_DecodeUTF8Stateful
   fun:make_type.constprop.62
   fun:init_types.part.2
   fun:PyInit__ast
   fun:_imp_create_builtin
   fun:PyCFunction_Call
   fun:PyEval_EvalFrameEx
   fun:_PyEval_EvalCodeWithName
   fun:PyEval_EvalFrameEx
}

{
   basf2 suppression 896
   Memcheck:Leak
   fun:malloc
   fun:PyUnicode_New
   fun:_PyUnicodeWriter_PrepareInternal
   fun:PyUnicode_DecodeUTF8Stateful
   fun:init_types.part.2
   fun:PyInit__ast
   fun:_imp_create_builtin
   fun:PyCFunction_Call
   fun:PyEval_EvalFrameEx
   fun:_PyEval_EvalCodeWithName
   fun:PyEval_EvalFrameEx
   fun:PyEval_EvalFrameEx
}

{
   basf2 suppression 897
   Memcheck:Leak
   fun:malloc
   fun:PyUnicode_New
   fun:_PyUnicodeWriter_PrepareInternal
   fun:PyUnicode_DecodeUTF8Stateful
   fun:init_types.part.2
   fun:PyInit__ast
   fun:_imp_create_builtin
   fun:PyCFunction_Call
   fun:PyEval_EvalFrameEx
   fun:_PyEval_EvalCodeWithName
   fun:PyEval_EvalFrameEx
   fun:PyEval_EvalFrameEx
}

{
   basf2 suppression 898
   Memcheck:Leak
   fun:malloc
   fun:PyUnicode_New
   fun:_PyUnicodeWriter_PrepareInternal
   fun:PyUnicode_DecodeUTF8Stateful
   fun:init_types.part.2
   fun:PyInit__ast
   fun:_imp_create_builtin
   fun:PyCFunction_Call
   fun:PyEval_EvalFrameEx
   fun:_PyEval_EvalCodeWithName
   fun:PyEval_EvalFrameEx
   fun:PyEval_EvalFrameEx
}

{
   basf2 suppression 899
   Memcheck:Leak
   fun:malloc
   fun:PyUnicode_New
   fun:_PyUnicodeWriter_PrepareInternal
   fun:PyUnicode_DecodeUTF8Stateful
   fun:init_types.part.2
   fun:PyInit__ast
   fun:_imp_create_builtin
   fun:PyCFunction_Call
   fun:PyEval_EvalFrameEx
   fun:_PyEval_EvalCodeWithName
   fun:PyEval_EvalFrameEx
   fun:PyEval_EvalFrameEx
}

{
   basf2 suppression 900
   Memcheck:Leak
   fun:malloc
   fun:PyUnicode_New
   fun:_PyUnicodeWriter_PrepareInternal
   fun:PyUnicode_DecodeUTF8Stateful
   fun:make_type.constprop.62
   fun:init_types.part.2
   fun:PyInit__ast
   fun:_imp_create_builtin
   fun:PyCFunction_Call
   fun:PyEval_EvalFrameEx
   fun:_PyEval_EvalCodeWithName
   fun:PyEval_EvalFrameEx
}

{
   basf2 suppression 901
   Memcheck:Leak
   fun:malloc
   fun:PyUnicode_New
   fun:_PyUnicodeWriter_PrepareInternal
   fun:PyUnicode_DecodeUTF8Stateful
   fun:make_type.constprop.62
   fun:init_types.part.2
   fun:PyInit__ast
   fun:_imp_create_builtin
   fun:PyCFunction_Call
   fun:PyEval_EvalFrameEx
   fun:_PyEval_EvalCodeWithName
   fun:PyEval_EvalFrameEx
}

{
   basf2 suppression 902
   Memcheck:Leak
   fun:malloc
   fun:PyUnicode_New
   fun:_PyUnicodeWriter_PrepareInternal
   fun:PyUnicode_DecodeUTF8Stateful
   fun:make_type.constprop.62
   fun:init_types.part.2
   fun:PyInit__ast
   fun:_imp_create_builtin
   fun:PyCFunction_Call
   fun:PyEval_EvalFrameEx
   fun:_PyEval_EvalCodeWithName
   fun:PyEval_EvalFrameEx
}

{
   basf2 suppression 903
   Memcheck:Leak
   fun:malloc
   fun:PyUnicode_New
   fun:_PyUnicodeWriter_PrepareInternal
   fun:PyUnicode_DecodeUTF8Stateful
   fun:make_type.constprop.62
   fun:init_types.part.2
   fun:PyInit__ast
   fun:_imp_create_builtin
   fun:PyCFunction_Call
   fun:PyEval_EvalFrameEx
   fun:_PyEval_EvalCodeWithName
   fun:PyEval_EvalFrameEx
}

{
   basf2 suppression 904
   Memcheck:Leak
   fun:_Znwm
   fun:_ZNSs4_Rep9_S_createEmmRKSaIcE
   fun:_ZNSs12_S_constructIPKcEEPcT_S3_RKSaIcESt20forward_iterator_tag.part.29
   fun:_ZNSsC1EPKcRKSaIcE
   fun:_GLOBAL__sub_I_G4EmLivermorePolarizedPhysics.cc
   fun:_dl_init
   fun:dl_open_worker
   fun:_dl_catch_error
   fun:_dl_open
   fun:dlopen_doit
   fun:_dl_catch_error
   fun:_dlerror_run
}

{
   basf2 suppression 905
   Memcheck:Leak
   fun:malloc
   fun:PyUnicode_New
   fun:_PyUnicodeWriter_PrepareInternal
   fun:PyUnicode_DecodeUTF8Stateful
   fun:make_type.constprop.62
   fun:init_types.part.2
   fun:PyInit__ast
   fun:_imp_create_builtin
   fun:PyCFunction_Call
   fun:PyEval_EvalFrameEx
   fun:_PyEval_EvalCodeWithName
   fun:PyEval_EvalFrameEx
}

{
   basf2 suppression 906
   Memcheck:Leak
   fun:malloc
   fun:PyUnicode_New
   fun:_PyUnicodeWriter_PrepareInternal
   fun:PyUnicode_DecodeUTF8Stateful
   fun:make_type.constprop.62
   fun:init_types.part.2
   fun:PyInit__ast
   fun:_imp_create_builtin
   fun:PyCFunction_Call
   fun:PyEval_EvalFrameEx
   fun:_PyEval_EvalCodeWithName
   fun:PyEval_EvalFrameEx
}

{
   basf2 suppression 907
   Memcheck:Leak
   fun:malloc
   fun:PyUnicode_New
   fun:_PyUnicodeWriter_PrepareInternal
   fun:PyUnicode_DecodeUTF8Stateful
   fun:make_type.constprop.62
   fun:init_types.part.2
   fun:PyInit__ast
   fun:_imp_create_builtin
   fun:PyCFunction_Call
   fun:PyEval_EvalFrameEx
   fun:_PyEval_EvalCodeWithName
   fun:PyEval_EvalFrameEx
}

{
   basf2 suppression 908
   Memcheck:Leak
   fun:malloc
   fun:PyUnicode_New
   fun:_PyUnicodeWriter_PrepareInternal
   fun:PyUnicode_DecodeUTF8Stateful
   fun:make_type.constprop.62
   fun:init_types.part.2
   fun:PyInit__ast
   fun:_imp_create_builtin
   fun:PyCFunction_Call
   fun:PyEval_EvalFrameEx
   fun:_PyEval_EvalCodeWithName
   fun:PyEval_EvalFrameEx
}

{
   basf2 suppression 909
   Memcheck:Leak
   fun:malloc
   fun:PyUnicode_New
   fun:_PyUnicodeWriter_PrepareInternal
   fun:PyUnicode_DecodeUTF8Stateful
   fun:make_type.constprop.62
   fun:init_types.part.2
   fun:PyInit__ast
   fun:_imp_create_builtin
   fun:PyCFunction_Call
   fun:PyEval_EvalFrameEx
   fun:_PyEval_EvalCodeWithName
   fun:PyEval_EvalFrameEx
}

{
   basf2 suppression 910
   Memcheck:Leak
   fun:_Znwm
   fun:_ZNSs4_Rep9_S_createEmmRKSaIcE
   fun:_ZNSs12_S_constructIPKcEEPcT_S3_RKSaIcESt20forward_iterator_tag.part.29
   fun:_ZNSsC1EPKcRKSaIcE
   fun:_GLOBAL__sub_I_G4HadronPhysicsQGSP_FTFP_BERT.cc
   fun:_dl_init
   fun:dl_open_worker
   fun:_dl_catch_error
   fun:_dl_open
   fun:dlopen_doit
   fun:_dl_catch_error
   fun:_dlerror_run
}

{
   basf2 suppression 911
   Memcheck:Leak
   fun:_Znwm
   fun:_ZNSs4_Rep9_S_createEmmRKSaIcE
   fun:_ZNSs12_S_constructIPKcEEPcT_S3_RKSaIcESt20forward_iterator_tag.part.29
   fun:_ZNSsC1EPKcRKSaIcE
   fun:_GLOBAL__sub_I_G4HadronPhysicsQGSP_BIC_AllHP.cc
   fun:_dl_init
   fun:dl_open_worker
   fun:_dl_catch_error
   fun:_dl_open
   fun:dlopen_doit
   fun:_dl_catch_error
   fun:_dlerror_run
}

{
   basf2 suppression 912
   Memcheck:Leak
   fun:malloc
   fun:PyUnicode_New
   fun:_PyUnicodeWriter_PrepareInternal
   fun:PyUnicode_DecodeUTF8Stateful
   fun:_PyUnicode_FromId
   fun:_PyDict_SetItemId
   fun:_Py_InitializeEx_Private
   fun:main
}

{
   basf2 suppression 913
   Memcheck:Leak
   fun:malloc
   fun:PyUnicode_New
   fun:_PyUnicodeWriter_PrepareInternal
   fun:PyUnicode_DecodeUTF8Stateful
   fun:PyDict_SetItemString
   fun:_PyCodecRegistry_Init
   fun:_PyCodec_Lookup
   fun:initfsencoding.isra.4.part.5
   fun:_Py_InitializeEx_Private
   fun:main
}

{
   basf2 suppression 914
   Memcheck:Leak
   fun:malloc
   fun:PyUnicode_New
   fun:_PyUnicodeWriter_PrepareInternal
   fun:PyUnicode_DecodeUTF8Stateful
   fun:do_mkvalue
   fun:Py_VaBuildValue
   fun:PyObject_CallFunction
   fun:_PyCodecInfo_GetIncrementalEncoder
   fun:_io_TextIOWrapper___init__
   fun:type_call
   fun:PyObject_Call
   fun:_PyObject_CallMethodId
}

{
   basf2 suppression 915
   Memcheck:Leak
   fun:malloc
   fun:PyUnicode_New
   fun:_PyUnicodeWriter_PrepareInternal
   fun:PyUnicode_DecodeUTF8Stateful
   fun:_PyUnicode_FromId
   fun:_PyDict_SetItemId
   fun:initstdio
   fun:_Py_InitializeEx_Private
   fun:main
}

{
   basf2 suppression 916
   Memcheck:Leak
   fun:malloc
   fun:PyUnicode_New
   fun:_PyUnicodeWriter_PrepareInternal
   fun:PyUnicode_DecodeUTF8Stateful
   fun:PyDict_SetItemString
   fun:_PyBuiltin_Init
   fun:_Py_InitializeEx_Private
   fun:main
}

{
   basf2 suppression 917
   Memcheck:Leak
   fun:malloc
   fun:PyUnicode_New
   fun:_PyUnicode_FromUCS1
   fun:r_object
   fun:r_object
   fun:r_object
   fun:r_object
   fun:r_object
   fun:PyMarshal_ReadObjectFromString
   fun:_imp_get_frozen_object
   fun:PyCFunction_Call
   fun:PyEval_EvalFrameEx
}

{
   basf2 suppression 918
   Memcheck:Leak
   fun:malloc
   fun:PyUnicode_New
   fun:_PyUnicode_FromUCS1
   fun:r_object
   fun:r_object
   fun:r_object
   fun:r_object
   fun:r_object
   fun:r_object
   fun:r_object
   fun:PyMarshal_ReadObjectFromString
   fun:_imp_get_frozen_object
}

{
   basf2 suppression 919
   Memcheck:Leak
   fun:malloc
   fun:PyUnicode_New
   fun:_PyUnicodeWriter_PrepareInternal
   fun:PyUnicode_DecodeUTF8Stateful
   fun:add_attributes.constprop.60
   fun:init_types.part.2
   fun:PyInit__ast
   fun:_imp_create_builtin
   fun:PyCFunction_Call
   fun:PyEval_EvalFrameEx
   fun:_PyEval_EvalCodeWithName
   fun:PyEval_EvalFrameEx
}

{
   basf2 suppression 920
   Memcheck:Leak
   fun:malloc
   fun:PyUnicode_New
   fun:_PyUnicodeWriter_PrepareInternal
   fun:PyUnicode_DecodeUTF8Stateful
   fun:add_attributes.constprop.60
   fun:init_types.part.2
   fun:PyInit__ast
   fun:_imp_create_builtin
   fun:PyCFunction_Call
   fun:PyEval_EvalFrameEx
   fun:_PyEval_EvalCodeWithName
   fun:PyEval_EvalFrameEx
}

{
   basf2 suppression 921
   Memcheck:Leak
   fun:malloc
   fun:PyUnicode_New
   fun:_PyUnicodeWriter_PrepareInternal
   fun:PyUnicode_DecodeUTF8Stateful
   fun:add_attributes.constprop.60
   fun:init_types.part.2
   fun:PyInit__ast
   fun:_imp_create_builtin
   fun:PyCFunction_Call
   fun:PyEval_EvalFrameEx
   fun:_PyEval_EvalCodeWithName
   fun:PyEval_EvalFrameEx
}

{
   basf2 suppression 922
   Memcheck:Leak
   fun:malloc
   fun:PyUnicode_New
   fun:_PyUnicodeWriter_PrepareInternal
   fun:PyUnicode_DecodeUTF8Stateful
   fun:add_attributes.constprop.60
   fun:init_types.part.2
   fun:PyInit__ast
   fun:_imp_create_builtin
   fun:PyCFunction_Call
   fun:PyEval_EvalFrameEx
   fun:_PyEval_EvalCodeWithName
   fun:PyEval_EvalFrameEx
}

{
   basf2 suppression 923
   Memcheck:Leak
   fun:_Znwm
   fun:_ZNSs4_Rep9_S_createEmmRKSaIcE
   fun:_ZNSs12_S_constructIPKcEEPcT_S3_RKSaIcESt20forward_iterator_tag.part.29
   fun:_ZNSsC1EPKcRKSaIcE
   fun:_GLOBAL__sub_I_G4GGNuclNuclCrossSection.cc
   fun:_dl_init
   fun:dl_open_worker
   fun:_dl_catch_error
   fun:_dl_open
   fun:dlopen_doit
   fun:_dl_catch_error
   fun:_dlerror_run
}

{
   basf2 suppression 924
   Memcheck:Leak
   fun:_Znwm
   fun:_ZN5clang17ExternalASTSource30SetExternalVisibleDeclsForNameEPKNS_11DeclContextENS_15DeclarationNameEN4llvm8ArrayRefIPNS_9NamedDeclEEE
   fun:_ZN5clang9ASTReader30FindExternalVisibleDeclsByNameEPKNS_11DeclContextENS_15DeclarationNameE
   fun:_ZN5clang11DeclContext6lookupENS_15DeclarationNameE
   fun:_ZN5clang9ASTReader19CompleteRedeclChainEPKNS_4DeclE
   fun:_ZNK5clang12RedeclarableINS_18NamespaceAliasDeclEE8DeclLink7getNextEPKS1_
   fun:_ZL24getExplicitVisibilityAuxPKN5clang9NamedDeclENS0_22ExplicitVisibilityKindEb
   fun:_ZNK5clang9NamedDecl21getExplicitVisibilityENS0_22ExplicitVisibilityKindE
   fun:_ZL16computeLVForDeclPKN5clang9NamedDeclE17LVComputationKind
   fun:_ZN5clang15LinkageComputer12getLVForDeclEPKNS_9NamedDeclE17LVComputationKind
   fun:_ZNK5clang9NamedDecl23getLinkageAndVisibilityEv
   fun:_ZL28setLinkageAndVisibilityForGVPN4llvm11GlobalValueEPKN5clang9NamedDeclE
}

{
   basf2 suppression 925
   Memcheck:Leak
   fun:_Znwm
   fun:_ZN5clang17ExternalASTSource30SetExternalVisibleDeclsForNameEPKNS_11DeclContextENS_15DeclarationNameEN4llvm8ArrayRefIPNS_9NamedDeclEEE
   fun:_ZN5clang9ASTReader30FindExternalVisibleDeclsByNameEPKNS_11DeclContextENS_15DeclarationNameE
   fun:_ZN5clang11DeclContext6lookupENS_15DeclarationNameE
   fun:_ZN5clang9ASTReader19CompleteRedeclChainEPKNS_4DeclE
   fun:_ZNK5clang12RedeclarableINS_18NamespaceAliasDeclEE8DeclLink7getNextEPKS1_
   fun:_ZNK5clang10ASTContext24GetGVALinkageForFunctionEPKNS_12FunctionDeclE
   fun:_ZN5clang7CodeGen13CodeGenModule18getFunctionLinkageENS_10GlobalDeclE
   fun:_ZN5clang7CodeGen13CodeGenModule18shouldEmitFunctionENS_10GlobalDeclE
   fun:_ZN5clang7CodeGen13CodeGenModule20EmitGlobalDefinitionENS_10GlobalDeclEPN4llvm11GlobalValueE
   fun:_ZN5clang7CodeGen13CodeGenModule10EmitGlobalENS_10GlobalDeclE
   fun:_ZN5clang7CodeGen13CodeGenModule16EmitTopLevelDeclEPNS_4DeclE.part.2960.constprop.2984
}

{
   basf2 suppression 926
   Memcheck:Leak
   fun:_Znwm
   fun:_ZN5clang17ExternalASTSource30SetExternalVisibleDeclsForNameEPKNS_11DeclContextENS_15DeclarationNameEN4llvm8ArrayRefIPNS_9NamedDeclEEE
   fun:_ZN5clang9ASTReader30FindExternalVisibleDeclsByNameEPKNS_11DeclContextENS_15DeclarationNameE
   fun:_ZN5clang11DeclContext6lookupENS_15DeclarationNameE
   fun:_ZN5clang9ASTReader19CompleteRedeclChainEPKNS_4DeclE
   fun:_ZNK5clang12RedeclarableINS_18NamespaceAliasDeclEE8DeclLink7getNextEPKS1_
   fun:_ZNK5clang12FunctionDecl7hasBodyERPKS0_
   fun:_ZNK5clang4Decl17canBeWeakImportedERb
   fun:_ZNK5clang4Decl14isWeakImportedEv
   fun:_ZL28setLinkageAndVisibilityForGVPN4llvm11GlobalValueEPKN5clang9NamedDeclE
   fun:_ZN5clang7CodeGen13CodeGenModule21SetFunctionAttributesENS_10GlobalDeclEPN4llvm8FunctionEbb
   fun:_ZN5clang7CodeGen13CodeGenModule23GetOrCreateLLVMFunctionEN4llvm9StringRefEPNS2_4TypeENS_10GlobalDeclEbbbNS2_12AttributeSetE
}

{
   basf2 suppression 927
   Memcheck:Leak
   fun:_Znwm
   fun:_ZN5clang17ExternalASTSource30SetExternalVisibleDeclsForNameEPKNS_11DeclContextENS_15DeclarationNameEN4llvm8ArrayRefIPNS_9NamedDeclEEE
   fun:_ZN5clang9ASTReader30FindExternalVisibleDeclsByNameEPKNS_11DeclContextENS_15DeclarationNameE
   fun:_ZN5clang11DeclContext6lookupENS_15DeclarationNameE
   fun:_ZN5clang9ASTReader19CompleteRedeclChainEPKNS_4DeclE
   fun:_ZNK5clang12RedeclarableINS_18NamespaceAliasDeclEE8DeclLink7getNextEPKS1_
   fun:_ZNK5clang12FunctionDecl7hasBodyERPKS0_
   fun:_ZNK5clang12FunctionDecl7getBodyERPKS0_
   fun:_ZN12_GLOBAL__N_116IntExprEvaluator13VisitCallExprEPKN5clang8CallExprE
   fun:_ZN5clang15StmtVisitorBaseINS_14make_const_ptrEN12_GLOBAL__N_116IntExprEvaluatorEbE5VisitEPKNS_4StmtE
   fun:_ZL8EvaluateRN5clang7APValueERN12_GLOBAL__N_18EvalInfoEPKNS_4ExprE
   fun:_ZL15EvaluateInPlaceRN5clang7APValueERN12_GLOBAL__N_18EvalInfoERKNS2_6LValueEPKNS_4ExprEb.part.1440
}

{
   basf2 suppression 928
   Memcheck:Leak
   fun:_Znwm
   fun:_ZN5clang17ExternalASTSource30SetExternalVisibleDeclsForNameEPKNS_11DeclContextENS_15DeclarationNameEN4llvm8ArrayRefIPNS_9NamedDeclEEE
   fun:_ZN5clang9ASTReader30FindExternalVisibleDeclsByNameEPKNS_11DeclContextENS_15DeclarationNameE
   fun:_ZN5clang11DeclContext6lookupENS_15DeclarationNameE
   fun:_ZN5clang9ASTReader19CompleteRedeclChainEPKNS_4DeclE
   fun:_ZNK5clang12RedeclarableINS_18NamespaceAliasDeclEE8DeclLink7getNextEPKS1_
   fun:_ZNK5clang12FunctionDecl7hasBodyERPKS0_
   fun:_ZNK5clang12FunctionDecl11isOutOfLineEv
   fun:_ZN5clang10ASTContext17DeclMustBeEmittedEPKNS_4DeclE
   fun:_ZN5clang7CodeGen13CodeGenModule10EmitGlobalENS_10GlobalDeclE
   fun:_ZN12_GLOBAL__N_113ItaniumCXXABI19EmitCXXConstructorsEPKN5clang18CXXConstructorDeclE
   fun:_ZN5clang7CodeGen13CodeGenModule16EmitTopLevelDeclEPNS_4DeclE.part.2960.constprop.2984
}

{
   basf2 suppression 929
   Memcheck:Leak
   fun:_Znwm
   fun:_ZN5clang17ExternalASTSource30SetExternalVisibleDeclsForNameEPKNS_11DeclContextENS_15DeclarationNameEN4llvm8ArrayRefIPNS_9NamedDeclEEE
   fun:_ZN5clang9ASTReader30FindExternalVisibleDeclsByNameEPKNS_11DeclContextENS_15DeclarationNameE
   fun:_ZN5clang11DeclContext6lookupENS_15DeclarationNameE
   fun:_ZNK5clang11DeclContext16using_directivesEv
   fun:_ZN12_GLOBAL__N_123UnqualUsingDirectiveSet18addUsingDirectivesEPN5clang11DeclContextES3_
   fun:_ZN12_GLOBAL__N_123UnqualUsingDirectiveSet15visitScopeChainEPN5clang5ScopeES3_
   fun:_ZN5clang4Sema13CppLookupNameERNS_12LookupResultEPNS_5ScopeE
   fun:_ZN5clang4Sema10LookupNameERNS_12LookupResultEPNS_5ScopeEb
   fun:_ZN5clang4Sema27BuildCXXNestedNameSpecifierEPNS_5ScopeERNS_14IdentifierInfoENS_14SourceLocationES5_NS_8QualTypeEbRNS_12CXXScopeSpecEPNS_9NamedDeclEbPb
   fun:_ZN5clang4Sema27ActOnCXXNestedNameSpecifierEPNS_5ScopeERNS_14IdentifierInfoENS_14SourceLocationES5_NS_9OpaquePtrINS_8QualTypeEEEbRNS_12CXXScopeSpecEbPb
   fun:_ZN5clang6Parser30ParseOptionalCXXScopeSpecifierERNS_12CXXScopeSpecENS_9OpaquePtrINS_8QualTypeEEEbPbbPPNS_14IdentifierInfoE
}

{
   basf2 suppression 930
   Memcheck:Leak
   fun:malloc
   fun:_PyObject_GC_Malloc
   fun:_PyObject_GC_NewVar
   fun:PyTuple_New
   fun:PyTuple_Pack
   fun:PyType_Ready
   fun:PyInit__thread
   fun:_imp_create_builtin
   fun:PyCFunction_Call
   fun:PyEval_EvalFrameEx
   fun:_PyEval_EvalCodeWithName
   fun:PyEval_EvalFrameEx
}

{
   basf2 suppression 931
   Memcheck:Leak
   fun:malloc
   fun:_PyObject_GC_Malloc
   fun:_PyObject_GC_NewVar
   fun:PyTuple_New
   fun:PyTuple_Pack
   fun:PyType_Ready
   fun:PyInit__thread
   fun:_imp_create_builtin
   fun:PyCFunction_Call
   fun:PyEval_EvalFrameEx
   fun:_PyEval_EvalCodeWithName
   fun:PyEval_EvalFrameEx
}

{
   basf2 suppression 932
   Memcheck:Leak
   fun:malloc
   fun:_PyObject_GC_Malloc
   fun:_PyObject_GC_NewVar
   fun:PyTuple_New
   fun:r_object
   fun:r_object
   fun:r_object
   fun:r_object
   fun:r_object
   fun:r_object
   fun:PyMarshal_ReadObjectFromString
   fun:_imp_get_frozen_object
}

{
   basf2 suppression 933
   Memcheck:Leak
   fun:malloc
   fun:_PyObject_GC_Malloc
   fun:_PyObject_GC_NewVar
   fun:PyTuple_New
   fun:PyTuple_Pack
   fun:PyType_Ready
   fun:PyInit__io
   fun:_imp_create_builtin
   fun:PyCFunction_Call
   fun:PyEval_EvalFrameEx
   fun:_PyEval_EvalCodeWithName
   fun:PyEval_EvalFrameEx
}

{
   basf2 suppression 934
   Memcheck:Leak
   fun:malloc
   fun:_PyObject_GC_Malloc
   fun:_PyObject_GC_NewVar
   fun:PyTuple_New
   fun:PyTuple_Pack
   fun:PyType_Ready
   fun:PyInit__io
   fun:_imp_create_builtin
   fun:PyCFunction_Call
   fun:PyEval_EvalFrameEx
   fun:_PyEval_EvalCodeWithName
   fun:PyEval_EvalFrameEx
}

{
   basf2 suppression 935
   Memcheck:Leak
   fun:malloc
   fun:_PyObject_GC_Malloc
   fun:_PyObject_GC_NewVar
   fun:PyTuple_New
   fun:PyTuple_Pack
   fun:PyType_Ready
   fun:PyInit__io
   fun:_imp_create_builtin
   fun:PyCFunction_Call
   fun:PyEval_EvalFrameEx
   fun:_PyEval_EvalCodeWithName
   fun:PyEval_EvalFrameEx
}

{
   basf2 suppression 936
   Memcheck:Leak
   fun:malloc
   fun:_PyObject_GC_Malloc
   fun:_PyObject_GC_NewVar
   fun:PyTuple_New
   fun:PyTuple_Pack
   fun:PyType_Ready
   fun:PyInit__io
   fun:_imp_create_builtin
   fun:PyCFunction_Call
   fun:PyEval_EvalFrameEx
   fun:_PyEval_EvalCodeWithName
   fun:PyEval_EvalFrameEx
}

{
   basf2 suppression 937
   Memcheck:Leak
   fun:malloc
   fun:_PyObject_GC_Malloc
   fun:_PyObject_GC_NewVar
   fun:PyTuple_New
   fun:PyTuple_Pack
   fun:PyType_Ready
   fun:PyInit__io
   fun:_imp_create_builtin
   fun:PyCFunction_Call
   fun:PyEval_EvalFrameEx
   fun:_PyEval_EvalCodeWithName
   fun:PyEval_EvalFrameEx
}

{
   basf2 suppression 938
   Memcheck:Leak
   fun:malloc
   fun:_PyObject_GC_Malloc
   fun:_PyObject_GC_NewVar
   fun:PyTuple_New
   fun:PyTuple_Pack
   fun:PyType_Ready
   fun:PyInit__io
   fun:_imp_create_builtin
   fun:PyCFunction_Call
   fun:PyEval_EvalFrameEx
   fun:_PyEval_EvalCodeWithName
   fun:PyEval_EvalFrameEx
}

{
   basf2 suppression 939
   Memcheck:Leak
   fun:malloc
   fun:_PyObject_GC_Malloc
   fun:_PyObject_GC_NewVar
   fun:PyTuple_New
   fun:PyTuple_Pack
   fun:PyType_Ready
   fun:PyStructSequence_InitType2
   fun:PyInit_posix
   fun:_imp_create_builtin
   fun:PyCFunction_Call
   fun:PyEval_EvalFrameEx
   fun:_PyEval_EvalCodeWithName
}

{
   basf2 suppression 940
   Memcheck:Leak
   fun:malloc
   fun:_PyObject_GC_Malloc
   fun:_PyObject_GC_NewVar
   fun:PyTuple_New
   fun:PyTuple_Pack
   fun:PyType_Ready
   fun:PyStructSequence_InitType2
   fun:PyInit_posix
   fun:_imp_create_builtin
   fun:PyCFunction_Call
   fun:PyEval_EvalFrameEx
   fun:_PyEval_EvalCodeWithName
}

{
   basf2 suppression 941
   Memcheck:Leak
   fun:malloc
   fun:_PyObject_GC_Malloc
   fun:_PyObject_GC_NewVar
   fun:PyTuple_New
   fun:PyTuple_Pack
   fun:PyType_Ready
   fun:PyStructSequence_InitType2
   fun:PyInit_posix
   fun:_imp_create_builtin
   fun:PyCFunction_Call
   fun:PyEval_EvalFrameEx
   fun:_PyEval_EvalCodeWithName
}

{
   basf2 suppression 942
   Memcheck:Leak
   fun:malloc
   fun:_PyObject_GC_Malloc
   fun:_PyObject_GC_NewVar
   fun:PyTuple_New
   fun:PyTuple_Pack
   fun:PyType_Ready
   fun:PyInit_posix
   fun:_imp_create_builtin
   fun:PyCFunction_Call
   fun:PyEval_EvalFrameEx
   fun:_PyEval_EvalCodeWithName
   fun:PyEval_EvalFrameEx
}

{
   basf2 suppression 943
   Memcheck:Leak
   fun:malloc
   fun:_PyObject_GC_Malloc
   fun:_PyObject_GC_NewVar
   fun:PyTuple_New
   fun:PyTuple_Pack
   fun:PyType_Ready
   fun:PyInit_posix
   fun:_imp_create_builtin
   fun:PyCFunction_Call
   fun:PyEval_EvalFrameEx
   fun:_PyEval_EvalCodeWithName
   fun:PyEval_EvalFrameEx
}

{
   basf2 suppression 944
   Memcheck:Leak
   fun:malloc
   fun:_PyObject_GC_Malloc
   fun:_PyObject_GC_NewVar
   fun:PyTuple_New
   fun:PyTuple_Pack
   fun:PyType_Ready
   fun:PyStructSequence_InitType2
   fun:PyInit_posix
   fun:_imp_create_builtin
   fun:PyCFunction_Call
   fun:PyEval_EvalFrameEx
   fun:_PyEval_EvalCodeWithName
}

{
   basf2 suppression 945
   Memcheck:Leak
   fun:malloc
   fun:_PyObject_GC_Malloc
   fun:_PyObject_GC_NewVar
   fun:PyTuple_New
   fun:PyTuple_Pack
   fun:PyType_Ready
   fun:PyInit_zipimport
   fun:_imp_create_builtin
   fun:PyCFunction_Call
   fun:PyEval_EvalFrameEx
   fun:_PyEval_EvalCodeWithName
   fun:PyEval_EvalFrameEx
}

{
   basf2 suppression 946
   Memcheck:Leak
   fun:malloc
   fun:_PyObject_GC_Malloc
   fun:_PyObject_GC_NewVar
   fun:PyTuple_New
   fun:PyTuple_Pack
   fun:PyErr_NewException
   fun:PyInit_zipimport
   fun:_imp_create_builtin
   fun:PyCFunction_Call
   fun:PyEval_EvalFrameEx
   fun:_PyEval_EvalCodeWithName
   fun:PyEval_EvalFrameEx
}

{
   basf2 suppression 947
   Memcheck:Leak
   fun:malloc
   fun:_PyObject_GC_Malloc
   fun:_PyObject_GC_NewVar
   fun:PyTuple_New
   fun:PyEval_EvalFrameEx
   fun:_PyEval_EvalCodeWithName
   fun:PyEval_EvalCodeEx
   fun:function_call
   fun:PyObject_Call
   fun:_PyObject_CallMethodIdObjArgs
   fun:PyImport_ImportModuleLevelObject
   fun:builtin___import__
}

{
   basf2 suppression 948
   Memcheck:Leak
   fun:malloc
   fun:_PyObject_GC_Malloc
   fun:_PyObject_GC_NewVar
   fun:PyTuple_New
   fun:PyObject_CallFunctionObjArgs
   fun:PyObject_ClearWeakRefs
   fun:subtype_dealloc
   fun:dict_dealloc
   fun:subtype_dealloc
   fun:method_dealloc
   fun:PyEval_EvalFrameEx
   fun:_PyEval_EvalCodeWithName
}

{
   basf2 suppression 949
   Memcheck:Leak
   fun:malloc
   fun:_PyObject_GC_Malloc
   fun:_PyObject_GC_NewVar
   fun:PyTuple_New
   fun:PyTuple_Pack
   fun:PyType_Ready
   fun:best_base
   fun:type_new
   fun:type_call
   fun:PyObject_Call
   fun:PyEval_CallObjectWithKeywords
   fun:builtin___build_class__
}

{
   basf2 suppression 950
   Memcheck:Leak
   fun:malloc
   fun:_PyObject_GC_Malloc
   fun:_PyObject_GC_NewVar
   fun:PyTuple_New
   fun:PyTuple_Pack
   fun:_PyErr_SetKeyError
   fun:dict_subscript
   fun:PyEval_EvalFrameEx
   fun:_PyEval_EvalCodeWithName
   fun:PyEval_EvalCodeEx
   fun:function_call
   fun:PyObject_Call
}

{
   basf2 suppression 951
   Memcheck:Leak
   fun:_Znwm
   fun:_ZN5clang17ExternalASTSource30SetExternalVisibleDeclsForNameEPKNS_11DeclContextENS_15DeclarationNameEN4llvm8ArrayRefIPNS_9NamedDeclEEE
   fun:_ZN5clang9ASTReader30FindExternalVisibleDeclsByNameEPKNS_11DeclContextENS_15DeclarationNameE
   fun:_ZN5clang27MultiplexExternalSemaSource30FindExternalVisibleDeclsByNameEPKNS_11DeclContextENS_15DeclarationNameE
   fun:_ZN5clang11DeclContext6lookupENS_15DeclarationNameE
   fun:_ZL12LookupDirectRN5clang4SemaERNS_12LookupResultEPKNS_11DeclContextE
   fun:_ZN5clang4Sema13CppLookupNameERNS_12LookupResultEPNS_5ScopeE
   fun:_ZN5clang4Sema10LookupNameERNS_12LookupResultEPNS_5ScopeEb
   fun:_ZN5clang4Sema11getTypeNameERKNS_14IdentifierInfoENS_14SourceLocationEPNS_5ScopeEPNS_12CXXScopeSpecEbbNS_9OpaquePtrINS_8QualTypeEEEbbPPS1_
   fun:_ZN5clang6Parser26ParseDeclarationSpecifiersERNS_8DeclSpecERKNS0_18ParsedTemplateInfoENS_15AccessSpecifierENS0_15DeclSpecContextEPNS0_18LateParsedAttrListE
   fun:_ZN5clang6Parser27ParseSpecifierQualifierListERNS_8DeclSpecENS_15AccessSpecifierENS0_15DeclSpecContextE
   fun:_ZN5clang6Parser13ParseTypeNameEPNS_11SourceRangeENS_10Declarator10TheContextENS_15AccessSpecifierEPPNS_4DeclEPNS_16ParsedAttributesE
}

{
   basf2 suppression 952
   Memcheck:Leak
   fun:malloc
   fun:_PyObject_GC_Malloc
   fun:_PyObject_GC_NewVar
   fun:PyTuple_New
   fun:PyList_AsTuple
   fun:PySequence_Tuple
   fun:mro_internal
   fun:PyType_Ready
   fun:_Py_ReadyTypes
   fun:_Py_InitializeEx_Private
   fun:main
}

{
   basf2 suppression 953
   Memcheck:Leak
   fun:malloc
   fun:_PyObject_GC_Malloc
   fun:_PyObject_GC_NewVar
   fun:PyTuple_New
   fun:PyTuple_Pack
   fun:PyType_Ready
   fun:_Py_ReadyTypes
   fun:_Py_InitializeEx_Private
   fun:main
}

{
   basf2 suppression 954
   Memcheck:Leak
   fun:malloc
   fun:_PyObject_GC_Malloc
   fun:_PyObject_GC_NewVar
   fun:PyTuple_New
   fun:PyTuple_Pack
   fun:PyType_Ready
   fun:_Py_ReadyTypes
   fun:_Py_InitializeEx_Private
   fun:main
}

{
   basf2 suppression 955
   Memcheck:Leak
   fun:malloc
   fun:_PyObject_GC_Malloc
   fun:_PyObject_GC_NewVar
   fun:PyTuple_New
   fun:PyTuple_Pack
   fun:PyType_Ready
   fun:_Py_ReadyTypes
   fun:_Py_InitializeEx_Private
   fun:main
}

{
   basf2 suppression 956
   Memcheck:Leak
   fun:malloc
   fun:_PyObject_GC_Malloc
   fun:_PyObject_GC_NewVar
   fun:PyTuple_New
   fun:PyTuple_Pack
   fun:PyType_Ready
   fun:_Py_ReadyTypes
   fun:_Py_InitializeEx_Private
   fun:main
}

{
   basf2 suppression 957
   Memcheck:Leak
   fun:malloc
   fun:_PyObject_GC_Malloc
   fun:_PyObject_GC_NewVar
   fun:PyTuple_New
   fun:PyTuple_Pack
   fun:PyType_Ready
   fun:_Py_ReadyTypes
   fun:_Py_InitializeEx_Private
   fun:main
}

{
   basf2 suppression 958
   Memcheck:Leak
   fun:malloc
   fun:_PyObject_GC_Malloc
   fun:_PyObject_GC_NewVar
   fun:PyTuple_New
   fun:PyTuple_Pack
   fun:PyType_Ready
   fun:_Py_ReadyTypes
   fun:_Py_InitializeEx_Private
   fun:main
}

{
   basf2 suppression 959
   Memcheck:Leak
   fun:malloc
   fun:_PyObject_GC_Malloc
   fun:_PyObject_GC_NewVar
   fun:PyTuple_New
   fun:PyTuple_Pack
   fun:PyType_Ready
   fun:_Py_ReadyTypes
   fun:_Py_InitializeEx_Private
   fun:main
}

{
   basf2 suppression 960
   Memcheck:Leak
   fun:malloc
   fun:_PyObject_GC_Malloc
   fun:_PyObject_GC_NewVar
   fun:PyTuple_New
   fun:PyTuple_Pack
   fun:PyType_Ready
   fun:_Py_ReadyTypes
   fun:_Py_InitializeEx_Private
   fun:main
}

{
   basf2 suppression 961
   Memcheck:Leak
   fun:malloc
   fun:_PyObject_GC_Malloc
   fun:_PyObject_GC_NewVar
   fun:PyTuple_New
   fun:PyTuple_Pack
   fun:PyType_Ready
   fun:_Py_ReadyTypes
   fun:_Py_InitializeEx_Private
   fun:main
}

{
   basf2 suppression 962
   Memcheck:Leak
   fun:malloc
   fun:_PyObject_GC_Malloc
   fun:_PyObject_GC_NewVar
   fun:PyTuple_New
   fun:PyTuple_Pack
   fun:PyType_Ready
   fun:_Py_ReadyTypes
   fun:_Py_InitializeEx_Private
   fun:main
}

{
   basf2 suppression 963
   Memcheck:Leak
   fun:malloc
   fun:_PyObject_GC_Malloc
   fun:_PyObject_GC_NewVar
   fun:PyTuple_New
   fun:PyTuple_Pack
   fun:PyType_Ready
   fun:_Py_ReadyTypes
   fun:_Py_InitializeEx_Private
   fun:main
}

{
   basf2 suppression 964
   Memcheck:Leak
   fun:malloc
   fun:_PyObject_GC_Malloc
   fun:_PyObject_GC_NewVar
   fun:PyTuple_New
   fun:PyTuple_Pack
   fun:PyType_Ready
   fun:_Py_ReadyTypes
   fun:_Py_InitializeEx_Private
   fun:main
}

{
   basf2 suppression 965
   Memcheck:Leak
   fun:malloc
   fun:_PyObject_GC_Malloc
   fun:_PyObject_GC_NewVar
   fun:PyTuple_New
   fun:PyTuple_Pack
   fun:PyType_Ready
   fun:_Py_ReadyTypes
   fun:_Py_InitializeEx_Private
   fun:main
}

{
   basf2 suppression 966
   Memcheck:Leak
   fun:malloc
   fun:_PyObject_GC_Malloc
   fun:_PyObject_GC_NewVar
   fun:PyTuple_New
   fun:PyTuple_Pack
   fun:PyType_Ready
   fun:_Py_ReadyTypes
   fun:_Py_InitializeEx_Private
   fun:main
}

{
   basf2 suppression 967
   Memcheck:Leak
   fun:malloc
   fun:_PyObject_GC_Malloc
   fun:_PyObject_GC_NewVar
   fun:PyTuple_New
   fun:PyTuple_Pack
   fun:PyType_Ready
   fun:_Py_ReadyTypes
   fun:_Py_InitializeEx_Private
   fun:main
}

{
   basf2 suppression 968
   Memcheck:Leak
   fun:malloc
   fun:_PyObject_GC_Malloc
   fun:_PyObject_GC_NewVar
   fun:PyTuple_New
   fun:PyTuple_Pack
   fun:PyType_Ready
   fun:_Py_ReadyTypes
   fun:_Py_InitializeEx_Private
   fun:main
}

{
   basf2 suppression 969
   Memcheck:Leak
   fun:malloc
   fun:_PyObject_GC_Malloc
   fun:_PyObject_GC_NewVar
   fun:PyTuple_New
   fun:PyTuple_Pack
   fun:PyType_Ready
   fun:PyType_Ready
   fun:_Py_ReadyTypes
   fun:_Py_InitializeEx_Private
   fun:main
}

{
   basf2 suppression 970
   Memcheck:Leak
   fun:malloc
   fun:_PyObject_GC_Malloc
   fun:_PyObject_GC_NewVar
   fun:PyTuple_New
   fun:PyTuple_Pack
   fun:PyType_Ready
   fun:_Py_ReadyTypes
   fun:_Py_InitializeEx_Private
   fun:main
}

{
   basf2 suppression 971
   Memcheck:Leak
   fun:malloc
   fun:_PyObject_GC_Malloc
   fun:_PyObject_GC_NewVar
   fun:PyTuple_New
   fun:PyTuple_Pack
   fun:PyType_Ready
   fun:PyType_Ready
   fun:_Py_ReadyTypes
   fun:_Py_InitializeEx_Private
   fun:main
}

{
   basf2 suppression 972
   Memcheck:Leak
   fun:malloc
   fun:_PyObject_GC_Malloc
   fun:_PyObject_GC_NewVar
   fun:PyTuple_New
   fun:PyTuple_Pack
   fun:PyType_Ready
   fun:_Py_ReadyTypes
   fun:_Py_InitializeEx_Private
   fun:main
}

{
   basf2 suppression 973
   Memcheck:Leak
   fun:malloc
   fun:_PyObject_GC_Malloc
   fun:_PyObject_GC_NewVar
   fun:PyTuple_New
   fun:PyTuple_Pack
   fun:PyType_Ready
   fun:PyType_Ready
   fun:_Py_ReadyTypes
   fun:_Py_InitializeEx_Private
   fun:main
}

{
   basf2 suppression 974
   Memcheck:Leak
   fun:malloc
   fun:_PyObject_GC_Malloc
   fun:_PyObject_GC_NewVar
   fun:PyTuple_New
   fun:PyTuple_Pack
   fun:PyType_Ready
   fun:_Py_ReadyTypes
   fun:_Py_InitializeEx_Private
   fun:main
}

{
   basf2 suppression 975
   Memcheck:Leak
   fun:malloc
   fun:_PyObject_GC_Malloc
   fun:_PyObject_GC_NewVar
   fun:PyTuple_New
   fun:PyTuple_Pack
   fun:PyType_Ready
   fun:_Py_ReadyTypes
   fun:_Py_InitializeEx_Private
   fun:main
}

{
   basf2 suppression 976
   Memcheck:Leak
   fun:malloc
   fun:_PyObject_GC_Malloc
   fun:_PyObject_GC_NewVar
   fun:PyTuple_New
   fun:PyTuple_Pack
   fun:PyType_Ready
   fun:_Py_ReadyTypes
   fun:_Py_InitializeEx_Private
   fun:main
}

{
   basf2 suppression 977
   Memcheck:Leak
   fun:malloc
   fun:_PyObject_GC_Malloc
   fun:_PyObject_GC_NewVar
   fun:PyTuple_New
   fun:PyTuple_Pack
   fun:PyType_Ready
   fun:_Py_ReadyTypes
   fun:_Py_InitializeEx_Private
   fun:main
}

{
   basf2 suppression 978
   Memcheck:Leak
   fun:malloc
   fun:_PyObject_GC_Malloc
   fun:_PyObject_GC_NewVar
   fun:PyTuple_New
   fun:PyTuple_Pack
   fun:PyType_Ready
   fun:_Py_ReadyTypes
   fun:_Py_InitializeEx_Private
   fun:main
}

{
   basf2 suppression 979
   Memcheck:Leak
   fun:malloc
   fun:_PyObject_GC_Malloc
   fun:_PyObject_GC_NewVar
   fun:PyTuple_New
   fun:PyTuple_Pack
   fun:PyType_Ready
   fun:_Py_ReadyTypes
   fun:_Py_InitializeEx_Private
   fun:main
}

{
   basf2 suppression 980
   Memcheck:Leak
   fun:malloc
   fun:_PyObject_GC_Malloc
   fun:_PyObject_GC_NewVar
   fun:PyTuple_New
   fun:PyTuple_Pack
   fun:PyType_Ready
   fun:_Py_ReadyTypes
   fun:_Py_InitializeEx_Private
   fun:main
}

{
   basf2 suppression 981
   Memcheck:Leak
   fun:malloc
   fun:_PyObject_GC_Malloc
   fun:_PyObject_GC_NewVar
   fun:PyTuple_New
   fun:PyTuple_Pack
   fun:PyType_Ready
   fun:_Py_ReadyTypes
   fun:_Py_InitializeEx_Private
   fun:main
}

{
   basf2 suppression 982
   Memcheck:Leak
   fun:malloc
   fun:_PyObject_GC_Malloc
   fun:_PyObject_GC_NewVar
   fun:PyTuple_New
   fun:PyTuple_Pack
   fun:PyType_Ready
   fun:_Py_ReadyTypes
   fun:_Py_InitializeEx_Private
   fun:main
}

{
   basf2 suppression 983
   Memcheck:Leak
   fun:malloc
   fun:_PyObject_GC_Malloc
   fun:_PyObject_GC_NewVar
   fun:PyTuple_New
   fun:PyTuple_Pack
   fun:PyType_Ready
   fun:_Py_ReadyTypes
   fun:_Py_InitializeEx_Private
   fun:main
}

{
   basf2 suppression 984
   Memcheck:Leak
   fun:malloc
   fun:_PyObject_GC_Malloc
